###############################################################################
#                                                                             #
# IAR C/C++ Compiler V8.10.1.10194/W32 for 8051         29/Dec/2020  00:18:24 #
# Copyright 2004-2011 IAR Systems AB.                                         #
#                                                                             #
#    Core               =  plain                                              #
#    Code model         =  banked                                             #
#    Data model         =  large                                              #
#    Calling convention =  xdata reentrant                                    #
#    Constant location  =  data_rom                                           #
#    Dptr setup         =  1,16                                               #
#    Source file        =  D:\developer_tool_install\IAR\ZStack-CC2530-2.5.1a #
#                          \Components\stack\zdo\ZDSecMgr.c                   #
#    Command line       =  -f D:\developer_tool_install\IAR\ZStack-CC2530-2.5 #
#                          .1a\Projects\zstack\Samples\SmartHome\CC2530DB\..\ #
#                          ..\..\Tools\CC2530DB\f8wCoord.cfg (-DCPU32MHZ      #
#                          -DROOT=__near_func -DMAC_CFG_APP_PENDING_QUEUE=TRU #
#                          E -DMAC_CFG_TX_DATA_MAX=5 -DMAC_CFG_TX_MAX=8       #
#                          -DMAC_CFG_RX_MAX=5 -DZDO_COORDINATOR -DRTR_NWK)    #
#                          -f D:\developer_tool_install\IAR\ZStack-CC2530-2.5 #
#                          .1a\Projects\zstack\Samples\SmartHome\CC2530DB\..\ #
#                          ..\..\Tools\CC2530DB\f8wConfig.cfg (-DZIGBEEPRO    #
#                          -DSECURE=0 -DZG_SECURE_DYNAMIC=0 -DREFLECTOR       #
#                          -DDEFAULT_CHANLIST=0x00010000                      #
#                          -DZDAPP_CONFIG_PAN_ID=0xFFAA                       #
#                          -DNWK_START_DELAY=100 -DEXTENDED_JOINING_RANDOM_MA #
#                          SK=0x007F -DBEACON_REQUEST_DELAY=100               #
#                          -DBEACON_REQ_DELAY_MASK=0x00FF                     #
#                          -DLINK_STATUS_JITTER_MASK=0x007F                   #
#                          -DROUTE_EXPIRY_TIME=30 -DAPSC_ACK_WAIT_DURATION_PO #
#                          LLED=3000 -DNWK_INDIRECT_MSG_TIMEOUT=7             #
#                          -DMAX_RREQ_ENTRIES=8 -DAPSC_MAX_FRAME_RETRIES=3    #
#                          -DNWK_MAX_DATA_RETRIES=2                           #
#                          -DMAX_POLL_FAILURE_RETRIES=2 -DMAX_BCAST=9         #
#                          -DAPS_MAX_GROUPS=16 -DMAX_RTG_ENTRIES=40           #
#                          -DNWK_MAX_BINDING_ENTRIES=4                        #
#                          -DMAX_BINDING_CLUSTER_IDS=4 "-DDEFAULT_KEY={0x01,  #
#                          0x03, 0x05, 0x07, 0x09, 0x0B, 0x0D, 0x0F, 0x00,    #
#                          0x02, 0x04, 0x06, 0x08, 0x0A, 0x0C, 0x0D}"         #
#                          -DMAC_MAX_FRAME_SIZE=116                           #
#                          -DZDNWKMGR_MIN_TRANSMISSIONS=20 "-DCONST=const     #
#                          __code" -DGENERIC=__generic                        #
#                          -DRFD_RCVC_ALWAYS_ON=FALSE -DPOLL_RATE=1000        #
#                          -DQUEUED_POLL_RATE=100 -DRESPONSE_POLL_RATE=100)   #
#                          -DREJOIN_POLL_RATE=440 D:\developer_tool_install\I #
#                          AR\ZStack-CC2530-2.5.1a\Components\stack\zdo\ZDSec #
#                          Mgr.c -D ZTOOL_P2 -D xMT_TASK -D xMT_SYS_FUNC -D   #
#                          xMT_ZDO_FUNC -D xLCD_SUPPORTED=DEBUG -lC           #
#                          D:\developer_tool_install\IAR\ZStack-CC2530-2.5.1a #
#                          \Projects\zstack\Samples\SmartHome\CC2530DB\Coordi #
#                          natorEB\List\ -lA D:\developer_tool_install\IAR\ZS #
#                          tack-CC2530-2.5.1a\Projects\zstack\Samples\SmartHo #
#                          me\CC2530DB\CoordinatorEB\List\ --diag_suppress    #
#                          Pe001,Pa010 -o D:\developer_tool_install\IAR\ZStac #
#                          k-CC2530-2.5.1a\Projects\zstack\Samples\SmartHome\ #
#                          CC2530DB\CoordinatorEB\Obj\ -e --no_code_motion    #
#                          --debug --core=plain --dptr=16,1                   #
#                          --data_model=large --code_model=banked             #
#                          --calling_convention=xdata_reentrant               #
#                          --place_constants=data_rom --nr_virtual_regs 16    #
#                          -I D:\developer_tool_install\IAR\ZStack-CC2530-2.5 #
#                          .1a\Projects\zstack\Samples\SmartHome\CC2530DB\    #
#                          -I D:\developer_tool_install\IAR\ZStack-CC2530-2.5 #
#                          .1a\Projects\zstack\Samples\SmartHome\CC2530DB\..\ #
#                          Source\ -I D:\developer_tool_install\IAR\ZStack-CC #
#                          2530-2.5.1a\Projects\zstack\Samples\SmartHome\CC25 #
#                          30DB\..\..\..\ZMain\TI2530DB\ -I                   #
#                          D:\developer_tool_install\IAR\ZStack-CC2530-2.5.1a #
#                          \Projects\zstack\Samples\SmartHome\CC2530DB\..\..\ #
#                          ..\..\..\Components\hal\include\ -I                #
#                          D:\developer_tool_install\IAR\ZStack-CC2530-2.5.1a #
#                          \Projects\zstack\Samples\SmartHome\CC2530DB\..\..\ #
#                          ..\..\..\Components\hal\target\CC2530EB\ -I        #
#                          D:\developer_tool_install\IAR\ZStack-CC2530-2.5.1a #
#                          \Projects\zstack\Samples\SmartHome\CC2530DB\..\..\ #
#                          ..\..\..\Components\mac\include\ -I                #
#                          D:\developer_tool_install\IAR\ZStack-CC2530-2.5.1a #
#                          \Projects\zstack\Samples\SmartHome\CC2530DB\..\..\ #
#                          ..\..\..\Components\mac\high_level\ -I             #
#                          D:\developer_tool_install\IAR\ZStack-CC2530-2.5.1a #
#                          \Projects\zstack\Samples\SmartHome\CC2530DB\..\..\ #
#                          ..\..\..\Components\mac\low_level\srf04\ -I        #
#                          D:\developer_tool_install\IAR\ZStack-CC2530-2.5.1a #
#                          \Projects\zstack\Samples\SmartHome\CC2530DB\..\..\ #
#                          ..\..\..\Components\mac\low_level\srf04\single_chi #
#                          p\ -I D:\developer_tool_install\IAR\ZStack-CC2530- #
#                          2.5.1a\Projects\zstack\Samples\SmartHome\CC2530DB\ #
#                          ..\..\..\..\..\Components\mt\ -I                   #
#                          D:\developer_tool_install\IAR\ZStack-CC2530-2.5.1a #
#                          \Projects\zstack\Samples\SmartHome\CC2530DB\..\..\ #
#                          ..\..\..\Components\osal\include\ -I               #
#                          D:\developer_tool_install\IAR\ZStack-CC2530-2.5.1a #
#                          \Projects\zstack\Samples\SmartHome\CC2530DB\..\..\ #
#                          ..\..\..\Components\services\saddr\ -I             #
#                          D:\developer_tool_install\IAR\ZStack-CC2530-2.5.1a #
#                          \Projects\zstack\Samples\SmartHome\CC2530DB\..\..\ #
#                          ..\..\..\Components\services\sdata\ -I             #
#                          D:\developer_tool_install\IAR\ZStack-CC2530-2.5.1a #
#                          \Projects\zstack\Samples\SmartHome\CC2530DB\..\..\ #
#                          ..\..\..\Components\stack\af\ -I                   #
#                          D:\developer_tool_install\IAR\ZStack-CC2530-2.5.1a #
#                          \Projects\zstack\Samples\SmartHome\CC2530DB\..\..\ #
#                          ..\..\..\Components\stack\nwk\ -I                  #
#                          D:\developer_tool_install\IAR\ZStack-CC2530-2.5.1a #
#                          \Projects\zstack\Samples\SmartHome\CC2530DB\..\..\ #
#                          ..\..\..\Components\stack\sapi\ -I                 #
#                          D:\developer_tool_install\IAR\ZStack-CC2530-2.5.1a #
#                          \Projects\zstack\Samples\SmartHome\CC2530DB\..\..\ #
#                          ..\..\..\Components\stack\sec\ -I                  #
#                          D:\developer_tool_install\IAR\ZStack-CC2530-2.5.1a #
#                          \Projects\zstack\Samples\SmartHome\CC2530DB\..\..\ #
#                          ..\..\..\Components\stack\sys\ -I                  #
#                          D:\developer_tool_install\IAR\ZStack-CC2530-2.5.1a #
#                          \Projects\zstack\Samples\SmartHome\CC2530DB\..\..\ #
#                          ..\..\..\Components\stack\zdo\ -I                  #
#                          D:\developer_tool_install\IAR\ZStack-CC2530-2.5.1a #
#                          \Projects\zstack\Samples\SmartHome\CC2530DB\..\..\ #
#                          ..\..\..\Components\zmac\ -I                       #
#                          D:\developer_tool_install\IAR\ZStack-CC2530-2.5.1a #
#                          \Projects\zstack\Samples\SmartHome\CC2530DB\..\..\ #
#                          ..\..\..\Components\zmac\f8w\ -Ohz                 #
#                          --require_prototypes                               #
#    List file          =  D:\developer_tool_install\IAR\ZStack-CC2530-2.5.1a #
#                          \Projects\zstack\Samples\SmartHome\CC2530DB\Coordi #
#                          natorEB\List\ZDSecMgr.lst                          #
#    Object file        =  D:\developer_tool_install\IAR\ZStack-CC2530-2.5.1a #
#                          \Projects\zstack\Samples\SmartHome\CC2530DB\Coordi #
#                          natorEB\Obj\ZDSecMgr.r51                           #
#                                                                             #
#                                                                             #
###############################################################################

D:\developer_tool_install\IAR\ZStack-CC2530-2.5.1a\Components\stack\zdo\ZDSecMgr.c
      1          /******************************************************************************
      2            Filename:       ZDSecMgr.c
      3            Revised:        $Date: 2012-02-16 13:22:48 -0800 (Thu, 16 Feb 2012) $
      4            Revision:       $Revision: 29339 $
      5          
      6            Description:    The ZigBee Device Security Manager.
      7          
      8          
      9            Copyright 2005-2012 Texas Instruments Incorporated. All rights reserved.
     10          
     11            IMPORTANT: Your use of this Software is limited to those specific rights
     12            granted under the terms of a software license agreement between the user
     13            who downloaded the software, his/her employer (which must be your employer)
     14            and Texas Instruments Incorporated (the "License"). You may not use this
     15            Software unless you agree to abide by the terms of the License. The License
     16            limits your use, and you acknowledge, that the Software may not be modified,
     17            copied or distributed unless embedded on a Texas Instruments microcontroller
     18            or used solely and exclusively in conjunction with a Texas Instruments radio
     19            frequency transceiver, which is integrated into your product. Other than for
     20            the foregoing purpose, you may not use, reproduce, copy, prepare derivative
     21            works of, modify, distribute, perform, display or sell this Software and/or
     22            its documentation for any purpose.
     23          
     24            YOU FURTHER ACKNOWLEDGE AND AGREE THAT THE SOFTWARE AND DOCUMENTATION ARE
     25            PROVIDED “AS IS” WITHOUT WARRANTY OF ANY KIND, EITHER EXPRESS OR IMPLIED,
     26            INCLUDING WITHOUT LIMITATION, ANY WARRANTY OF MERCHANTABILITY, TITLE,
     27            NON-INFRINGEMENT AND FITNESS FOR A PARTICULAR PURPOSE. IN NO EVENT SHALL
     28            TEXAS INSTRUMENTS OR ITS LICENSORS BE LIABLE OR OBLIGATED UNDER CONTRACT,
     29            NEGLIGENCE, STRICT LIABILITY, CONTRIBUTION, BREACH OF WARRANTY, OR OTHER
     30            LEGAL EQUITABLE THEORY ANY DIRECT OR INDIRECT DAMAGES OR EXPENSES
     31            INCLUDING BUT NOT LIMITED TO ANY INCIDENTAL, SPECIAL, INDIRECT, PUNITIVE
     32            OR CONSEQUENTIAL DAMAGES, LOST PROFITS OR LOST DATA, COST OF PROCUREMENT
     33            OF SUBSTITUTE GOODS, TECHNOLOGY, SERVICES, OR ANY CLAIMS BY THIRD PARTIES
     34            (INCLUDING BUT NOT LIMITED TO ANY DEFENSE THEREOF), OR OTHER SIMILAR COSTS.
     35          
     36            Should you have any questions regarding your right to use this Software,
     37            contact Texas Instruments Incorporated at www.TI.com.
     38          ******************************************************************************/
     39          
     40          #ifdef __cplusplus
     41          extern "C"
     42          {
     43          #endif
     44          
     45          /******************************************************************************
     46           * INCLUDES
     47           */
     48          #include "ZComdef.h"
     49          #include "OSAL.h"
     50          #include "OSAL_NV.h"
     51          #include "ZGlobals.h"
     52          #include "ssp.h"
     53          #include "nwk_globals.h"
     54          #include "nwk.h"
     55          #include "NLMEDE.h"
     56          #include "AddrMgr.h"
     57          #include "AssocList.h"
     58          #include "APSMEDE.h"
     59          #include "ZDConfig.h"
     60          #include "ZDSecMgr.h"
     61          
     62          /******************************************************************************
     63           * CONSTANTS
     64           */
     65          // maximum number of devices managed by this Security Manager
     66          #if !defined ( ZDSECMGR_DEVICE_MAX )
     67            #define ZDSECMGR_DEVICE_MAX 3
     68          #endif
     69          
     70          // total number of preconfigured devices (EXT address, MASTER key)
     71          //devtag.pro.security
     72          //#define ZDSECMGR_PRECONFIG_MAX ZDSECMGR_DEVICE_MAX
     73          #define ZDSECMGR_PRECONFIG_MAX 0
     74          
     75          // maximum number of MASTER keys this device may hold
     76          #define ZDSECMGR_MASTERKEY_MAX ZDSECMGR_DEVICE_MAX
     77          
     78          // maximum number of LINK keys this device may store
     79          #define ZDSECMGR_ENTRY_MAX ZDSECMGR_DEVICE_MAX
     80          
     81          // total number of devices under control - authentication, SKKE, etc.
     82          #define ZDSECMGR_CTRL_MAX ZDSECMGR_DEVICE_MAX
     83          
     84          // total number of stored devices
     85          #if !defined ( ZDSECMGR_STORED_DEVICES )
     86            #define ZDSECMGR_STORED_DEVICES 3
     87          #endif
     88          
     89          // Total number of preconfigured trust center link key
     90          #if !defined ( ZDSECMGR_TC_DEVICE_MAX )
     91            #define ZDSECMGR_TC_DEVICE_MAX 1
     92          #endif
     93          
     94          #if ( ZDSECMGR_TC_DEVICE_MAX < 1 ) || ( ZDSECMGR_TC_DEVICE_MAX > 255 )
     95            #error "ZDSECMGR_TC_DEVICE_MAX shall be between 1 and 255 !"
     96          #endif
     97          
     98          #define ZDSECMGR_CTRL_NONE       0
     99          #define ZDSECMGR_CTRL_INIT       1
    100          #define ZDSECMGR_CTRL_TK_MASTER  2
    101          #define ZDSECMGR_CTRL_SKKE_INIT  3
    102          #define ZDSECMGR_CTRL_SKKE_WAIT  4
    103          #define ZDSECMGR_CTRL_SKKE_DONE  5
    104          #define ZDSECMGR_CTRL_SKKE_FAIL  6
    105          #define ZDSECMGR_CTRL_TK_NWK     7
    106          
    107          #define ZDSECMGR_CTRL_BASE_CNTR      1
    108          #define ZDSECMGR_CTRL_SKKE_INIT_CNTR 1
    109          #define ZDSECMGR_CTRL_TK_NWK_CNTR    1
    110          
    111          // set SKA slot maximum
    112          #define ZDSECMGR_SKA_SLOT_MAX 1
    113          
    114          // APSME Stub Implementations
    115          #define ZDSecMgrMasterKeyGet   APSME_MasterKeyGet
    116          #define ZDSecMgrLinkKeySet     APSME_LinkKeySet
    117          #define ZDSecMgrLinkKeyNVIdGet APSME_LinkKeyNVIdGet
    118          #define ZDSecMgrKeyFwdToChild  APSME_KeyFwdToChild
    119          #define ZDSecMgrIsLinkKeyValid APSME_IsLinkKeyValid
    120          
    121          /******************************************************************************
    122           * TYPEDEFS
    123           */
    124          typedef struct
    125          {
    126            uint8 extAddr[Z_EXTADDR_LEN];
    127            uint8 key[SEC_KEY_LEN];
    128          } ZDSecMgrPreConfigData_t;
    129          
    130          typedef struct
    131          {
    132            uint16 ami;
    133            uint8  key[SEC_KEY_LEN];
    134          } ZDSecMgrMasterKeyData_t;
    135          
    136          typedef struct
    137          {
    138            uint16            ami;
    139            uint16            keyNvId;   // index to the Link Key table in NV
    140            ZDSecMgr_Authentication_Option authenticateOption;
    141          } ZDSecMgrEntry_t;
    142          
    143          typedef struct
    144          {
    145            ZDSecMgrEntry_t* entry;
    146            uint16           parentAddr;
    147            uint8            secure;
    148            uint8            state;
    149            uint8            cntr;
    150          } ZDSecMgrCtrl_t;
    151          
    152          typedef struct
    153          {
    154            uint16          nwkAddr;
    155            uint8*          extAddr;
    156            uint16          parentAddr;
    157            uint8           secure;
    158            uint8           devStatus;
    159            ZDSecMgrCtrl_t* ctrl;
    160          } ZDSecMgrDevice_t;
    161          
    162          /******************************************************************************
    163           * LOCAL VARIABLES
    164           */
    165          #if 0 // Taken out because the following functionality is only used for test
    166                // purpose. A more efficient (above) way is used. It can be put
    167                // back in if customers request for a white/black list feature.
    168          uint8 ZDSecMgrStoredDeviceList[ZDSECMGR_STORED_DEVICES][Z_EXTADDR_LEN] =
    169          {
    170            { 0x01, 0x00, 0x00, 0x00, 0x00, 0x00, 0x00, 0x00 },
    171            { 0x00, 0x00, 0x00, 0x00, 0x00, 0x00, 0x00, 0x01 },
    172            { 0x00, 0x00, 0x00, 0x00, 0x00, 0x00, 0x00, 0x00 },
    173          };
    174          #endif
    175          

   \                                 In  segment XDATA_Z, align 1, keep-with-next
    176          uint8 ZDSecMgrTCExtAddr[Z_EXTADDR_LEN]=
   \                     ZDSecMgrTCExtAddr:
   \   000000                DS 8
   \   000008                REQUIRE __INIT_XDATA_Z
    177            { 0x00, 0x00, 0x00, 0x00, 0x00, 0x00, 0x00, 0x00 };
    178          
    179          // Key data is put in CONST area for security reasons

   \                                 In  segment CODE_C, align 1
    180          CONST uint8 ZDSecMgrTCMasterKey[SEC_KEY_LEN] =
   \                     ZDSecMgrTCMasterKey:
   \   000000   00           DB 0
   \   000001   00           DB 0
   \   000002   00           DB 0
   \   000003   00           DB 0
   \   000004   00           DB 0
   \   000005   00           DB 0
   \   000006   00           DB 0
   \   000007   00           DB 0
   \   000008   89           DB 137
   \   000009   67           DB 103
   \   00000A   45           DB 69
   \   00000B   23           DB 35
   \   00000C   01           DB 1
   \   00000D   EF           DB 239
   \   00000E   CD           DB 205
   \   00000F   AB           DB 171
    181            {0x00,0x00,0x00,0x00,0x00,0x00,0x00,0x00,
    182             0x89,0x67,0x45,0x23,0x01,0xEF,0xCD,0xAB};
    183          

   \                                 In  segment XDATA_Z, align 1, keep-with-next
    184          uint8 ZDSecMgrTCAuthenticated = FALSE;
   \                     ZDSecMgrTCAuthenticated:
   \   000000                DS 1
   \   000001                REQUIRE __INIT_XDATA_Z
    185          
    186          //devtag.pro.security - remove this
    187          #if ( ZDSECMGR_PRECONFIG_MAX != 0 )
    188          const ZDSecMgrPreConfigData_t ZDSecMgrPreConfigData[ZDSECMGR_PRECONFIG_MAX] =
    189          {
    190            //---------------------------------------------------------------------------
    191            // DEVICE A
    192            //---------------------------------------------------------------------------
    193            {
    194              // extAddr
    195              {0x7C,0x01,0x12,0x13,0x14,0x15,0x16,0x17},
    196          
    197              // key
    198              {0x00,0x00,0x00,0x00,0x00,0x00,0x00,0x00,
    199               0x00,0x00,0x00,0x00,0x00,0x00,0x00,0x00}
    200            },
    201            //---------------------------------------------------------------------------
    202            // DEVICE B
    203            //---------------------------------------------------------------------------
    204            {
    205              // extAddr
    206              {0x84,0x03,0x00,0x00,0x00,0x4B,0x12,0x00},
    207          
    208              // key
    209              {0x00,0x00,0x00,0x00,0x00,0x00,0x00,0x00,
    210               0x00,0x00,0x00,0x00,0x00,0x00,0x00,0x00}
    211            },
    212            //---------------------------------------------------------------------------
    213            // DEVICE C
    214            //---------------------------------------------------------------------------
    215            {
    216              // extAddr
    217              {0x3E,0x01,0x12,0x13,0x14,0x15,0x16,0x17},
    218          
    219              // key
    220              {0x00,0x00,0x00,0x00,0x00,0x00,0x00,0x00,
    221               0x00,0x00,0x00,0x00,0x00,0x00,0x00,0x00}
    222            },
    223          };
    224          #endif // ( ZDSECMGR_PRECONFIG_MAX != 0 )
    225          

   \                                 In  segment XDATA_Z, align 1, keep-with-next
    226          ZDSecMgrEntry_t* ZDSecMgrEntries  = NULL;
   \                     ZDSecMgrEntries:
   \   000000                DS 2
   \   000002                REQUIRE __INIT_XDATA_Z

   \                                 In  segment XDATA_Z, align 1, keep-with-next
    227          ZDSecMgrCtrl_t*  ZDSecMgrCtrlData = NULL;
   \                     ZDSecMgrCtrlData:
   \   000000                DS 2
   \   000002                REQUIRE __INIT_XDATA_Z
    228          void ZDSecMgrAddrMgrUpdate( uint16 ami, uint16 nwkAddr );
    229          void ZDSecMgrAddrMgrCB( uint8 update, AddrMgrEntry_t* newEntry, AddrMgrEntry_t* oldEntry );
    230          

   \                                 In  segment XDATA_Z, align 1, keep-with-next
    231          uint8 ZDSecMgrPermitJoiningEnabled;
   \                     ZDSecMgrPermitJoiningEnabled:
   \   000000                DS 1
   \   000001                REQUIRE __INIT_XDATA_Z

   \                                 In  segment XDATA_Z, align 1, keep-with-next
    232          uint8 ZDSecMgrPermitJoiningTimed;
   \                     ZDSecMgrPermitJoiningTimed:
   \   000000                DS 1
   \   000001                REQUIRE __INIT_XDATA_Z
    233          

   \                                 In  segment XDATA_Z, align 1, keep-with-next
    234          APSME_TCLinkKey_t TrustCenterLinkKey;
   \                     TrustCenterLinkKey:
   \   000000                DS 32
   \   000020                REQUIRE __INIT_XDATA_Z
    235          

   \                                 In  segment XDATA_Z, align 1, keep-with-next
    236          APSME_ApsLinkKeyFrmCntr_t ApsLinkKeyFrmCntr[ZDSECMGR_ENTRY_MAX];
   \                     ApsLinkKeyFrmCntr:
   \   000000                DS 27
   \   00001B                REQUIRE __INIT_XDATA_Z

   \                                 In  segment XDATA_Z, align 1, keep-with-next
    237          APSME_TCLinkKeyFrmCntr_t TCLinkKeyFrmCntr[ZDSECMGR_TC_DEVICE_MAX];
   \                     TCLinkKeyFrmCntr:
   \   000000                DS 9
   \   000009                REQUIRE __INIT_XDATA_Z
    238          
    239          /******************************************************************************
    240           * PRIVATE FUNCTIONS
    241           *
    242           *   ZDSecMgrMasterKeyInit
    243           *   ZDSecMgrAddrStore
    244           *   ZDSecMgrExtAddrStore
    245           *   ZDSecMgrExtAddrLookup
    246           *   ZDSecMgrMasterKeyLookup
    247           *   ZDSecMgrMasterKeyStore
    248           *   ZDSecMgrEntryInit
    249           *   ZDSecMgrEntryLookup
    250           *   ZDSecMgrEntryLookupAMI
    251           *   ZDSecMgrEntryLookupExt
    252           *   ZDSecMgrEntryLookupExtGetIndex
    253           *   ZDSecMgrEntryFree
    254           *   ZDSecMgrEntryNew
    255           *   ZDSecMgrCtrlInit
    256           *   ZDSecMgrCtrlRelease
    257           *   ZDSecMgrCtrlLookup
    258           *   ZDSecMgrCtrlSet
    259           *   ZDSecMgrCtrlAdd
    260           *   ZDSecMgrCtrlTerm
    261           *   ZDSecMgrCtrlReset
    262           *   ZDSecMgrMasterKeyLoad
    263           *   ZDSecMgrAppKeyGet
    264           *   ZDSecMgrAppKeyReq
    265           *   ZDSecMgrEstablishKey
    266           *   ZDSecMgrSendMasterKey
    267           *   ZDSecMgrSendNwkKey
    268           *   ZDSecMgrDeviceEntryRemove
    269           *   ZDSecMgrDeviceEntryAdd
    270           *   ZDSecMgrDeviceCtrlHandler
    271           *   ZDSecMgrDeviceCtrlSetup
    272           *   ZDSecMgrDeviceCtrlUpdate
    273           *   ZDSecMgrDeviceRemove
    274           *   ZDSecMgrDeviceValidateSKKE
    275           *   ZDSecMgrDeviceValidateRM
    276           *   ZDSecMgrDeviceValidateCM
    277           *   ZDSecMgrDeviceValidate
    278           *   ZDSecMgrDeviceJoin
    279           *   ZDSecMgrDeviceJoinDirect
    280           *   ZDSecMgrDeviceJoinFwd
    281           *   ZDSecMgrDeviceNew
    282           *   ZDSecMgrAssocDeviceAuth
    283           *   ZDSecMgrAuthInitiate
    284           *   ZDSecMgrAuthNwkKey
    285           *   APSME_TCLinkKeyInit
    286           *   APSME_IsDefaultTCLK
    287           */
    288          //-----------------------------------------------------------------------------
    289          // master key data
    290          //-----------------------------------------------------------------------------
    291          void ZDSecMgrMasterKeyInit( void );
    292          
    293          //-----------------------------------------------------------------------------
    294          // address management
    295          //-----------------------------------------------------------------------------
    296          ZStatus_t ZDSecMgrAddrStore( uint16 nwkAddr, uint8* extAddr, uint16* ami );
    297          ZStatus_t ZDSecMgrExtAddrStore( uint16 nwkAddr, uint8* extAddr, uint16* ami );
    298          ZStatus_t ZDSecMgrExtAddrLookup( uint8* extAddr, uint16* ami );
    299          
    300          //-----------------------------------------------------------------------------
    301          // Trust Center management
    302          //-----------------------------------------------------------------------------
    303          uint8 ZDSecMgrTCExtAddrCheck( uint8* extAddr );
    304          void ZDSecMgrTCDataLoad( uint8* extAddr );
    305          
    306          //-----------------------------------------------------------------------------
    307          // MASTER key data
    308          //-----------------------------------------------------------------------------
    309          ZStatus_t ZDSecMgrMasterKeyLookup( uint16 ami, uint16* pKeyNvId );
    310          ZStatus_t ZDSecMgrMasterKeyStore( uint16 ami, uint8* key );
    311          
    312          //-----------------------------------------------------------------------------
    313          // entry data
    314          //-----------------------------------------------------------------------------
    315          void ZDSecMgrEntryInit(uint8 state);
    316          ZStatus_t ZDSecMgrEntryLookup( uint16 nwkAddr, ZDSecMgrEntry_t** entry );
    317          ZStatus_t ZDSecMgrEntryLookupAMI( uint16 ami, ZDSecMgrEntry_t** entry );
    318          ZStatus_t ZDSecMgrEntryLookupExt( uint8* extAddr, ZDSecMgrEntry_t** entry );
    319          ZStatus_t ZDSecMgrEntryLookupExtGetIndex( uint8* extAddr, ZDSecMgrEntry_t** entry, uint16* entryIndex );
    320          ZStatus_t ZDSecMgrEntryLookupAMIGetIndex( uint16 ami, uint16* entryIndex );
    321          void ZDSecMgrEntryFree( ZDSecMgrEntry_t* entry );
    322          ZStatus_t ZDSecMgrEntryNew( ZDSecMgrEntry_t** entry );
    323          ZStatus_t ZDSecMgrAuthenticationSet( uint8* extAddr, ZDSecMgr_Authentication_Option option );
    324          void ZDSecMgrApsLinkKeyInit(void);
    325          #if defined ( NV_RESTORE )
    326          static void ZDSecMgrWriteNV(void);
    327          static void ZDSecMgrRestoreFromNV(void);
    328          static void ZDSecMgrUpdateNV( uint16 index );
    329          #endif
    330          
    331          //-----------------------------------------------------------------------------
    332          // control data
    333          //-----------------------------------------------------------------------------
    334          void ZDSecMgrCtrlInit( void );
    335          void ZDSecMgrCtrlRelease( ZDSecMgrCtrl_t* ctrl );
    336          void ZDSecMgrCtrlLookup( ZDSecMgrEntry_t* entry, ZDSecMgrCtrl_t** ctrl );
    337          void ZDSecMgrCtrlSet( ZDSecMgrDevice_t* device,
    338                                ZDSecMgrEntry_t*  entry,
    339                                ZDSecMgrCtrl_t*   ctrl );
    340          ZStatus_t ZDSecMgrCtrlAdd( ZDSecMgrDevice_t* device, ZDSecMgrEntry_t*  entry );
    341          void ZDSecMgrCtrlTerm( ZDSecMgrEntry_t* entry );
    342          ZStatus_t ZDSecMgrCtrlReset( ZDSecMgrDevice_t* device,
    343                                       ZDSecMgrEntry_t*  entry );
    344          
    345          //-----------------------------------------------------------------------------
    346          // key support
    347          //-----------------------------------------------------------------------------
    348          ZStatus_t ZDSecMgrMasterKeyLoad( uint8* extAddr, uint8* key );
    349          ZStatus_t ZDSecMgrAppKeyGet( uint16  initNwkAddr,
    350                                       uint8*  initExtAddr,
    351                                       uint16  partNwkAddr,
    352                                       uint8*  partExtAddr,
    353                                       uint8** key,
    354                                       uint8*  keyType );
    355          void ZDSecMgrAppKeyReq( ZDO_RequestKeyInd_t* ind );
    356          ZStatus_t ZDSecMgrEstablishKey( ZDSecMgrDevice_t* device );
    357          ZStatus_t ZDSecMgrSendMasterKey( ZDSecMgrDevice_t* device );
    358          ZStatus_t ZDSecMgrSendNwkKey( ZDSecMgrDevice_t* device );
    359          void ZDSecMgrNwkKeyInit(uint8 setDefault);
    360          
    361          //-----------------------------------------------------------------------------
    362          // device entry
    363          //-----------------------------------------------------------------------------
    364          void ZDSecMgrDeviceEntryRemove( ZDSecMgrEntry_t* entry );
    365          ZStatus_t ZDSecMgrDeviceEntryAdd( ZDSecMgrDevice_t* device, uint16 ami );
    366          
    367          //-----------------------------------------------------------------------------
    368          // device control
    369          //-----------------------------------------------------------------------------
    370          void ZDSecMgrDeviceCtrlHandler( ZDSecMgrDevice_t* device );
    371          void ZDSecMgrDeviceCtrlSetup( ZDSecMgrDevice_t* device );
    372          void ZDSecMgrDeviceCtrlUpdate( uint8* extAddr, uint8 state );
    373          
    374          //-----------------------------------------------------------------------------
    375          // device management
    376          //-----------------------------------------------------------------------------
    377          void ZDSecMgrDeviceRemove( ZDSecMgrDevice_t* device );
    378          ZStatus_t ZDSecMgrDeviceValidateSKKE( ZDSecMgrDevice_t* device );
    379          ZStatus_t ZDSecMgrDeviceValidateRM( ZDSecMgrDevice_t* device );
    380          ZStatus_t ZDSecMgrDeviceValidateCM( ZDSecMgrDevice_t* device );
    381          ZStatus_t ZDSecMgrDeviceValidate( ZDSecMgrDevice_t* device );
    382          ZStatus_t ZDSecMgrDeviceJoin( ZDSecMgrDevice_t* device );
    383          ZStatus_t ZDSecMgrDeviceJoinDirect( ZDSecMgrDevice_t* device );
    384          ZStatus_t ZDSecMgrDeviceJoinFwd( ZDSecMgrDevice_t* device );
    385          ZStatus_t ZDSecMgrDeviceNew( ZDSecMgrDevice_t* device );
    386          
    387          //-----------------------------------------------------------------------------
    388          // association management
    389          //-----------------------------------------------------------------------------
    390          void ZDSecMgrAssocDeviceAuth( associated_devices_t* assoc );
    391          
    392          //-----------------------------------------------------------------------------
    393          // authentication management
    394          //-----------------------------------------------------------------------------
    395          void ZDSecMgrAuthInitiate( uint8* responder );
    396          void ZDSecMgrAuthNwkKey( void );
    397          
    398          //-----------------------------------------------------------------------------
    399          // APSME function
    400          //-----------------------------------------------------------------------------
    401          void APSME_TCLinkKeyInit( uint8 setDefault );
    402          uint8 APSME_IsDefaultTCLK( uint8 *extAddr );
    403          
    404          /******************************************************************************
    405           * @fn          ZDSecMgrMasterKeyInit                     ]
    406           *
    407           * @brief       Initialize master key data in NV
    408           *
    409           * @param       none
    410           *
    411           * @return      none
    412           */

   \                                 In  segment BANKED_CODE, align 1, keep-with-next
    413          void ZDSecMgrMasterKeyInit( void )
   \                     ZDSecMgrMasterKeyInit:
    414          {
   \   000000   74F6         MOV     A,#-0xa
   \   000002   12....       LCALL   ?BANKED_ENTER_XDATA
   \   000005                ; Saved register size: 10
   \   000005                ; Auto size: 18
   \   000005   74EE         MOV     A,#-0x12
   \   000007   12....       LCALL   ?ALLOC_XSTACK8
    415            uint16 index;
    416            ZDSecMgrMasterKeyData_t   masterKeyData;
    417          
    418            masterKeyData.ami = INVALID_NODE_ADDR;
   \   00000A   85..82       MOV     DPL,?XSP + 0
   \   00000D   85..83       MOV     DPH,?XSP + 1
   \   000010   74FE         MOV     A,#-0x2
   \   000012   F0           MOVX    @DPTR,A
   \   000013   A3           INC     DPTR
   \   000014   04           INC     A
   \   000015   F0           MOVX    @DPTR,A
    419          
    420            osal_memset( &masterKeyData.key, 0x00, SEC_KEY_LEN );
   \   000016                ; Setup parameters for call to function osal_memset
   \   000016   7C10         MOV     R4,#0x10
   \   000018   7D00         MOV     R5,#0x0
   \   00001A   7900         MOV     R1,#0x0
   \   00001C   7402         MOV     A,#0x2
   \   00001E   12....       LCALL   ?XSTACK_DISP0_8
   \   000021   12....       LCALL   ?Subroutine45 & 0xFFFF
    421          
    422            for ( index = 0; index < ZDSECMGR_MASTERKEY_MAX; index++ )
    423            {
    424              if ( osal_nv_item_init( (ZCD_NV_MASTER_KEY_DATA_START + index),
    425                                 sizeof(ZDSecMgrMasterKeyData_t), &masterKeyData) == SUCCESS)
   \                     ??CrossCallReturnLabel_180:
   \   000024                ; Setup parameters for call to function osal_nv_item_init
   \   000024   85..82       MOV     DPL,?XSP + 0
   \   000027   85..83       MOV     DPH,?XSP + 1
   \   00002A   8582..       MOV     ?V0 + 0,DPL
   \   00002D   8583..       MOV     ?V0 + 1,DPH
   \   000030   78..         MOV     R0,#?V0 + 0
   \   000032   12....       LCALL   ?PUSH_XSTACK_I_TWO
   \   000035   7C12         MOV     R4,#0x12
   \   000037   7D00         MOV     R5,#0x0
   \   000039   EE           MOV     A,R6
   \   00003A   2401         ADD     A,#0x1
   \   00003C   FA           MOV     R2,A
   \   00003D   EF           MOV     A,R7
   \   00003E   3403         ADDC    A,#0x3
   \   000040   FB           MOV     R3,A
   \   000041   12....       LCALL   ??Subroutine162_0 & 0xFFFF
   \                     ??CrossCallReturnLabel_383:
   \   000044   12....       LCALL   ?DEALLOC_XSTACK8
   \   000047   E9           MOV     A,R1
   \   000048   7021         JNZ     ??ZDSecMgrMasterKeyInit_0
    426              {
    427                // the item already exists in NV just needs to be set to default values
    428                osal_nv_write( (ZCD_NV_MASTER_KEY_DATA_START + index), 0,
    429                                sizeof(ZDSecMgrMasterKeyData_t), &masterKeyData );
   \   00004A                ; Setup parameters for call to function osal_nv_write
   \   00004A   78..         MOV     R0,#?V0 + 0
   \   00004C   12....       LCALL   ?PUSH_XSTACK_I_TWO
   \   00004F   75..12       MOV     ?V0 + 0,#0x12
   \   000052   75..00       MOV     ?V0 + 1,#0x0
   \   000055   78..         MOV     R0,#?V0 + 0
   \   000057   12....       LCALL   ?PUSH_XSTACK_I_TWO
   \   00005A   7C00         MOV     R4,#0x0
   \   00005C   7D00         MOV     R5,#0x0
   \   00005E   EE           MOV     A,R6
   \   00005F   2401         ADD     A,#0x1
   \   000061   FA           MOV     R2,A
   \   000062   EF           MOV     A,R7
   \   000063   3403         ADDC    A,#0x3
   \   000065   12....       LCALL   ??Subroutine121_0 & 0xFFFF
    430              }
    431            }
   \                     ??CrossCallReturnLabel_186:
   \   000068   12....       LCALL   ?DEALLOC_XSTACK8
   \                     ??ZDSecMgrMasterKeyInit_0:
   \   00006B   12....       LCALL   ?Subroutine39 & 0xFFFF
   \                     ??CrossCallReturnLabel_58:
   \   00006E   40B4         JC      ??CrossCallReturnLabel_180
    432          }
   \   000070   7412         MOV     A,#0x12
   \   000072   02....       LJMP    ??Subroutine134_0 & 0xFFFF

   \                                 In  segment BANKED_CODE, align 1, keep-with-next
   \                     ?Subroutine45:
   \   000000   AA82         MOV     R2,DPL
   \   000002   AB83         MOV     R3,DPH
   \   000004                REQUIRE ??Subroutine118_0
   \   000004                ; // Fall through to label ??Subroutine118_0

   \                                 In  segment BANKED_CODE, align 1, keep-with-next
   \                     ??Subroutine118_0:
   \   000000   12....       LCALL   ??osal_memset?relay
   \   000003   7E00         MOV     R6,#0x0
   \   000005   7F00         MOV     R7,#0x0
   \   000007   22           RET

   \                                 In  segment BANKED_CODE, align 1, keep-with-next
   \                     ??Subroutine121_0:
   \   000000   FB           MOV     R3,A
   \   000001                REQUIRE ??Subroutine122_0
   \   000001                ; // Fall through to label ??Subroutine122_0

   \                                 In  segment BANKED_CODE, align 1, keep-with-next
   \                     ??Subroutine122_0:
   \   000000   12....       LCALL   ??osal_nv_write?relay
   \   000003   7404         MOV     A,#0x4
   \   000005   22           RET

   \                                 In  segment BANKED_CODE, align 1, keep-with-next
   \                     ??Subroutine134_0:
   \   000000   12....       LCALL   ?DEALLOC_XSTACK8
   \   000003                REQUIRE ??Subroutine135_0
   \   000003                ; // Fall through to label ??Subroutine135_0

   \                                 In  segment BANKED_CODE, align 1, keep-with-next
   \                     ??Subroutine135_0:
   \   000000   7F02         MOV     R7,#0x2
   \   000002   02....       LJMP    ?BANKED_LEAVE_XDATA

   \                                 In  segment BANKED_CODE, align 1, keep-with-next
   \                     ?Subroutine39:
   \   000000   EE           MOV     A,R6
   \   000001   2401         ADD     A,#0x1
   \   000003   0E           INC     R6
   \   000004   EF           MOV     A,R7
   \   000005   3400         ADDC    A,#0x0
   \   000007   FF           MOV     R7,A
   \   000008   C3           CLR     C
   \   000009   EE           MOV     A,R6
   \   00000A   9403         SUBB    A,#0x3
   \   00000C   EF           MOV     A,R7
   \   00000D   9400         SUBB    A,#0x0
   \   00000F   22           RET

   \                                 In  segment BANKED_CODE, align 1, keep-with-next
   \                     ??Subroutine162_0:
   \   000000   12....       LCALL   ??osal_nv_item_init?relay
   \   000003   7402         MOV     A,#0x2
   \   000005   22           RET
    433          
    434          /******************************************************************************
    435           * @fn          ZDSecMgrAddrStore
    436           *
    437           * @brief       Store device addresses.
    438           *
    439           * @param       nwkAddr - [in] NWK address
    440           * @param       extAddr - [in] EXT address
    441           * @param       ami     - [out] Address Manager index
    442           *
    443           * @return      ZStatus_t
    444           */

   \                                 In  segment BANKED_CODE, align 1, keep-with-next
    445          ZStatus_t ZDSecMgrAddrStore( uint16 nwkAddr, uint8* extAddr, uint16* ami )
   \                     ZDSecMgrAddrStore:
    446          {
   \   000000   74F7         MOV     A,#-0x9
   \   000002   12....       LCALL   ?BANKED_ENTER_XDATA
   \   000005                ; Saved register size: 9
   \   000005                ; Auto size: 13
   \   000005   74F3         MOV     A,#-0xd
   \   000007   12....       LCALL   ?ALLOC_XSTACK8
   \   00000A   7416         MOV     A,#0x16
   \   00000C   12....       LCALL   ?XSTACK_DISP0_8
   \   00000F   12....       LCALL   ?Subroutine54 & 0xFFFF
    447            ZStatus_t      status;
    448            AddrMgrEntry_t entry;
    449          
    450          
    451            // add entry
    452            entry.user    = ADDRMGR_USER_SECURITY;
    453            entry.nwkAddr = nwkAddr;
   \                     ??CrossCallReturnLabel_81:
   \   000012   12....       LCALL   ?XSTACK_DISP0_8
   \   000015   12....       LCALL   ?Subroutine37 & 0xFFFF
    454            AddrMgrExtAddrSet( entry.extAddr, extAddr );
   \                     ??CrossCallReturnLabel_45:
   \   000018                ; Setup parameters for call to function AddrMgrExtAddrSet
   \   000018   7403         MOV     A,#0x3
   \   00001A   12....       LCALL   ?XSTACK_DISP0_8
   \   00001D   12....       LCALL   ?Subroutine81 & 0xFFFF
    455          
    456            if ( AddrMgrEntryUpdate( &entry ) == TRUE )
   \                     ??CrossCallReturnLabel_129:
   \   000020   700A         JNZ     ??ZDSecMgrAddrStore_0
    457            {
    458              // return successful results
    459              *ami   = entry.index;
   \   000022   740B         MOV     A,#0xb
   \   000024   12....       LCALL   ?XSTACK_DISP0_8
   \   000027   12....       LCALL   ?Subroutine13 & 0xFFFF
    460              status = ZSuccess;
    461            }
   \                     ??CrossCallReturnLabel_198:
   \   00002A   8008         SJMP    ??CrossCallReturnLabel_40
    462            else
    463            {
    464              // return failed results
    465              *ami   = entry.index;
   \                     ??ZDSecMgrAddrStore_0:
   \   00002C   740B         MOV     A,#0xb
   \   00002E   12....       LCALL   ?XSTACK_DISP0_8
   \   000031   12....       LCALL   ?Subroutine32 & 0xFFFF
    466              status = ZNwkUnknownDevice;
    467            }
    468          
    469            return status;
   \                     ??CrossCallReturnLabel_40:
   \   000034   02....       LJMP    ?Subroutine7 & 0xFFFF
    470          }

   \                                 In  segment BANKED_CODE, align 1, keep-with-next
   \                     ?Subroutine81:
   \   000000   12....       LCALL   ?Subroutine99 & 0xFFFF
   \                     ??CrossCallReturnLabel_152:
   \   000003   12....       LCALL   ??AddrMgrEntryUpdate?relay
   \   000006   E9           MOV     A,R1
   \   000007   6401         XRL     A,#0x1
   \   000009   22           RET

   \                                 In  segment BANKED_CODE, align 1, keep-with-next
   \                     ?Subroutine54:
   \   000000   12....       LCALL   ?Subroutine108 & 0xFFFF
   \                     ??CrossCallReturnLabel_366:
   \   000003   E8           MOV     A,R0
   \   000004   FE           MOV     R6,A
   \   000005   E9           MOV     A,R1
   \   000006   FF           MOV     R7,A
   \   000007   85..82       MOV     DPL,?XSP + 0
   \   00000A   85..83       MOV     DPH,?XSP + 1
   \   00000D   7402         MOV     A,#0x2
   \   00000F   F0           MOVX    @DPTR,A
   \   000010   14           DEC     A
   \   000011   22           RET

   \                                 In  segment BANKED_CODE, align 1, keep-with-next
   \                     ?Subroutine32:
   \   000000   12....       LCALL   ?Subroutine108 & 0xFFFF
   \                     ??CrossCallReturnLabel_365:
   \   000003   8E82         MOV     DPL,R6
   \   000005   8F83         MOV     DPH,R7
   \   000007   12....       LCALL   ?Subroutine95 & 0xFFFF
   \                     ??CrossCallReturnLabel_280:
   \   00000A   79C8         MOV     R1,#-0x38
   \   00000C   22           RET

   \                                 In  segment BANKED_CODE, align 1, keep-with-next
   \                     ?Subroutine7:
   \   000000   740D         MOV     A,#0xd
   \   000002   02....       LJMP    ??Subroutine146_0 & 0xFFFF

   \                                 In  segment BANKED_CODE, align 1, keep-with-next
   \                     ?Subroutine99:
   \   000000   AA82         MOV     R2,DPL
   \   000002   AB83         MOV     R3,DPH
   \   000004   12....       LCALL   ??AddrMgrExtAddrSet?relay
   \   000007                ; Setup parameters for call to function AddrMgrEntryUpdate
   \   000007                ; Setup parameters for call to function AddrMgrEntryUpdate
   \   000007                ; Setup parameters for call to function AddrMgrEntryLookupExt
   \   000007   85..82       MOV     DPL,?XSP + 0
   \   00000A   85..83       MOV     DPH,?XSP + 1
   \   00000D   AA82         MOV     R2,DPL
   \   00000F   AB83         MOV     R3,DPH
   \   000011   22           RET

   \                                 In  segment BANKED_CODE, align 1, keep-with-next
   \                     ?Subroutine13:
   \   000000   E0           MOVX    A,@DPTR
   \   000001   F8           MOV     R0,A
   \   000002   A3           INC     DPTR
   \   000003   E0           MOVX    A,@DPTR
   \   000004                REQUIRE ??Subroutine123_0
   \   000004                ; // Fall through to label ??Subroutine123_0

   \                                 In  segment BANKED_CODE, align 1, keep-with-next
   \                     ??Subroutine123_0:
   \   000000   F9           MOV     R1,A
   \   000001   8E82         MOV     DPL,R6
   \   000003   8F83         MOV     DPH,R7
   \   000005                REQUIRE ??Subroutine124_0
   \   000005                ; // Fall through to label ??Subroutine124_0

   \                                 In  segment BANKED_CODE, align 1, keep-with-next
   \                     ??Subroutine124_0:
   \   000000   12....       LCALL   ?Subroutine95 & 0xFFFF
   \                     ??CrossCallReturnLabel_281:
   \   000003   7900         MOV     R1,#0x0
   \   000005   22           RET

   \                                 In  segment BANKED_CODE, align 1, keep-with-next
   \                     ?Subroutine95:
   \   000000   E8           MOV     A,R0
   \   000001   F0           MOVX    @DPTR,A
   \   000002   A3           INC     DPTR
   \   000003   E9           MOV     A,R1
   \   000004   F0           MOVX    @DPTR,A
   \   000005   22           RET

   \                                 In  segment BANKED_CODE, align 1, keep-with-next
   \                     ?Subroutine37:
   \   000000   EA           MOV     A,R2
   \   000001   F0           MOVX    @DPTR,A
   \   000002   A3           INC     DPTR
   \   000003   EB           MOV     A,R3
   \   000004   F0           MOVX    @DPTR,A
   \   000005   22           RET

   \                                 In  segment BANKED_CODE, align 1, keep-with-next
   \                     ??Subroutine146_0:
   \   000000   12....       LCALL   ?DEALLOC_XSTACK8
   \   000003                REQUIRE ??Subroutine147_0
   \   000003                ; // Fall through to label ??Subroutine147_0

   \                                 In  segment BANKED_CODE, align 1, keep-with-next
   \                     ??Subroutine147_0:
   \   000000   7F01         MOV     R7,#0x1
   \   000002   02....       LJMP    ?BANKED_LEAVE_XDATA

   \                                 In  segment BANKED_CODE, align 1, keep-with-next
   \                     ?Subroutine108:
   \   000000   12....       LCALL   ?Subroutine116 & 0xFFFF
   \                     ??CrossCallReturnLabel_373:
   \   000003   22           RET

   \                                 In  segment BANKED_CODE, align 1, keep-with-next
   \                     ?Subroutine116:
   \   000000   E0           MOVX    A,@DPTR
   \   000001   F8           MOV     R0,A
   \   000002   A3           INC     DPTR
   \   000003   E0           MOVX    A,@DPTR
   \   000004   F9           MOV     R1,A
   \   000005   22           RET
    471          
    472          /******************************************************************************
    473           * @fn          ZDSecMgrExtAddrStore
    474           *
    475           * @brief       Store EXT address.
    476           *
    477           * @param       extAddr - [in] EXT address
    478           * @param       ami     - [out] Address Manager index
    479           *
    480           * @return      ZStatus_t
    481           */

   \                                 In  segment BANKED_CODE, align 1, keep-with-next
    482          ZStatus_t ZDSecMgrExtAddrStore( uint16 nwkAddr, uint8* extAddr, uint16* ami )
   \                     ZDSecMgrExtAddrStore:
    483          {
   \   000000   74F7         MOV     A,#-0x9
   \   000002   12....       LCALL   ?BANKED_ENTER_XDATA
   \   000005                ; Saved register size: 9
   \   000005                ; Auto size: 13
   \   000005   74F3         MOV     A,#-0xd
   \   000007   12....       LCALL   ?ALLOC_XSTACK8
   \   00000A   7416         MOV     A,#0x16
   \   00000C   12....       LCALL   ?XSTACK_DISP0_8
   \   00000F   12....       LCALL   ?Subroutine54 & 0xFFFF
    484            ZStatus_t      status;
    485            AddrMgrEntry_t entry;
    486          
    487          
    488            // add entry
    489            entry.user    = ADDRMGR_USER_SECURITY;
    490            entry.nwkAddr = nwkAddr;
   \                     ??CrossCallReturnLabel_82:
   \   000012   12....       LCALL   ?XSTACK_DISP0_8
   \   000015   12....       LCALL   ?Subroutine37 & 0xFFFF
    491            AddrMgrExtAddrSet( entry.extAddr, extAddr );
   \                     ??CrossCallReturnLabel_46:
   \   000018                ; Setup parameters for call to function AddrMgrExtAddrSet
   \   000018   7403         MOV     A,#0x3
   \   00001A   12....       LCALL   ?XSTACK_DISP0_8
   \   00001D   12....       LCALL   ?Subroutine81 & 0xFFFF
    492          
    493            if ( AddrMgrEntryUpdate( &entry ) == TRUE )
   \                     ??CrossCallReturnLabel_130:
   \   000020   700A         JNZ     ??ZDSecMgrExtAddrStore_0
    494            {
    495              // return successful results
    496              *ami   = entry.index;
   \   000022   740B         MOV     A,#0xb
   \   000024   12....       LCALL   ?XSTACK_DISP0_8
   \   000027   12....       LCALL   ?Subroutine13 & 0xFFFF
    497              status = ZSuccess;
    498            }
   \                     ??CrossCallReturnLabel_199:
   \   00002A   8008         SJMP    ??CrossCallReturnLabel_41
    499            else
    500            {
    501              // return failed results
    502              *ami   = entry.index;
   \                     ??ZDSecMgrExtAddrStore_0:
   \   00002C   740B         MOV     A,#0xb
   \   00002E   12....       LCALL   ?XSTACK_DISP0_8
   \   000031   12....       LCALL   ?Subroutine32 & 0xFFFF
    503              status = ZNwkUnknownDevice;
    504            }
    505          
    506            return status;
   \                     ??CrossCallReturnLabel_41:
   \   000034   80..         SJMP    ?Subroutine7
    507          }
    508          
    509          /******************************************************************************
    510           * @fn          ZDSecMgrExtAddrLookup
    511           *
    512           * @brief       Lookup index for specified EXT address.
    513           *
    514           * @param       extAddr - [in] EXT address
    515           * @param       ami     - [out] Address Manager index
    516           *
    517           * @return      ZStatus_t
    518           */

   \                                 In  segment BANKED_CODE, align 1, keep-with-next
    519          ZStatus_t ZDSecMgrExtAddrLookup( uint8* extAddr, uint16* ami )
   \                     ZDSecMgrExtAddrLookup:
    520          {
   \   000000   74F7         MOV     A,#-0x9
   \   000002   12....       LCALL   ?BANKED_ENTER_XDATA
   \   000005                ; Saved register size: 9
   \   000005                ; Auto size: 13
   \   000005   74F3         MOV     A,#-0xd
   \   000007   12....       LCALL   ?ALLOC_XSTACK8
   \   00000A   EC           MOV     A,R4
   \   00000B   FE           MOV     R6,A
   \   00000C   ED           MOV     A,R5
   \   00000D   FF           MOV     R7,A
    521            ZStatus_t      status;
    522            AddrMgrEntry_t entry;
    523          
    524          
    525            // lookup entry
    526            entry.user = ADDRMGR_USER_SECURITY;
   \   00000E   85..82       MOV     DPL,?XSP + 0
   \   000011   85..83       MOV     DPH,?XSP + 1
   \   000014   7402         MOV     A,#0x2
   \   000016   F0           MOVX    @DPTR,A
    527            AddrMgrExtAddrSet( entry.extAddr, extAddr );
   \   000017                ; Setup parameters for call to function AddrMgrExtAddrSet
   \   000017   EA           MOV     A,R2
   \   000018   FC           MOV     R4,A
   \   000019   EB           MOV     A,R3
   \   00001A   FD           MOV     R5,A
   \   00001B   7403         MOV     A,#0x3
   \   00001D   12....       LCALL   ?XSTACK_DISP0_8
   \   000020   12....       LCALL   ?Subroutine99 & 0xFFFF
    528          
    529            if ( AddrMgrEntryLookupExt( &entry ) == TRUE )
   \                     ??CrossCallReturnLabel_153:
   \   000023   12....       LCALL   ??AddrMgrEntryLookupExt?relay
   \   000026   E9           MOV     A,R1
   \   000027   6401         XRL     A,#0x1
   \   000029   700A         JNZ     ??ZDSecMgrExtAddrLookup_0
    530            {
    531              // return successful results
    532              *ami   = entry.index;
   \   00002B   740B         MOV     A,#0xb
   \   00002D   12....       LCALL   ?XSTACK_DISP0_8
   \   000030   12....       LCALL   ?Subroutine13 & 0xFFFF
    533              status = ZSuccess;
    534            }
   \                     ??CrossCallReturnLabel_200:
   \   000033   8008         SJMP    ??CrossCallReturnLabel_42
    535            else
    536            {
    537              // return failed results
    538              *ami   = entry.index;
   \                     ??ZDSecMgrExtAddrLookup_0:
   \   000035   740B         MOV     A,#0xb
   \   000037   12....       LCALL   ?XSTACK_DISP0_8
   \   00003A   12....       LCALL   ?Subroutine32 & 0xFFFF
    539              status = ZNwkUnknownDevice;
    540            }
    541          
    542            return status;
   \                     ??CrossCallReturnLabel_42:
   \   00003D                REQUIRE ?Subroutine7
   \   00003D                ; // Fall through to label ?Subroutine7
    543          }
    544          
    545          /******************************************************************************
    546           * @fn          ZDSecMgrAddrClear
    547           *
    548           * @brief       Clear security bit from Address Manager for specific device.
    549           *
    550           * @param       extAddr - [in] EXT address
    551           *
    552           * @return      ZStatus_t
    553           */

   \                                 In  segment BANKED_CODE, align 1, keep-with-next
    554          ZStatus_t ZDSecMgrAddrClear( uint8* extAddr )
   \                     ZDSecMgrAddrClear:
    555          {
   \   000000   74F7         MOV     A,#-0x9
   \   000002   12....       LCALL   ?BANKED_ENTER_XDATA
   \   000005                ; Saved register size: 9
   \   000005                ; Auto size: 15
   \   000005   74F1         MOV     A,#-0xf
   \   000007   12....       LCALL   ?ALLOC_XSTACK8
    556            ZStatus_t status;
    557            uint16 entryAmi;
    558          
    559            // get Address Manager Index
    560            status = ZDSecMgrExtAddrLookup( extAddr, &entryAmi );
   \   00000A                ; Setup parameters for call to function ZDSecMgrExtAddrLookup
   \   00000A   12....       LCALL   ?Subroutine86 & 0xFFFF
   \                     ??CrossCallReturnLabel_209:
   \   00000D   FE           MOV     R6,A
    561          
    562            if ( status == ZSuccess )
   \   00000E   7026         JNZ     ??ZDSecMgrAddrClear_0
    563            {
    564              AddrMgrEntry_t addrEntry;
    565          
    566              // Clear SECURITY User bit from the address manager
    567              addrEntry.user = ADDRMGR_USER_SECURITY;
   \   000010   7402         MOV     A,#0x2
   \   000012   12....       LCALL   ?XSTACK_DISP0_8
   \   000015   7402         MOV     A,#0x2
   \   000017   12....       LCALL   ?Subroutine28 & 0xFFFF
    568              addrEntry.index = entryAmi;
   \                     ??CrossCallReturnLabel_31:
   \   00001A   F9           MOV     R1,A
   \   00001B   740D         MOV     A,#0xd
   \   00001D   12....       LCALL   ?XSTACK_DISP0_8
   \   000020   12....       LCALL   ??Subroutine130_0 & 0xFFFF
    569          
    570              if ( AddrMgrEntryRelease( &addrEntry ) != TRUE )
   \                     ??CrossCallReturnLabel_224:
   \   000023                ; Setup parameters for call to function AddrMgrEntryRelease
   \   000023   7402         MOV     A,#0x2
   \   000025   12....       LCALL   ?XSTACK_DISP0_8
   \   000028   AA82         MOV     R2,DPL
   \   00002A   AB83         MOV     R3,DPH
   \   00002C   12....       LCALL   ??AddrMgrEntryRelease?relay
   \   00002F   E9           MOV     A,R1
   \   000030   6401         XRL     A,#0x1
   \   000032   6002         JZ      ??ZDSecMgrAddrClear_0
    571              {
    572                // return failure results
    573                status = ZFailure;
   \   000034   7E01         MOV     R6,#0x1
    574              }
    575            }
    576          
    577            return status;
   \                     ??ZDSecMgrAddrClear_0:
   \   000036   EE           MOV     A,R6
   \   000037   F9           MOV     R1,A
   \   000038   740F         MOV     A,#0xf
   \   00003A   02....       LJMP    ??Subroutine146_0 & 0xFFFF
    578          }

   \                                 In  segment BANKED_CODE, align 1, keep-with-next
   \                     ?Subroutine86:
   \   000000   85..82       MOV     DPL,?XSP + 0
   \   000003   85..83       MOV     DPH,?XSP + 1
   \   000006   AC82         MOV     R4,DPL
   \   000008   AD83         MOV     R5,DPH
   \   00000A                REQUIRE ??Subroutine126_0
   \   00000A                ; // Fall through to label ??Subroutine126_0

   \                                 In  segment BANKED_CODE, align 1, keep-with-next
   \                     ??Subroutine126_0:
   \   000000   12....       LCALL   ??ZDSecMgrExtAddrLookup?relay
   \   000003   E9           MOV     A,R1
   \   000004   22           RET

   \                                 In  segment BANKED_CODE, align 1, keep-with-next
   \                     ??Subroutine130_0:
   \   000000   12....       LCALL   ?Subroutine95 & 0xFFFF
   \                     ??CrossCallReturnLabel_283:
   \   000003   22           RET

   \                                 In  segment BANKED_CODE, align 1, keep-with-next
   \                     ??Subroutine132_0:
   \   000000   F0           MOVX    @DPTR,A
   \   000001                ; Setup parameters for call to function ZDSecMgrMasterKeyLookup
   \   000001                ; Setup parameters for call to function ZDSecMgrEntryLookup
   \   000001                ; Setup parameters for call to function osal_nv_write
   \   000001   85..82       MOV     DPL,?XSP + 0
   \   000004   85..83       MOV     DPH,?XSP + 1
   \   000007   22           RET

   \                                 In  segment BANKED_CODE, align 1, keep-with-next
   \                     ?Subroutine28:
   \   000000   12....       LCALL   ??Subroutine132_0 & 0xFFFF
   \                     ??CrossCallReturnLabel_253:
   \   000003   E0           MOVX    A,@DPTR
   \   000004   F8           MOV     R0,A
   \   000005   A3           INC     DPTR
   \   000006   E0           MOVX    A,@DPTR
   \   000007   22           RET
    579          
    580          /******************************************************************************
    581           * @fn          ZDSecMgrMasterKeyLookup
    582           *
    583           * @brief       Lookup MASTER key for specified address index.
    584           *
    585           * @param       ami - [in] Address Manager index
    586           * @param       pKeyNvId - [out] MASTER key NV ID
    587           *
    588           * @return      ZStatus_t
    589           */

   \                                 In  segment BANKED_CODE, align 1, keep-with-next
    590          ZStatus_t ZDSecMgrMasterKeyLookup( uint16 ami, uint16* pKeyNvId )
   \                     ZDSecMgrMasterKeyLookup:
    591          {
   \   000000   74F2         MOV     A,#-0xe
   \   000002   12....       LCALL   ?BANKED_ENTER_XDATA
   \   000005                ; Saved register size: 14
   \   000005                ; Auto size: 18
   \   000005   74EE         MOV     A,#-0x12
   \   000007   12....       LCALL   ?ALLOC_XSTACK8
   \   00000A   8A..         MOV     ?V0 + 2,R2
   \   00000C   8B..         MOV     ?V0 + 3,R3
   \   00000E   EC           MOV     A,R4
   \   00000F   FE           MOV     R6,A
   \   000010   ED           MOV     A,R5
   \   000011   FF           MOV     R7,A
    592            uint16 index;
    593            ZDSecMgrMasterKeyData_t masterKeyData;
    594          
    595          
    596            for ( index = 0; index < ZDSECMGR_MASTERKEY_MAX ; index++ )
   \   000012   75..00       MOV     ?V0 + 0,#0x0
   \   000015   75..00       MOV     ?V0 + 1,#0x0
    597            {
    598              // Read entry index of the Master key table from NV
    599              osal_nv_read( (ZCD_NV_MASTER_KEY_DATA_START + index), 0,
    600                            sizeof(ZDSecMgrMasterKeyData_t), &masterKeyData );
   \                     ??ZDSecMgrMasterKeyLookup_0:
   \   000018                ; Setup parameters for call to function osal_nv_read
   \   000018   85..82       MOV     DPL,?XSP + 0
   \   00001B   85..83       MOV     DPH,?XSP + 1
   \   00001E   8582..       MOV     ?V0 + 4,DPL
   \   000021   8583..       MOV     ?V0 + 5,DPH
   \   000024   78..         MOV     R0,#?V0 + 4
   \   000026   12....       LCALL   ?PUSH_XSTACK_I_TWO
   \   000029   75..12       MOV     ?V0 + 4,#0x12
   \   00002C   75..00       MOV     ?V0 + 5,#0x0
   \   00002F   78..         MOV     R0,#?V0 + 4
   \   000031   12....       LCALL   ?PUSH_XSTACK_I_TWO
   \   000034   12....       LCALL   ?Subroutine43 & 0xFFFF
   \                     ??CrossCallReturnLabel_68:
   \   000037   12....       LCALL   ?DEALLOC_XSTACK8
    601          
    602              if ( masterKeyData.ami == ami )
   \   00003A   85..82       MOV     DPL,?XSP + 0
   \   00003D   85..83       MOV     DPH,?XSP + 1
   \   000040   E0           MOVX    A,@DPTR
   \   000041   65..         XRL     A,?V0 + 2
   \   000043   7004         JNZ     ??ZDSecMgrMasterKeyLookup_1
   \   000045   A3           INC     DPTR
   \   000046   E0           MOVX    A,@DPTR
   \   000047   65..         XRL     A,?V0 + 3
   \                     ??ZDSecMgrMasterKeyLookup_1:
   \   000049   7028         JNZ     ??ZDSecMgrMasterKeyLookup_2
    603              {
    604                // return successful results
    605                *pKeyNvId   = ZCD_NV_MASTER_KEY_DATA_START + index;
   \   00004B   E5..         MOV     A,?V0 + 0
   \   00004D   2401         ADD     A,#0x1
   \   00004F   F8           MOV     R0,A
   \   000050   E5..         MOV     A,?V0 + 1
   \   000052   3403         ADDC    A,#0x3
   \   000054   F9           MOV     R1,A
   \   000055   8E82         MOV     DPL,R6
   \   000057   8F83         MOV     DPH,R7
   \   000059   12....       LCALL   ??Subroutine130_0 & 0xFFFF
    606          
    607                // clear copy of key in RAM
    608                osal_memset(&masterKeyData, 0x00, sizeof(ZDSecMgrMasterKeyData_t));
   \                     ??CrossCallReturnLabel_225:
   \   00005C                ; Setup parameters for call to function osal_memset
   \   00005C   7C12         MOV     R4,#0x12
   \   00005E   7D00         MOV     R5,#0x0
   \   000060   7900         MOV     R1,#0x0
   \   000062   85..82       MOV     DPL,?XSP + 0
   \   000065   85..83       MOV     DPH,?XSP + 1
   \   000068   AA82         MOV     R2,DPL
   \   00006A   AB83         MOV     R3,DPH
   \   00006C   12....       LCALL   ??osal_memset?relay
    609          
    610                return ZSuccess;
   \   00006F   7900         MOV     R1,#0x0
   \   000071   8020         SJMP    ??ZDSecMgrMasterKeyLookup_3
    611              }
    612            }
   \                     ??ZDSecMgrMasterKeyLookup_2:
   \   000073   12....       LCALL   ?Subroutine41 & 0xFFFF
   \                     ??CrossCallReturnLabel_63:
   \   000076   40A0         JC      ??ZDSecMgrMasterKeyLookup_0
    613          
    614            *pKeyNvId = SEC_NO_KEY_NV_ID;
   \   000078   8E82         MOV     DPL,R6
   \   00007A   8F83         MOV     DPH,R7
   \   00007C   E4           CLR     A
   \   00007D   F0           MOVX    @DPTR,A
   \   00007E   A3           INC     DPTR
   \   00007F   F0           MOVX    @DPTR,A
    615          
    616            // clear copy of key in RAM
    617            osal_memset(&masterKeyData, 0x00, sizeof(ZDSecMgrMasterKeyData_t));
   \   000080                ; Setup parameters for call to function osal_memset
   \   000080   7C12         MOV     R4,#0x12
   \   000082   FD           MOV     R5,A
   \   000083   F9           MOV     R1,A
   \   000084   85..82       MOV     DPL,?XSP + 0
   \   000087   85..83       MOV     DPH,?XSP + 1
   \   00008A   AA82         MOV     R2,DPL
   \   00008C   AB83         MOV     R3,DPH
   \   00008E   12....       LCALL   ??osal_memset?relay
    618          
    619            return ZNwkUnknownDevice;
   \   000091   79C8         MOV     R1,#-0x38
   \                     ??ZDSecMgrMasterKeyLookup_3:
   \   000093   7412         MOV     A,#0x12
   \   000095   12....       LCALL   ?DEALLOC_XSTACK8
   \   000098                REQUIRE ?Subroutine2
   \   000098                ; // Fall through to label ?Subroutine2
    620          }

   \                                 In  segment BANKED_CODE, align 1, keep-with-next
   \                     ?Subroutine2:
   \   000000   7F06         MOV     R7,#0x6
   \   000002   02....       LJMP    ?BANKED_LEAVE_XDATA

   \                                 In  segment BANKED_CODE, align 1, keep-with-next
   \                     ?Subroutine43:
   \   000000   7C00         MOV     R4,#0x0
   \   000002   7D00         MOV     R5,#0x0
   \   000004   E5..         MOV     A,?V0 + 0
   \   000006   2401         ADD     A,#0x1
   \   000008   FA           MOV     R2,A
   \   000009   E5..         MOV     A,?V0 + 1
   \   00000B   3403         ADDC    A,#0x3
   \   00000D   FB           MOV     R3,A
   \   00000E   12....       LCALL   ??osal_nv_read?relay
   \   000011   7404         MOV     A,#0x4
   \   000013   22           RET

   \                                 In  segment BANKED_CODE, align 1, keep-with-next
   \                     ?Subroutine41:
   \   000000   E5..         MOV     A,?V0 + 0
   \   000002   2401         ADD     A,#0x1
   \   000004   F5..         MOV     ?V0 + 0,A
   \   000006   E5..         MOV     A,?V0 + 1
   \   000008   3400         ADDC    A,#0x0
   \   00000A   F5..         MOV     ?V0 + 1,A
   \   00000C   C3           CLR     C
   \   00000D   E5..         MOV     A,?V0 + 0
   \   00000F   9403         SUBB    A,#0x3
   \   000011   E5..         MOV     A,?V0 + 1
   \   000013   9400         SUBB    A,#0x0
   \   000015   22           RET
    621          
    622          /******************************************************************************
    623           * @fn          ZDSecMgrMasterKeyStore
    624           *
    625           * @brief       Store MASTER key for specified address index.
    626           *
    627           * @param       ami - [in] Address Manager index
    628           * @param       key - [in] valid key to store
    629           *
    630           * @return      ZStatus_t
    631           */

   \                                 In  segment BANKED_CODE, align 1, keep-with-next
    632          ZStatus_t ZDSecMgrMasterKeyStore( uint16 ami, uint8* key )
   \                     ZDSecMgrMasterKeyStore:
    633          {
   \   000000   74F1         MOV     A,#-0xf
   \   000002   12....       LCALL   ?BANKED_ENTER_XDATA
   \   000005                ; Saved register size: 15
   \   000005                ; Auto size: 18
   \   000005   74EE         MOV     A,#-0x12
   \   000007   12....       LCALL   ?ALLOC_XSTACK8
   \   00000A   8A..         MOV     ?V0 + 2,R2
   \   00000C   8B..         MOV     ?V0 + 3,R3
   \   00000E   EC           MOV     A,R4
   \   00000F   FE           MOV     R6,A
   \   000010   ED           MOV     A,R5
   \   000011   FF           MOV     R7,A
    634            uint16    index;
    635            ZDSecMgrMasterKeyData_t   masterKeyData;
    636          
    637          
    638            for ( index = 0; index < ZDSECMGR_MASTERKEY_MAX ; index++ )
   \   000012   75..00       MOV     ?V0 + 0,#0x0
   \   000015   75..00       MOV     ?V0 + 1,#0x0
    639            {
    640              // Read entry index of the Master key table from NV
    641              osal_nv_read( (ZCD_NV_MASTER_KEY_DATA_START + index), 0,
    642                             sizeof(ZDSecMgrMasterKeyData_t), &masterKeyData );
   \                     ??ZDSecMgrMasterKeyStore_0:
   \   000018                ; Setup parameters for call to function osal_nv_read
   \   000018   85..82       MOV     DPL,?XSP + 0
   \   00001B   85..83       MOV     DPH,?XSP + 1
   \   00001E   8582..       MOV     ?V0 + 4,DPL
   \   000021   8583..       MOV     ?V0 + 5,DPH
   \   000024   78..         MOV     R0,#?V0 + 4
   \   000026   12....       LCALL   ?PUSH_XSTACK_I_TWO
   \   000029   75..12       MOV     ?V0 + 4,#0x12
   \   00002C   75..00       MOV     ?V0 + 5,#0x0
   \   00002F   78..         MOV     R0,#?V0 + 4
   \   000031   12....       LCALL   ?PUSH_XSTACK_I_TWO
   \   000034   12....       LCALL   ?Subroutine43 & 0xFFFF
   \                     ??CrossCallReturnLabel_69:
   \   000037   12....       LCALL   ?DEALLOC_XSTACK8
    643          
    644              if ( masterKeyData.ami == INVALID_NODE_ADDR )
   \   00003A   85..82       MOV     DPL,?XSP + 0
   \   00003D   85..83       MOV     DPH,?XSP + 1
   \   000040   E0           MOVX    A,@DPTR
   \   000041   64FE         XRL     A,#0xfe
   \   000043   7003         JNZ     ??ZDSecMgrMasterKeyStore_1
   \   000045   A3           INC     DPTR
   \   000046   E0           MOVX    A,@DPTR
   \   000047   F4           CPL     A
   \                     ??ZDSecMgrMasterKeyStore_1:
   \   000048   6003         JZ      $+5
   \   00004A   02....       LJMP    ??ZDSecMgrMasterKeyStore_2 & 0xFFFF
    645              {
    646                // store EXT address index
    647                masterKeyData.ami = ami;
   \   00004D   85..82       MOV     DPL,?XSP + 0
   \   000050   85..83       MOV     DPH,?XSP + 1
   \   000053   E5..         MOV     A,?V0 + 2
   \   000055   F0           MOVX    @DPTR,A
   \   000056   A3           INC     DPTR
   \   000057   E5..         MOV     A,?V0 + 3
   \   000059   F0           MOVX    @DPTR,A
    648          
    649                if ( key != NULL )
   \   00005A   EE           MOV     A,R6
   \   00005B   4F           ORL     A,R7
   \   00005C   601D         JZ      ??ZDSecMgrMasterKeyStore_3
    650                {
    651                  osal_memcpy( masterKeyData.key, key,  SEC_KEY_LEN );
   \   00005E                ; Setup parameters for call to function osal_memcpy
   \   00005E   8E..         MOV     ?V0 + 4,R6
   \   000060   8F..         MOV     ?V0 + 5,R7
   \   000062   75..00       MOV     ?V0 + 6,#0x0
   \   000065   78..         MOV     R0,#?V0 + 4
   \   000067   12....       LCALL   ?PUSH_XSTACK_I_THREE
   \   00006A   7C10         MOV     R4,#0x10
   \   00006C   7D00         MOV     R5,#0x0
   \   00006E   7405         MOV     A,#0x5
   \   000070   12....       LCALL   ?XSTACK_DISP0_8
   \   000073   12....       LCALL   ?Subroutine84 & 0xFFFF
    652                }
   \                     ??CrossCallReturnLabel_265:
   \   000076   12....       LCALL   ?DEALLOC_XSTACK8
   \   000079   8012         SJMP    ??ZDSecMgrMasterKeyStore_4
    653                else
    654                {
    655                  osal_memset( masterKeyData.key, 0, SEC_KEY_LEN );
   \                     ??ZDSecMgrMasterKeyStore_3:
   \   00007B                ; Setup parameters for call to function osal_memset
   \   00007B   7C10         MOV     R4,#0x10
   \   00007D   7D00         MOV     R5,#0x0
   \   00007F   7900         MOV     R1,#0x0
   \   000081   7402         MOV     A,#0x2
   \   000083   12....       LCALL   ?XSTACK_DISP0_8
   \   000086   AA82         MOV     R2,DPL
   \   000088   AB83         MOV     R3,DPH
   \   00008A   12....       LCALL   ??osal_memset?relay
    656                }
    657          
    658                // set new values in NV
    659                osal_nv_write( (ZCD_NV_MASTER_KEY_DATA_START + index), 0,
    660                                sizeof(ZDSecMgrMasterKeyData_t), &masterKeyData );
   \                     ??ZDSecMgrMasterKeyStore_4:
   \   00008D                ; Setup parameters for call to function osal_nv_write
   \   00008D   85..82       MOV     DPL,?XSP + 0
   \   000090   85..83       MOV     DPH,?XSP + 1
   \   000093   8582..       MOV     ?V0 + 2,DPL
   \   000096   8583..       MOV     ?V0 + 3,DPH
   \   000099   78..         MOV     R0,#?V0 + 2
   \   00009B   12....       LCALL   ?PUSH_XSTACK_I_TWO
   \   00009E   75..12       MOV     ?V0 + 2,#0x12
   \   0000A1   75..00       MOV     ?V0 + 3,#0x0
   \   0000A4   78..         MOV     R0,#?V0 + 2
   \   0000A6   12....       LCALL   ?PUSH_XSTACK_I_TWO
   \   0000A9   7C00         MOV     R4,#0x0
   \   0000AB   7D00         MOV     R5,#0x0
   \   0000AD   E5..         MOV     A,?V0 + 0
   \   0000AF   2401         ADD     A,#0x1
   \   0000B1   FA           MOV     R2,A
   \   0000B2   E5..         MOV     A,?V0 + 1
   \   0000B4   3403         ADDC    A,#0x3
   \   0000B6   12....       LCALL   ??Subroutine121_0 & 0xFFFF
   \                     ??CrossCallReturnLabel_187:
   \   0000B9   12....       LCALL   ?DEALLOC_XSTACK8
    661          
    662                // clear copy of key in RAM
    663                osal_memset( &masterKeyData, 0x00, sizeof(ZDSecMgrMasterKeyData_t) );
   \   0000BC                ; Setup parameters for call to function osal_memset
   \   0000BC   7C12         MOV     R4,#0x12
   \   0000BE   7D00         MOV     R5,#0x0
   \   0000C0   7900         MOV     R1,#0x0
   \   0000C2   85..82       MOV     DPL,?XSP + 0
   \   0000C5   85..83       MOV     DPH,?XSP + 1
   \   0000C8   AA82         MOV     R2,DPL
   \   0000CA   AB83         MOV     R3,DPH
   \   0000CC   12....       LCALL   ??osal_memset?relay
    664          
    665                // return successful results
    666                return ZSuccess;
   \   0000CF   7900         MOV     R1,#0x0
   \   0000D1   801D         SJMP    ??ZDSecMgrMasterKeyStore_5
    667              }
    668            }
   \                     ??ZDSecMgrMasterKeyStore_2:
   \   0000D3   12....       LCALL   ?Subroutine41 & 0xFFFF
   \                     ??CrossCallReturnLabel_64:
   \   0000D6   5003         JNC     $+5
   \   0000D8   02....       LJMP    ??ZDSecMgrMasterKeyStore_0 & 0xFFFF
    669          
    670            // clear copy of key in RAM
    671            osal_memset( &masterKeyData, 0x00, sizeof(ZDSecMgrMasterKeyData_t) );
   \   0000DB                ; Setup parameters for call to function osal_memset
   \   0000DB   7C12         MOV     R4,#0x12
   \   0000DD   7D00         MOV     R5,#0x0
   \   0000DF   7900         MOV     R1,#0x0
   \   0000E1   85..82       MOV     DPL,?XSP + 0
   \   0000E4   85..83       MOV     DPH,?XSP + 1
   \   0000E7   AA82         MOV     R2,DPL
   \   0000E9   AB83         MOV     R3,DPH
   \   0000EB   12....       LCALL   ??osal_memset?relay
    672          
    673            return ZNwkUnknownDevice;
   \   0000EE   79C8         MOV     R1,#-0x38
   \                     ??ZDSecMgrMasterKeyStore_5:
   \   0000F0                REQUIRE ?Subroutine3
   \   0000F0                ; // Fall through to label ?Subroutine3
    674          }

   \                                 In  segment BANKED_CODE, align 1, keep-with-next
   \                     ?Subroutine3:
   \   000000   7412         MOV     A,#0x12
   \   000002                REQUIRE ??Subroutine119_0
   \   000002                ; // Fall through to label ??Subroutine119_0

   \                                 In  segment BANKED_CODE, align 1, keep-with-next
   \                     ??Subroutine119_0:
   \   000000   12....       LCALL   ?DEALLOC_XSTACK8
   \   000003   7F07         MOV     R7,#0x7
   \   000005   02....       LJMP    ?BANKED_LEAVE_XDATA

   \                                 In  segment BANKED_CODE, align 1, keep-with-next
   \                     ?Subroutine84:
   \   000000   AA82         MOV     R2,DPL
   \   000002   AB83         MOV     R3,DPH
   \   000004                REQUIRE ??Subroutine137_0
   \   000004                ; // Fall through to label ??Subroutine137_0

   \                                 In  segment BANKED_CODE, align 1, keep-with-next
   \                     ??Subroutine137_0:
   \   000000   12....       LCALL   ??osal_memcpy?relay
   \   000003   7403         MOV     A,#0x3
   \   000005   22           RET
    675          
    676          /******************************************************************************
    677           * @fn          ZDSecMgrEntryInit
    678           *
    679           * @brief       Initialize entry sub module
    680           *
    681           * @param       state - device initialization state
    682           *
    683           * @return      none
    684           */

   \                                 In  segment BANKED_CODE, align 1, keep-with-next
    685          void ZDSecMgrEntryInit(uint8 state)
   \                     ZDSecMgrEntryInit:
    686          {
   \   000000   C082         PUSH    DPL
   \   000002   C083         PUSH    DPH
   \   000004                ; Saved register size: 2
   \   000004                ; Auto size: 0
    687            if (ZDSecMgrEntries == NULL)
   \   000004   90....       MOV     DPTR,#ZDSecMgrEntries
   \   000007   12....       LCALL   ??Subroutine155_0 & 0xFFFF
   \                     ??CrossCallReturnLabel_323:
   \   00000A   7032         JNZ     ??ZDSecMgrEntryInit_0
    688            {
    689              uint16 index;
    690          
    691              if ((ZDSecMgrEntries = osal_mem_alloc(sizeof(ZDSecMgrEntry_t) * ZDSECMGR_ENTRY_MAX)) == NULL)
   \   00000C                ; Setup parameters for call to function osal_mem_alloc
   \   00000C   7A0F         MOV     R2,#0xf
   \   00000E   7B00         MOV     R3,#0x0
   \   000010   12....       LCALL   ??osal_mem_alloc?relay
   \   000013   90....       MOV     DPTR,#ZDSecMgrEntries
   \   000016   EA           MOV     A,R2
   \   000017   F0           MOVX    @DPTR,A
   \   000018   A3           INC     DPTR
   \   000019   EB           MOV     A,R3
   \   00001A   12....       LCALL   ??Subroutine125_0 & 0xFFFF
   \                     ??CrossCallReturnLabel_208:
   \   00001D   601F         JZ      ??ZDSecMgrEntryInit_0
    692              {
    693                return;
    694              }
    695          
    696              for (index = 0; index < ZDSECMGR_ENTRY_MAX; index++)
   \   00001F   7800         MOV     R0,#0x0
   \   000021   7900         MOV     R1,#0x0
    697              {
    698                ZDSecMgrEntries[index].ami = INVALID_NODE_ADDR;
   \                     ??ZDSecMgrEntryInit_1:
   \   000023   12....       LCALL   ?Subroutine83 & 0xFFFF
   \                     ??CrossCallReturnLabel_131:
   \   000026   8A82         MOV     DPL,R2
   \   000028   8B83         MOV     DPH,R3
   \   00002A   74FE         MOV     A,#-0x2
   \   00002C   F0           MOVX    @DPTR,A
   \   00002D   A3           INC     DPTR
   \   00002E   04           INC     A
   \   00002F   F0           MOVX    @DPTR,A
    699          
    700                ZDSecMgrEntries[index].keyNvId = SEC_NO_KEY_NV_ID;
   \   000030   8A82         MOV     DPL,R2
   \   000032   8B83         MOV     DPH,R3
   \   000034   A3           INC     DPTR
   \   000035   A3           INC     DPTR
   \   000036   E4           CLR     A
   \   000037   F0           MOVX    @DPTR,A
   \   000038   A3           INC     DPTR
   \   000039   12....       LCALL   ?Subroutine19 & 0xFFFF
    701              }
    702            }
   \                     ??CrossCallReturnLabel_10:
   \   00003C   40E5         JC      ??ZDSecMgrEntryInit_1
   \                     ??ZDSecMgrEntryInit_0:
   \   00003E   02....       LJMP    ??Subroutine139_0 & 0xFFFF
    703          
    704          #if defined NV_RESTORE
    705            if (state == ZDO_INITDEV_RESTORED_NETWORK_STATE)
    706            {
    707              ZDSecMgrRestoreFromNV();
    708            }
    709          #else
    710            (void)state;
    711          #endif
    712          }

   \                                 In  segment BANKED_CODE, align 1, keep-with-next
   \                     ??Subroutine125_0:
   \   000000   F0           MOVX    @DPTR,A
   \   000001   90....       MOV     DPTR,#ZDSecMgrEntries
   \   000004   12....       LCALL   ?Subroutine107 & 0xFFFF
   \                     ??CrossCallReturnLabel_336:
   \   000007   22           RET

   \                                 In  segment BANKED_CODE, align 1, keep-with-next
   \                     ?Subroutine83:
   \   000000   E8           MOV     A,R0
   \   000001   FA           MOV     R2,A
   \   000002   E9           MOV     A,R1
   \   000003   FB           MOV     R3,A
   \   000004   EA           MOV     A,R2
   \   000005   75F005       MOV     B,#0x5
   \   000008   A4           MUL     AB
   \   000009   FA           MOV     R2,A
   \   00000A   ACF0         MOV     R4,B
   \   00000C   75F005       MOV     B,#0x5
   \   00000F   EB           MOV     A,R3
   \   000010   A4           MUL     AB
   \   000011   2C           ADD     A,R4
   \   000012   FB           MOV     R3,A
   \   000013   90....       MOV     DPTR,#ZDSecMgrEntries
   \   000016   E0           MOVX    A,@DPTR
   \   000017   2A           ADD     A,R2
   \   000018   FA           MOV     R2,A
   \   000019   A3           INC     DPTR
   \   00001A   E0           MOVX    A,@DPTR
   \   00001B   3B           ADDC    A,R3
   \   00001C   FB           MOV     R3,A
   \   00001D   22           RET

   \                                 In  segment BANKED_CODE, align 1, keep-with-next
   \                     ?Subroutine19:
   \   000000   F0           MOVX    @DPTR,A
   \   000001   12....       LCALL   ?Subroutine98 & 0xFFFF
   \                     ??CrossCallReturnLabel_151:
   \   000004   22           RET

   \                                 In  segment BANKED_CODE, align 1, keep-with-next
   \                     ?Subroutine98:
   \   000000   E8           MOV     A,R0
   \   000001   2401         ADD     A,#0x1
   \   000003   08           INC     R0
   \   000004   E9           MOV     A,R1
   \   000005   3400         ADDC    A,#0x0
   \   000007   F9           MOV     R1,A
   \   000008   C3           CLR     C
   \   000009   E8           MOV     A,R0
   \   00000A   9403         SUBB    A,#0x3
   \   00000C   E9           MOV     A,R1
   \   00000D   9400         SUBB    A,#0x0
   \   00000F   22           RET

   \                                 In  segment BANKED_CODE, align 1, keep-with-next
   \                     ?Subroutine107:
   \   000000   12....       LCALL   ?Subroutine116 & 0xFFFF
   \                     ??CrossCallReturnLabel_372:
   \   000003   E8           MOV     A,R0
   \   000004   49           ORL     A,R1
   \   000005   22           RET

   \                                 In  segment BANKED_CODE, align 1, keep-with-next
   \                     ??Subroutine139_0:
   \   000000   D083         POP     DPH
   \   000002   D082         POP     DPL
   \   000004   02....       LJMP    ?BRET

   \                                 In  segment BANKED_CODE, align 1, keep-with-next
   \                     ??Subroutine155_0:
   \   000000   12....       LCALL   ?Subroutine107 & 0xFFFF
   \                     ??CrossCallReturnLabel_337:
   \   000003   22           RET
    713          
    714          /******************************************************************************
    715           * @fn          ZDSecMgrEntryLookup
    716           *
    717           * @brief       Lookup entry index using specified NWK address.
    718           *
    719           * @param       nwkAddr - [in] NWK address
    720           * @param       entry   - [out] valid entry
    721           *
    722           * @return      ZStatus_t
    723           */

   \                                 In  segment BANKED_CODE, align 1, keep-with-next
    724          ZStatus_t ZDSecMgrEntryLookup( uint16 nwkAddr, ZDSecMgrEntry_t** entry )
   \                     ZDSecMgrEntryLookup:
    725          {
   \   000000   74F7         MOV     A,#-0x9
   \   000002   12....       LCALL   ?BANKED_ENTER_XDATA
   \   000005                ; Saved register size: 9
   \   000005                ; Auto size: 13
   \   000005   74F3         MOV     A,#-0xd
   \   000007   12....       LCALL   ?ALLOC_XSTACK8
   \   00000A   EC           MOV     A,R4
   \   00000B   FE           MOV     R6,A
   \   00000C   ED           MOV     A,R5
   \   00000D   FF           MOV     R7,A
    726            uint16         index;
    727            AddrMgrEntry_t addrMgrEntry;
    728          
    729            // initialize results
    730            *entry = NULL;
   \   00000E   8E82         MOV     DPL,R6
   \   000010   8F83         MOV     DPH,R7
   \   000012   12....       LCALL   ?Subroutine11 & 0xFFFF
    731          
    732            // verify data is available
    733            if ( ZDSecMgrEntries != NULL )
   \                     ??CrossCallReturnLabel_205:
   \   000015   6063         JZ      ??ZDSecMgrEntryLookup_0
    734            {
    735              addrMgrEntry.user    = ADDRMGR_USER_SECURITY;
   \   000017   85..82       MOV     DPL,?XSP + 0
   \   00001A   85..83       MOV     DPH,?XSP + 1
   \   00001D   7402         MOV     A,#0x2
   \   00001F   F0           MOVX    @DPTR,A
    736              addrMgrEntry.nwkAddr = nwkAddr;
   \   000020   14           DEC     A
   \   000021   12....       LCALL   ?XSTACK_DISP0_8
   \   000024   12....       LCALL   ?Subroutine12 & 0xFFFF
    737          
    738              if ( AddrMgrEntryLookupNwk( &addrMgrEntry ) == TRUE )
   \                     ??CrossCallReturnLabel_0:
   \   000027   12....       LCALL   ??Subroutine148_0 & 0xFFFF
   \                     ??CrossCallReturnLabel_300:
   \   00002A   704E         JNZ     ??ZDSecMgrEntryLookup_0
    739              {
    740                for ( index = 0; index < ZDSECMGR_ENTRY_MAX ; index++ )
   \   00002C   7800         MOV     R0,#0x0
   \   00002E   7900         MOV     R1,#0x0
    741                {
    742                  if ( addrMgrEntry.index == ZDSecMgrEntries[index].ami )
   \                     ??ZDSecMgrEntryLookup_1:
   \   000030   740B         MOV     A,#0xb
   \   000032   12....       LCALL   ?XSTACK_DISP0_8
   \   000035   12....       LCALL   ?Subroutine115 & 0xFFFF
   \                     ??CrossCallReturnLabel_176:
   \   000038   E8           MOV     A,R0
   \   000039   FA           MOV     R2,A
   \   00003A   E9           MOV     A,R1
   \   00003B   FB           MOV     R3,A
   \   00003C   EA           MOV     A,R2
   \   00003D   75F005       MOV     B,#0x5
   \   000040   A4           MUL     AB
   \   000041   FA           MOV     R2,A
   \   000042   85F0..       MOV     ?V0 + 0,B
   \   000045   75F005       MOV     B,#0x5
   \   000048   EB           MOV     A,R3
   \   000049   A4           MUL     AB
   \   00004A   25..         ADD     A,?V0 + 0
   \   00004C   FB           MOV     R3,A
   \   00004D   90....       MOV     DPTR,#ZDSecMgrEntries
   \   000050   12....       LCALL   ?Subroutine61 & 0xFFFF
   \                     ??CrossCallReturnLabel_94:
   \   000053   6C           XRL     A,R4
   \   000054   7003         JNZ     ??ZDSecMgrEntryLookup_2
   \   000056   A3           INC     DPTR
   \   000057   E0           MOVX    A,@DPTR
   \   000058   6D           XRL     A,R5
   \                     ??ZDSecMgrEntryLookup_2:
   \   000059   701A         JNZ     ??ZDSecMgrEntryLookup_3
    743                  {
    744                    // return successful results
    745                    *entry = &ZDSecMgrEntries[index];
   \   00005B   E8           MOV     A,R0
   \   00005C   75F005       MOV     B,#0x5
   \   00005F   A4           MUL     AB
   \   000060   F8           MOV     R0,A
   \   000061   AAF0         MOV     R2,B
   \   000063   75F005       MOV     B,#0x5
   \   000066   E9           MOV     A,R1
   \   000067   A4           MUL     AB
   \   000068   2A           ADD     A,R2
   \   000069   F9           MOV     R1,A
   \   00006A   90....       MOV     DPTR,#ZDSecMgrEntries
   \   00006D   12....       LCALL   ?Subroutine110 & 0xFFFF
    746          
    747                    // break from loop
    748                    return ZSuccess;
    749                  }
    750                }
   \                     ??CrossCallReturnLabel_170:
   \   000070   12....       LCALL   ??Subroutine123_0 & 0xFFFF
   \                     ??CrossCallReturnLabel_201:
   \   000073   8007         SJMP    ??ZDSecMgrEntryLookup_4
   \                     ??ZDSecMgrEntryLookup_3:
   \   000075   12....       LCALL   ?Subroutine38 & 0xFFFF
    751              }
    752            }
   \                     ??CrossCallReturnLabel_51:
   \   000078   40B6         JC      ??ZDSecMgrEntryLookup_1
    753          
    754            return ZNwkUnknownDevice;
   \                     ??ZDSecMgrEntryLookup_0:
   \   00007A   79C8         MOV     R1,#-0x38
   \                     ??ZDSecMgrEntryLookup_4:
   \   00007C   02....       LJMP    ?Subroutine7 & 0xFFFF
    755          }

   \                                 In  segment BANKED_CODE, align 1, keep-with-next
   \                     ?Subroutine11:
   \   000000   E4           CLR     A
   \   000001   F0           MOVX    @DPTR,A
   \   000002   A3           INC     DPTR
   \   000003                REQUIRE ??Subroutine125_0
   \   000003                ; // Fall through to label ??Subroutine125_0

   \                                 In  segment BANKED_CODE, align 1, keep-with-next
   \                     ?Subroutine38:
   \   000000   12....       LCALL   ?Subroutine98 & 0xFFFF
   \                     ??CrossCallReturnLabel_150:
   \   000003   22           RET

   \                                 In  segment BANKED_CODE, align 1, keep-with-next
   \                     ?Subroutine110:
   \   000000   E0           MOVX    A,@DPTR
   \   000001   28           ADD     A,R0
   \   000002   F8           MOV     R0,A
   \   000003   A3           INC     DPTR
   \   000004   E0           MOVX    A,@DPTR
   \   000005   39           ADDC    A,R1
   \   000006   22           RET

   \                                 In  segment BANKED_CODE, align 1, keep-with-next
   \                     ?Subroutine61:
   \   000000   12....       LCALL   ?Subroutine105 & 0xFFFF
   \                     ??CrossCallReturnLabel_165:
   \   000003   E0           MOVX    A,@DPTR
   \   000004   22           RET

   \                                 In  segment BANKED_CODE, align 1, keep-with-next
   \                     ?Subroutine105:
   \   000000   E0           MOVX    A,@DPTR
   \   000001   2A           ADD     A,R2
   \   000002   F5..         MOV     ?V0 + 0,A
   \   000004   A3           INC     DPTR
   \   000005   E0           MOVX    A,@DPTR
   \   000006   3B           ADDC    A,R3
   \   000007   85..82       MOV     DPL,?V0 + 0
   \   00000A   F583         MOV     DPH,A
   \   00000C   22           RET

   \                                 In  segment BANKED_CODE, align 1, keep-with-next
   \                     ?Subroutine12:
   \   000000   EA           MOV     A,R2
   \   000001   F0           MOVX    @DPTR,A
   \   000002   A3           INC     DPTR
   \   000003   EB           MOV     A,R3
   \   000004   12....       LCALL   ??Subroutine152_0 & 0xFFFF
   \                     ??CrossCallReturnLabel_318:
   \   000007   22           RET

   \                                 In  segment BANKED_CODE, align 1, keep-with-next
   \                     ?Subroutine115:
   \   000000   E0           MOVX    A,@DPTR
   \   000001   FC           MOV     R4,A
   \   000002   A3           INC     DPTR
   \   000003   E0           MOVX    A,@DPTR
   \   000004   FD           MOV     R5,A
   \   000005   22           RET

   \                                 In  segment BANKED_CODE, align 1, keep-with-next
   \                     ??Subroutine148_0:
   \   000000   12....       LCALL   ??AddrMgrEntryLookupNwk?relay
   \   000003   E9           MOV     A,R1
   \   000004   6401         XRL     A,#0x1
   \   000006   22           RET

   \                                 In  segment BANKED_CODE, align 1, keep-with-next
   \                     ??Subroutine152_0:
   \   000000   F0           MOVX    @DPTR,A
   \   000001                ; Setup parameters for call to function ZDSecMgrDeviceCtrlHandler
   \   000001                ; Setup parameters for call to function ZDSecMgrDeviceJoin
   \   000001                ; Setup parameters for call to function APSME_AuthenticateReq
   \   000001                ; Setup parameters for call to function ZDSecMgrDeviceRemove
   \   000001                ; Setup parameters for call to function ZDSecMgrDeviceRemove
   \   000001                ; Setup parameters for call to function AddrMgrEntryLookupNwk
   \   000001                ; Setup parameters for call to function AddrMgrEntryGet
   \   000001                ; Setup parameters for call to function APSME_RequestKeyReq
   \   000001                ; Setup parameters for call to function APSME_AuthenticateReq
   \   000001                ; Setup parameters for call to function APSME_TransportKeyReq
   \   000001                ; Setup parameters for call to function APSME_EstablishKeyReq
   \   000001                ; Setup parameters for call to function AddrMgrEntryUpdate
   \   000001                ; Setup parameters for call to function NLME_LeaveReq
   \   000001                ; Setup parameters for call to function APSME_UpdateDeviceReq
   \   000001                ; Setup parameters for call to function ZDSecMgrDeviceNew
   \   000001                ; Setup parameters for call to function APSME_EstablishKeyRsp
   \   000001                ; Setup parameters for call to function APSME_SwitchKeyReq
   \   000001   85..82       MOV     DPL,?XSP + 0
   \   000004   85..83       MOV     DPH,?XSP + 1
   \   000007   AA82         MOV     R2,DPL
   \   000009   AB83         MOV     R3,DPH
   \   00000B   22           RET
    756          
    757          /******************************************************************************
    758           * @fn          ZDSecMgrEntryLookupAMI
    759           *
    760           * @brief       Lookup entry using specified address index
    761           *
    762           * @param       ami   - [in] Address Manager index
    763           * @param       entry - [out] valid entry
    764           *
    765           * @return      ZStatus_t
    766           */

   \                                 In  segment BANKED_CODE, align 1, keep-with-next
    767          ZStatus_t ZDSecMgrEntryLookupAMI( uint16 ami, ZDSecMgrEntry_t** entry )
   \                     ZDSecMgrEntryLookupAMI:
    768          {
   \   000000   74F7         MOV     A,#-0x9
   \   000002   12....       LCALL   ?BANKED_ENTER_XDATA
   \   000005                ; Saved register size: 9
   \   000005                ; Auto size: 0
    769            uint16 index;
    770          
    771            // initialize results
    772            *entry = NULL;
   \   000005   8C82         MOV     DPL,R4
   \   000007   8D83         MOV     DPH,R5
   \   000009   12....       LCALL   ?Subroutine11 & 0xFFFF
    773          
    774            // verify data is available
    775            if ( ZDSecMgrEntries != NULL )
   \                     ??CrossCallReturnLabel_206:
   \   00000C   602D         JZ      ??ZDSecMgrEntryLookupAMI_0
    776            {
    777              for ( index = 0; index < ZDSECMGR_ENTRY_MAX ; index++ )
   \   00000E   7800         MOV     R0,#0x0
   \   000010   7900         MOV     R1,#0x0
    778              {
    779                if ( ZDSecMgrEntries[index].ami == ami )
   \                     ??ZDSecMgrEntryLookupAMI_1:
   \   000012   12....       LCALL   ?Subroutine59 & 0xFFFF
   \                     ??CrossCallReturnLabel_90:
   \   000015   7003         JNZ     ??ZDSecMgrEntryLookupAMI_2
   \   000017   A3           INC     DPTR
   \   000018   E0           MOVX    A,@DPTR
   \   000019   6B           XRL     A,R3
   \                     ??ZDSecMgrEntryLookupAMI_2:
   \   00001A   701A         JNZ     ??ZDSecMgrEntryLookupAMI_3
    780                {
    781                  // return successful results
    782                  *entry = &ZDSecMgrEntries[index];
   \   00001C   E8           MOV     A,R0
   \   00001D   75F005       MOV     B,#0x5
   \   000020   A4           MUL     AB
   \   000021   F8           MOV     R0,A
   \   000022   AAF0         MOV     R2,B
   \   000024   75F005       MOV     B,#0x5
   \   000027   E9           MOV     A,R1
   \   000028   A4           MUL     AB
   \   000029   2A           ADD     A,R2
   \   00002A   F9           MOV     R1,A
   \   00002B   90....       MOV     DPTR,#ZDSecMgrEntries
   \   00002E   12....       LCALL   ?Subroutine67 & 0xFFFF
    783          
    784                  // break from loop
    785                  return ZSuccess;
    786                }
    787              }
   \                     ??CrossCallReturnLabel_102:
   \   000031   12....       LCALL   ??Subroutine124_0 & 0xFFFF
   \                     ??CrossCallReturnLabel_202:
   \   000034   8007         SJMP    ??ZDSecMgrEntryLookupAMI_4
   \                     ??ZDSecMgrEntryLookupAMI_3:
   \   000036   12....       LCALL   ?Subroutine38 & 0xFFFF
    788            }
   \                     ??CrossCallReturnLabel_52:
   \   000039   40D7         JC      ??ZDSecMgrEntryLookupAMI_1
    789          
    790            return ZNwkUnknownDevice;
   \                     ??ZDSecMgrEntryLookupAMI_0:
   \   00003B   79C8         MOV     R1,#-0x38
   \                     ??ZDSecMgrEntryLookupAMI_4:
   \   00003D   02....       LJMP    ??Subroutine147_0 & 0xFFFF
    791          }

   \                                 In  segment BANKED_CODE, align 1, keep-with-next
   \                     ?Subroutine59:
   \   000000   E8           MOV     A,R0
   \   000001   FE           MOV     R6,A
   \   000002   E9           MOV     A,R1
   \   000003   FF           MOV     R7,A
   \   000004   EE           MOV     A,R6
   \   000005   75F005       MOV     B,#0x5
   \   000008   A4           MUL     AB
   \   000009   FE           MOV     R6,A
   \   00000A   85F0..       MOV     ?V0 + 0,B
   \   00000D   75F005       MOV     B,#0x5
   \   000010   EF           MOV     A,R7
   \   000011   A4           MUL     AB
   \   000012   25..         ADD     A,?V0 + 0
   \   000014   FF           MOV     R7,A
   \   000015   90....       MOV     DPTR,#ZDSecMgrEntries
   \   000018   12....       LCALL   ?Subroutine106 & 0xFFFF
   \                     ??CrossCallReturnLabel_167:
   \   00001B   E0           MOVX    A,@DPTR
   \   00001C   6A           XRL     A,R2
   \   00001D   22           RET

   \                                 In  segment BANKED_CODE, align 1, keep-with-next
   \                     ?Subroutine67:
   \   000000   12....       LCALL   ?Subroutine110 & 0xFFFF
   \                     ??CrossCallReturnLabel_172:
   \   000003   F9           MOV     R1,A
   \   000004   8C82         MOV     DPL,R4
   \   000006   8D83         MOV     DPH,R5
   \   000008   22           RET

   \                                 In  segment BANKED_CODE, align 1, keep-with-next
   \                     ?Subroutine106:
   \   000000   E0           MOVX    A,@DPTR
   \   000001   2E           ADD     A,R6
   \   000002   F5..         MOV     ?V0 + 0,A
   \   000004   A3           INC     DPTR
   \   000005   E0           MOVX    A,@DPTR
   \   000006   3F           ADDC    A,R7
   \   000007   85..82       MOV     DPL,?V0 + 0
   \   00000A   F583         MOV     DPH,A
   \   00000C   22           RET
    792          
    793          /******************************************************************************
    794           * @fn          ZDSecMgrEntryLookupExt
    795           *
    796           * @brief       Lookup entry index using specified EXT address.
    797           *
    798           * @param       extAddr - [in] EXT address
    799           * @param       entry   - [out] valid entry
    800           *
    801           * @return      ZStatus_t
    802           */

   \                                 In  segment BANKED_CODE, align 1, keep-with-next
    803          ZStatus_t ZDSecMgrEntryLookupExt( uint8* extAddr, ZDSecMgrEntry_t** entry )
   \                     ZDSecMgrEntryLookupExt:
    804          {
   \   000000   74F7         MOV     A,#-0x9
   \   000002   12....       LCALL   ?BANKED_ENTER_XDATA
   \   000005                ; Saved register size: 9
   \   000005                ; Auto size: 2
   \   000005   74FE         MOV     A,#-0x2
   \   000007   12....       LCALL   ?ALLOC_XSTACK8
   \   00000A   EC           MOV     A,R4
   \   00000B   FE           MOV     R6,A
   \   00000C   ED           MOV     A,R5
   \   00000D   FF           MOV     R7,A
    805            ZStatus_t status;
    806            uint16    ami;
    807          
    808            // initialize results
    809            *entry = NULL;
   \   00000E   8E82         MOV     DPL,R6
   \   000010   8F83         MOV     DPH,R7
   \   000012   E4           CLR     A
   \   000013   F0           MOVX    @DPTR,A
   \   000014   A3           INC     DPTR
   \   000015   F0           MOVX    @DPTR,A
    810            status = ZNwkUnknownDevice;
   \   000016   75..C8       MOV     ?V0 + 0,#-0x38
    811          
    812            // lookup address index
    813            if ( ZDSecMgrExtAddrLookup( extAddr, &ami ) == ZSuccess )
   \   000019                ; Setup parameters for call to function ZDSecMgrExtAddrLookup
   \   000019   12....       LCALL   ?Subroutine86 & 0xFFFF
   \                     ??CrossCallReturnLabel_210:
   \   00001C   7010         JNZ     ??ZDSecMgrEntryLookupExt_0
    814            {
    815              status = ZDSecMgrEntryLookupAMI( ami, entry );
   \   00001E                ; Setup parameters for call to function ZDSecMgrEntryLookupAMI
   \   00001E   EE           MOV     A,R6
   \   00001F   FC           MOV     R4,A
   \   000020   EF           MOV     A,R7
   \   000021   FD           MOV     R5,A
   \   000022   85..82       MOV     DPL,?XSP + 0
   \   000025   85..83       MOV     DPH,?XSP + 1
   \   000028   12....       LCALL   ?Subroutine71 & 0xFFFF
    816            }
   \                     ??CrossCallReturnLabel_110:
   \   00002B   E9           MOV     A,R1
   \   00002C   F5..         MOV     ?V0 + 0,A
    817          
    818            return status;
   \                     ??ZDSecMgrEntryLookupExt_0:
   \   00002E   02....       LJMP    ?Subroutine1 & 0xFFFF
    819          }

   \                                 In  segment BANKED_CODE, align 1, keep-with-next
   \                     ?Subroutine1:
   \   000000   A9..         MOV     R1,?V0 + 0
   \   000002                REQUIRE ??Subroutine145_0
   \   000002                ; // Fall through to label ??Subroutine145_0

   \                                 In  segment BANKED_CODE, align 1, keep-with-next
   \                     ??Subroutine145_0:
   \   000000   7402         MOV     A,#0x2
   \   000002                REQUIRE ??Subroutine146_0
   \   000002                ; // Fall through to label ??Subroutine146_0

   \                                 In  segment BANKED_CODE, align 1, keep-with-next
   \                     ??Subroutine157_0:
   \   000000   E0           MOVX    A,@DPTR
   \   000001   FA           MOV     R2,A
   \   000002   A3           INC     DPTR
   \   000003   E0           MOVX    A,@DPTR
   \   000004   FB           MOV     R3,A
   \   000005   22           RET

   \                                 In  segment BANKED_CODE, align 1, keep-with-next
   \                     ?Subroutine71:
   \   000000   12....       LCALL   ??Subroutine157_0 & 0xFFFF
   \                     ??CrossCallReturnLabel_350:
   \   000003   12....       LCALL   ??ZDSecMgrEntryLookupAMI?relay
   \   000006   22           RET
    820          
    821          /******************************************************************************
    822           * @fn          ZDSecMgrEntryLookupExtGetIndex
    823           *
    824           * @brief       Lookup entry index using specified EXT address.
    825           *
    826           * @param       extAddr - [in] EXT address
    827           * @param       entryIndex - [out] valid index to the entry table
    828           *
    829           * @return      ZStatus_t
    830           */

   \                                 In  segment BANKED_CODE, align 1, keep-with-next
    831          ZStatus_t ZDSecMgrEntryLookupExtGetIndex( uint8* extAddr, ZDSecMgrEntry_t** entry, uint16* entryIndex )
   \                     ZDSecMgrEntryLookupExtGetIndex:
    832          {
   \   000000   74F6         MOV     A,#-0xa
   \   000002   12....       LCALL   ?BANKED_ENTER_XDATA
   \   000005                ; Saved register size: 10
   \   000005                ; Auto size: 2
   \   000005   74FE         MOV     A,#-0x2
   \   000007   12....       LCALL   ?ALLOC_XSTACK8
   \   00000A   EC           MOV     A,R4
   \   00000B   FE           MOV     R6,A
   \   00000C   ED           MOV     A,R5
   \   00000D   FF           MOV     R7,A
   \   00000E   740C         MOV     A,#0xc
   \   000010   12....       LCALL   ?XSTACK_DISP0_8
   \   000013   12....       LCALL   ??Subroutine160_0 & 0xFFFF
   \                     ??CrossCallReturnLabel_356:
   \   000016   88..         MOV     ?V0 + 0,R0
   \   000018   89..         MOV     ?V0 + 1,R1
    833            uint16 ami;
    834            uint16 index;
    835          
    836            // lookup address index
    837            if ( ZDSecMgrExtAddrLookup( extAddr, &ami ) == ZSuccess )
   \   00001A                ; Setup parameters for call to function ZDSecMgrExtAddrLookup
   \   00001A   12....       LCALL   ?Subroutine86 & 0xFFFF
   \                     ??CrossCallReturnLabel_211:
   \   00001D   7051         JNZ     ??ZDSecMgrEntryLookupExtGetIndex_0
    838            {
    839              // verify data is available
    840              if ( ZDSecMgrEntries != NULL )
   \   00001F   90....       MOV     DPTR,#ZDSecMgrEntries
   \   000022   12....       LCALL   ??Subroutine155_0 & 0xFFFF
   \                     ??CrossCallReturnLabel_324:
   \   000025   6049         JZ      ??ZDSecMgrEntryLookupExtGetIndex_0
    841              {
    842                for ( index = 0; index < ZDSECMGR_ENTRY_MAX ; index++ )
   \   000027   7800         MOV     R0,#0x0
   \   000029   7900         MOV     R1,#0x0
    843                {
    844                  if ( ZDSecMgrEntries[index].ami == ami )
   \                     ??ZDSecMgrEntryLookupExtGetIndex_1:
   \   00002B   E8           MOV     A,R0
   \   00002C   FA           MOV     R2,A
   \   00002D   E9           MOV     A,R1
   \   00002E   FB           MOV     R3,A
   \   00002F   EA           MOV     A,R2
   \   000030   75F005       MOV     B,#0x5
   \   000033   A4           MUL     AB
   \   000034   FA           MOV     R2,A
   \   000035   ACF0         MOV     R4,B
   \   000037   75F005       MOV     B,#0x5
   \   00003A   EB           MOV     A,R3
   \   00003B   A4           MUL     AB
   \   00003C   2C           ADD     A,R4
   \   00003D   FB           MOV     R3,A
   \   00003E   90....       MOV     DPTR,#ZDSecMgrEntries
   \   000041   12....       LCALL   ?Subroutine69 & 0xFFFF
   \                     ??CrossCallReturnLabel_106:
   \   000044   12....       LCALL   ??Subroutine150_0 & 0xFFFF
   \                     ??CrossCallReturnLabel_301:
   \   000047   85..82       MOV     DPL,?XSP + 0
   \   00004A   85..83       MOV     DPH,?XSP + 1
   \   00004D   E0           MOVX    A,@DPTR
   \   00004E   6A           XRL     A,R2
   \   00004F   7003         JNZ     ??ZDSecMgrEntryLookupExtGetIndex_2
   \   000051   A3           INC     DPTR
   \   000052   E0           MOVX    A,@DPTR
   \   000053   6B           XRL     A,R3
   \                     ??ZDSecMgrEntryLookupExtGetIndex_2:
   \   000054   7015         JNZ     ??ZDSecMgrEntryLookupExtGetIndex_3
    845                  {
    846                    // return successful results
    847                    *entry = &ZDSecMgrEntries[index];
   \   000056   12....       LCALL   ?Subroutine83 & 0xFFFF
   \                     ??CrossCallReturnLabel_132:
   \   000059   8E82         MOV     DPL,R6
   \   00005B   8F83         MOV     DPH,R7
   \   00005D   12....       LCALL   ?Subroutine37 & 0xFFFF
    848                    *entryIndex = index;
   \                     ??CrossCallReturnLabel_47:
   \   000060   85..82       MOV     DPL,?V0 + 0
   \   000063   85..83       MOV     DPH,?V0 + 1
   \   000066   12....       LCALL   ??Subroutine124_0 & 0xFFFF
    849          
    850                    // break from loop
    851                    return ZSuccess;
    852                  }
    853                }
   \                     ??CrossCallReturnLabel_203:
   \   000069   8007         SJMP    ??ZDSecMgrEntryLookupExtGetIndex_4
   \                     ??ZDSecMgrEntryLookupExtGetIndex_3:
   \   00006B   12....       LCALL   ?Subroutine38 & 0xFFFF
    854              }
    855            }
   \                     ??CrossCallReturnLabel_53:
   \   00006E   40BB         JC      ??ZDSecMgrEntryLookupExtGetIndex_1
    856          
    857            return ZNwkUnknownDevice;
   \                     ??ZDSecMgrEntryLookupExtGetIndex_0:
   \   000070   79C8         MOV     R1,#-0x38
   \                     ??ZDSecMgrEntryLookupExtGetIndex_4:
   \   000072   02....       LJMP    ?Subroutine0 & 0xFFFF
    858          }

   \                                 In  segment BANKED_CODE, align 1, keep-with-next
   \                     ?Subroutine69:
   \   000000   E0           MOVX    A,@DPTR
   \   000001   2A           ADD     A,R2
   \   000002   FC           MOV     R4,A
   \   000003   A3           INC     DPTR
   \   000004   E0           MOVX    A,@DPTR
   \   000005   3B           ADDC    A,R3
   \   000006   8C82         MOV     DPL,R4
   \   000008   F583         MOV     DPH,A
   \   00000A   22           RET

   \                                 In  segment BANKED_CODE, align 1, keep-with-next
   \                     ?Subroutine0:
   \   000000   7402         MOV     A,#0x2
   \   000002                REQUIRE ??Subroutine134_0
   \   000002                ; // Fall through to label ??Subroutine134_0

   \                                 In  segment BANKED_CODE, align 1, keep-with-next
   \                     ??Subroutine150_0:
   \   000000   12....       LCALL   ??Subroutine157_0 & 0xFFFF
   \                     ??CrossCallReturnLabel_355:
   \   000003   22           RET

   \                                 In  segment BANKED_CODE, align 1, keep-with-next
   \                     ??Subroutine160_0:
   \   000000   12....       LCALL   ?Subroutine108 & 0xFFFF
   \                     ??CrossCallReturnLabel_369:
   \   000003   22           RET
    859          
    860          /******************************************************************************
    861           * @fn          ZDSecMgrEntryLookupAMIGetIndex
    862           *
    863           * @brief       Lookup entry using specified address index
    864           *
    865           * @param       ami   - [in] Address Manager index
    866           * @param       entryIndex - [out] valid index to the entry table
    867           *
    868           * @return      ZStatus_t
    869           */

   \                                 In  segment BANKED_CODE, align 1, keep-with-next
    870          ZStatus_t ZDSecMgrEntryLookupAMIGetIndex( uint16 ami, uint16* entryIndex )
   \                     ZDSecMgrEntryLookupAMIGetIndex:
    871          {
   \   000000   74F7         MOV     A,#-0x9
   \   000002   12....       LCALL   ?BANKED_ENTER_XDATA
   \   000005                ; Saved register size: 9
   \   000005                ; Auto size: 0
    872            uint16 index;
    873          
    874            // verify data is available
    875            if ( ZDSecMgrEntries != NULL )
   \   000005   90....       MOV     DPTR,#ZDSecMgrEntries
   \   000008   12....       LCALL   ??Subroutine155_0 & 0xFFFF
   \                     ??CrossCallReturnLabel_325:
   \   00000B   601C         JZ      ??ZDSecMgrEntryLookupAMIGetIndex_0
    876            {
    877              for ( index = 0; index < ZDSECMGR_ENTRY_MAX ; index++ )
   \   00000D   7800         MOV     R0,#0x0
   \   00000F   7900         MOV     R1,#0x0
    878              {
    879                if ( ZDSecMgrEntries[index].ami == ami )
   \                     ??ZDSecMgrEntryLookupAMIGetIndex_1:
   \   000011   12....       LCALL   ?Subroutine59 & 0xFFFF
   \                     ??CrossCallReturnLabel_91:
   \   000014   7003         JNZ     ??ZDSecMgrEntryLookupAMIGetIndex_2
   \   000016   A3           INC     DPTR
   \   000017   E0           MOVX    A,@DPTR
   \   000018   6B           XRL     A,R3
   \                     ??ZDSecMgrEntryLookupAMIGetIndex_2:
   \   000019   7009         JNZ     ??ZDSecMgrEntryLookupAMIGetIndex_3
    880                {
    881                  // return successful results
    882                  *entryIndex = index;
   \   00001B   8C82         MOV     DPL,R4
   \   00001D   8D83         MOV     DPH,R5
   \   00001F   12....       LCALL   ??Subroutine124_0 & 0xFFFF
    883          
    884                  // break from loop
    885                  return ZSuccess;
    886                }
    887              }
   \                     ??CrossCallReturnLabel_204:
   \   000022   8007         SJMP    ??ZDSecMgrEntryLookupAMIGetIndex_4
   \                     ??ZDSecMgrEntryLookupAMIGetIndex_3:
   \   000024   12....       LCALL   ?Subroutine38 & 0xFFFF
    888            }
   \                     ??CrossCallReturnLabel_54:
   \   000027   40E8         JC      ??ZDSecMgrEntryLookupAMIGetIndex_1
    889          
    890            return ZNwkUnknownDevice;
   \                     ??ZDSecMgrEntryLookupAMIGetIndex_0:
   \   000029   79C8         MOV     R1,#-0x38
   \                     ??ZDSecMgrEntryLookupAMIGetIndex_4:
   \   00002B   02....       LJMP    ??Subroutine147_0 & 0xFFFF
    891          }
    892          
    893          /******************************************************************************
    894           * @fn          ZDSecMgrEntryFree
    895           *
    896           * @brief       Free entry.
    897           *
    898           * @param       entry - [in] valid entry
    899           *
    900           * @return      ZStatus_t
    901           */

   \                                 In  segment BANKED_CODE, align 1, keep-with-next
    902          void ZDSecMgrEntryFree( ZDSecMgrEntry_t* entry )
   \                     ZDSecMgrEntryFree:
    903          {
   \   000000   74F2         MOV     A,#-0xe
   \   000002   12....       LCALL   ?BANKED_ENTER_XDATA
   \   000005                ; Saved register size: 14
   \   000005                ; Auto size: 0
   \   000005   EA           MOV     A,R2
   \   000006   FE           MOV     R6,A
   \   000007   EB           MOV     A,R3
   \   000008   FF           MOV     R7,A
    904            APSME_LinkKeyData_t   *pApsLinkKey = NULL;
    905          
    906          #if defined ( NV_RESTORE )
    907            ZStatus_t status;
    908            uint16 entryIndex;
    909          
    910            status = ZDSecMgrEntryLookupAMIGetIndex( entry->ami, &entryIndex );
    911          #endif
    912          
    913            pApsLinkKey = (APSME_LinkKeyData_t *)osal_mem_alloc(sizeof(APSME_LinkKeyData_t));
   \   000009                ; Setup parameters for call to function osal_mem_alloc
   \   000009   12....       LCALL   ?Subroutine80 & 0xFFFF
    914          
    915            if (pApsLinkKey != NULL)
   \                     ??CrossCallReturnLabel_125:
   \   00000C   603D         JZ      ??ZDSecMgrEntryFree_0
    916            {
    917              osal_memset( pApsLinkKey, 0x00, sizeof(APSME_LinkKeyData_t) );
   \   00000E                ; Setup parameters for call to function osal_memset
   \   00000E   7C18         MOV     R4,#0x18
   \   000010   7D00         MOV     R5,#0x0
   \   000012   7900         MOV     R1,#0x0
   \   000014   12....       LCALL   ??osal_memset?relay
    918          
    919              // Clear the APS Link key in NV
    920              osal_nv_write( entry->keyNvId, 0,
    921                                  sizeof(APSME_LinkKeyData_t), pApsLinkKey);
   \   000017   12....       LCALL   ?Subroutine87 & 0xFFFF
   \                     ??CrossCallReturnLabel_135:
   \   00001A                ; Setup parameters for call to function osal_nv_write
   \   00001A   78..         MOV     R0,#?V0 + 2
   \   00001C   12....       LCALL   ?PUSH_XSTACK_I_TWO
   \   00001F   75..18       MOV     ?V0 + 4,#0x18
   \   000022   75..00       MOV     ?V0 + 5,#0x0
   \   000025   78..         MOV     R0,#?V0 + 4
   \   000027   12....       LCALL   ?PUSH_XSTACK_I_TWO
   \   00002A   7C00         MOV     R4,#0x0
   \   00002C   7D00         MOV     R5,#0x0
   \   00002E   85..82       MOV     DPL,?V0 + 0
   \   000031   12....       LCALL   ?Subroutine111 & 0xFFFF
   \                     ??CrossCallReturnLabel_259:
   \   000034   12....       LCALL   ??Subroutine121_0 & 0xFFFF
   \                     ??CrossCallReturnLabel_188:
   \   000037   12....       LCALL   ?DEALLOC_XSTACK8
    922          
    923              // set entry to invalid Key
    924              entry->keyNvId = SEC_NO_KEY_NV_ID;
   \   00003A   85..82       MOV     DPL,?V0 + 0
   \   00003D   85..83       MOV     DPH,?V0 + 1
   \   000040   E4           CLR     A
   \   000041   F0           MOVX    @DPTR,A
   \   000042   A3           INC     DPTR
   \   000043   F0           MOVX    @DPTR,A
    925          
    926              osal_mem_free(pApsLinkKey);
   \   000044                ; Setup parameters for call to function osal_mem_free
   \   000044   AA..         MOV     R2,?V0 + 2
   \   000046   AB..         MOV     R3,?V0 + 3
   \   000048   12....       LCALL   ??osal_mem_free?relay
    927            }
    928          
    929            // marking the entry as INVALID_NODE_ADDR
    930            entry->ami = INVALID_NODE_ADDR;
   \                     ??ZDSecMgrEntryFree_0:
   \   00004B   8E82         MOV     DPL,R6
   \   00004D   8F83         MOV     DPH,R7
   \   00004F   74FE         MOV     A,#-0x2
   \   000051   F0           MOVX    @DPTR,A
   \   000052   A3           INC     DPTR
   \   000053   04           INC     A
   \   000054   12....       LCALL   ?Subroutine36 & 0xFFFF
    931          
    932            // set to default value
    933            entry->authenticateOption = ZDSecMgr_Not_Authenticated;
   \                     ??CrossCallReturnLabel_43:
   \   000057   E4           CLR     A
   \   000058   F0           MOVX    @DPTR,A
    934          
    935          #if defined ( NV_RESTORE )
    936            if ( status == ZSuccess )
    937            {
    938              ZDSecMgrUpdateNV(entryIndex);
    939            }
    940          #endif
    941          }
   \   000059   02....       LJMP    ?Subroutine2 & 0xFFFF

   \                                 In  segment BANKED_CODE, align 1, keep-with-next
   \                     ?Subroutine111:
   \   000000   8983         MOV     DPH,R1
   \   000002                REQUIRE ??Subroutine133_0
   \   000002                ; // Fall through to label ??Subroutine133_0

   \                                 In  segment BANKED_CODE, align 1, keep-with-next
   \                     ??Subroutine133_0:
   \   000000   E0           MOVX    A,@DPTR
   \   000001   FA           MOV     R2,A
   \   000002   A3           INC     DPTR
   \   000003   E0           MOVX    A,@DPTR
   \   000004   22           RET

   \                                 In  segment BANKED_CODE, align 1, keep-with-next
   \                     ?Subroutine87:
   \   000000   EE           MOV     A,R6
   \   000001   2402         ADD     A,#0x2
   \   000003   F8           MOV     R0,A
   \   000004   EF           MOV     A,R7
   \   000005   3400         ADDC    A,#0x0
   \   000007   F9           MOV     R1,A
   \   000008   88..         MOV     ?V0 + 0,R0
   \   00000A   89..         MOV     ?V0 + 1,R1
   \   00000C   22           RET

   \                                 In  segment BANKED_CODE, align 1, keep-with-next
   \                     ?Subroutine36:
   \   000000   F0           MOVX    @DPTR,A
   \   000001   8E82         MOV     DPL,R6
   \   000003   8F83         MOV     DPH,R7
   \   000005   A3           INC     DPTR
   \   000006   A3           INC     DPTR
   \   000007   A3           INC     DPTR
   \   000008   A3           INC     DPTR
   \   000009   22           RET

   \                                 In  segment BANKED_CODE, align 1, keep-with-next
   \                     ?Subroutine80:
   \   000000   7A18         MOV     R2,#0x18
   \   000002   7B00         MOV     R3,#0x0
   \   000004   12....       LCALL   ??osal_mem_alloc?relay
   \   000007   8A..         MOV     ?V0 + 2,R2
   \   000009   8B..         MOV     ?V0 + 3,R3
   \   00000B   EA           MOV     A,R2
   \   00000C   45..         ORL     A,?V0 + 3
   \   00000E   22           RET
    942          
    943          /******************************************************************************
    944           * @fn          ZDSecMgrEntryNew
    945           *
    946           * @brief       Get a new entry.
    947           *
    948           * @param       entry - [out] valid entry
    949           *
    950           * @return      ZStatus_t
    951           */

   \                                 In  segment BANKED_CODE, align 1, keep-with-next
    952          ZStatus_t ZDSecMgrEntryNew( ZDSecMgrEntry_t** entry )
   \                     ZDSecMgrEntryNew:
    953          {
   \   000000   74F7         MOV     A,#-0x9
   \   000002   12....       LCALL   ?BANKED_ENTER_XDATA
   \   000005                ; Saved register size: 9
   \   000005                ; Auto size: 0
    954            uint16 index;
    955          
    956            // initialize results
    957            *entry = NULL;
   \   000005   8A82         MOV     DPL,R2
   \   000007   8B83         MOV     DPH,R3
   \   000009   12....       LCALL   ?Subroutine11 & 0xFFFF
    958          
    959            // verify data is available
    960            if ( ZDSecMgrEntries != NULL )
   \                     ??CrossCallReturnLabel_207:
   \   00000C   6060         JZ      ??ZDSecMgrEntryNew_0
    961            {
    962              // find available entry
    963              for ( index = 0; index < ZDSECMGR_ENTRY_MAX ; index++ )
   \   00000E   7800         MOV     R0,#0x0
   \   000010   7900         MOV     R1,#0x0
    964              {
    965                if ( ZDSecMgrEntries[index].ami == INVALID_NODE_ADDR )
   \                     ??ZDSecMgrEntryNew_1:
   \   000012   E8           MOV     A,R0
   \   000013   FC           MOV     R4,A
   \   000014   E9           MOV     A,R1
   \   000015   FD           MOV     R5,A
   \   000016   EC           MOV     A,R4
   \   000017   75F005       MOV     B,#0x5
   \   00001A   A4           MUL     AB
   \   00001B   FC           MOV     R4,A
   \   00001C   AEF0         MOV     R6,B
   \   00001E   75F005       MOV     B,#0x5
   \   000021   ED           MOV     A,R5
   \   000022   A4           MUL     AB
   \   000023   2E           ADD     A,R6
   \   000024   FD           MOV     R5,A
   \   000025   90....       MOV     DPTR,#ZDSecMgrEntries
   \   000028   E0           MOVX    A,@DPTR
   \   000029   2C           ADD     A,R4
   \   00002A   FE           MOV     R6,A
   \   00002B   A3           INC     DPTR
   \   00002C   E0           MOVX    A,@DPTR
   \   00002D   3D           ADDC    A,R5
   \   00002E   8E82         MOV     DPL,R6
   \   000030   F583         MOV     DPH,A
   \   000032   E0           MOVX    A,@DPTR
   \   000033   64FE         XRL     A,#0xfe
   \   000035   7003         JNZ     ??ZDSecMgrEntryNew_2
   \   000037   A3           INC     DPTR
   \   000038   E0           MOVX    A,@DPTR
   \   000039   F4           CPL     A
   \                     ??ZDSecMgrEntryNew_2:
   \   00003A   702D         JNZ     ??ZDSecMgrEntryNew_3
    966                {
    967                  // return successful result
    968                  *entry = &ZDSecMgrEntries[index];
   \   00003C   E8           MOV     A,R0
   \   00003D   75F005       MOV     B,#0x5
   \   000040   A4           MUL     AB
   \   000041   F8           MOV     R0,A
   \   000042   ACF0         MOV     R4,B
   \   000044   75F005       MOV     B,#0x5
   \   000047   E9           MOV     A,R1
   \   000048   A4           MUL     AB
   \   000049   2C           ADD     A,R4
   \   00004A   F9           MOV     R1,A
   \   00004B   90....       MOV     DPTR,#ZDSecMgrEntries
   \   00004E   E0           MOVX    A,@DPTR
   \   00004F   28           ADD     A,R0
   \   000050   FC           MOV     R4,A
   \   000051   A3           INC     DPTR
   \   000052   E0           MOVX    A,@DPTR
   \   000053   39           ADDC    A,R1
   \   000054   FD           MOV     R5,A
   \   000055   8A82         MOV     DPL,R2
   \   000057   8B83         MOV     DPH,R3
   \   000059   EC           MOV     A,R4
   \   00005A   F0           MOVX    @DPTR,A
   \   00005B   A3           INC     DPTR
   \   00005C   ED           MOV     A,R5
   \   00005D   F0           MOVX    @DPTR,A
    969          
    970                  // Set the authentication option to default
    971                  ZDSecMgrEntries[index].authenticateOption = ZDSecMgr_Not_Authenticated;
   \   00005E   90....       MOV     DPTR,#ZDSecMgrEntries
   \   000061   12....       LCALL   ?Subroutine58 & 0xFFFF
   \                     ??CrossCallReturnLabel_88:
   \   000064   E4           CLR     A
   \   000065   F0           MOVX    @DPTR,A
    972          
    973                  // break from loop
    974                  return ZSuccess;
   \   000066   F9           MOV     R1,A
   \   000067   8007         SJMP    ??ZDSecMgrEntryNew_4
    975                }
    976              }
   \                     ??ZDSecMgrEntryNew_3:
   \   000069   12....       LCALL   ?Subroutine38 & 0xFFFF
    977            }
   \                     ??CrossCallReturnLabel_55:
   \   00006C   40A4         JC      ??ZDSecMgrEntryNew_1
    978          
    979            return ZNwkUnknownDevice;
   \                     ??ZDSecMgrEntryNew_0:
   \   00006E   79C8         MOV     R1,#-0x38
   \                     ??ZDSecMgrEntryNew_4:
   \   000070   02....       LJMP    ??Subroutine147_0 & 0xFFFF
    980          }

   \                                 In  segment BANKED_CODE, align 1, keep-with-next
   \                     ?Subroutine58:
   \   000000   12....       LCALL   ?Subroutine103 & 0xFFFF
   \                     ??CrossCallReturnLabel_160:
   \   000003   22           RET

   \                                 In  segment BANKED_CODE, align 1, keep-with-next
   \                     ?Subroutine103:
   \   000000   E0           MOVX    A,@DPTR
   \   000001   28           ADD     A,R0
   \   000002   FA           MOV     R2,A
   \   000003   A3           INC     DPTR
   \   000004   E0           MOVX    A,@DPTR
   \   000005   39           ADDC    A,R1
   \   000006   8A82         MOV     DPL,R2
   \   000008   F583         MOV     DPH,A
   \   00000A   A3           INC     DPTR
   \   00000B   A3           INC     DPTR
   \   00000C   A3           INC     DPTR
   \   00000D   A3           INC     DPTR
   \   00000E   22           RET
    981          
    982          /******************************************************************************
    983           * @fn          ZDSecMgrCtrlInit
    984           *
    985           * @brief       Initialize control sub module
    986           *
    987           * @param       none
    988           *
    989           * @return      none
    990           */

   \                                 In  segment BANKED_CODE, align 1, keep-with-next
    991          void ZDSecMgrCtrlInit( void )
   \                     ZDSecMgrCtrlInit:
    992          {
   \   000000   C082         PUSH    DPL
   \   000002   C083         PUSH    DPH
   \   000004                ; Saved register size: 2
   \   000004                ; Auto size: 0
    993            uint16 size;
    994            uint16 index;
    995          
    996            // allocate entry data
    997            size = (short)( sizeof(ZDSecMgrCtrl_t) * ZDSECMGR_CTRL_MAX );
    998          
    999            ZDSecMgrCtrlData = osal_mem_alloc( size );
   \   000004                ; Setup parameters for call to function osal_mem_alloc
   \   000004   7A15         MOV     R2,#0x15
   \   000006   7B00         MOV     R3,#0x0
   \   000008   12....       LCALL   ??osal_mem_alloc?relay
   \   00000B   90....       MOV     DPTR,#ZDSecMgrCtrlData
   \   00000E   EA           MOV     A,R2
   \   00000F   F0           MOVX    @DPTR,A
   \   000010   A3           INC     DPTR
   \   000011   EB           MOV     A,R3
   \   000012   12....       LCALL   ?Subroutine29 & 0xFFFF
   1000          
   1001            // initialize data
   1002            if ( ZDSecMgrCtrlData != NULL )
   \                     ??CrossCallReturnLabel_33:
   \   000015   6028         JZ      ??ZDSecMgrCtrlInit_0
   1003            {
   1004              for( index = 0; index < ZDSECMGR_CTRL_MAX; index++ )
   \   000017   7800         MOV     R0,#0x0
   \   000019   7900         MOV     R1,#0x0
   1005              {
   1006                ZDSecMgrCtrlData[index].state = ZDSECMGR_CTRL_NONE;
   \                     ??ZDSecMgrCtrlInit_1:
   \   00001B   E8           MOV     A,R0
   \   00001C   FA           MOV     R2,A
   \   00001D   E9           MOV     A,R1
   \   00001E   FB           MOV     R3,A
   \   00001F   EA           MOV     A,R2
   \   000020   75F007       MOV     B,#0x7
   \   000023   A4           MUL     AB
   \   000024   FA           MOV     R2,A
   \   000025   ACF0         MOV     R4,B
   \   000027   75F007       MOV     B,#0x7
   \   00002A   EB           MOV     A,R3
   \   00002B   A4           MUL     AB
   \   00002C   2C           ADD     A,R4
   \   00002D   FB           MOV     R3,A
   \   00002E   90....       MOV     DPTR,#ZDSecMgrCtrlData
   \   000031   12....       LCALL   ?Subroutine69 & 0xFFFF
   1007              }
   1008            }
   \                     ??CrossCallReturnLabel_107:
   \   000034   A3           INC     DPTR
   \   000035   A3           INC     DPTR
   \   000036   A3           INC     DPTR
   \   000037   A3           INC     DPTR
   \   000038   A3           INC     DPTR
   \   000039   E4           CLR     A
   \   00003A   12....       LCALL   ?Subroutine19 & 0xFFFF
   \                     ??CrossCallReturnLabel_11:
   \   00003D   40DC         JC      ??ZDSecMgrCtrlInit_1
   1009          }
   \                     ??ZDSecMgrCtrlInit_0:
   \   00003F   02....       LJMP    ??Subroutine139_0 & 0xFFFF

   \                                 In  segment BANKED_CODE, align 1, keep-with-next
   \                     ?Subroutine29:
   \   000000   F0           MOVX    @DPTR,A
   \   000001   90....       MOV     DPTR,#ZDSecMgrCtrlData
   \   000004   12....       LCALL   ?Subroutine107 & 0xFFFF
   \                     ??CrossCallReturnLabel_335:
   \   000007   22           RET
   1010          
   1011          /******************************************************************************
   1012           * @fn          ZDSecMgrCtrlRelease
   1013           *
   1014           * @brief       Release control data.
   1015           *
   1016           * @param       ctrl - [in] valid control data
   1017           *
   1018           * @return      none
   1019           */

   \                                 In  segment BANKED_CODE, align 1, keep-with-next
   1020          void ZDSecMgrCtrlRelease( ZDSecMgrCtrl_t* ctrl )
   \                     ZDSecMgrCtrlRelease:
   1021          {
   \   000000   C082         PUSH    DPL
   \   000002   C083         PUSH    DPH
   \   000004                ; Saved register size: 2
   \   000004                ; Auto size: 0
   1022            // should always be enough entry control data
   1023            ctrl->state = ZDSECMGR_CTRL_NONE;
   \   000004   8A82         MOV     DPL,R2
   \   000006   8B83         MOV     DPH,R3
   \   000008   A3           INC     DPTR
   \   000009   A3           INC     DPTR
   \   00000A   A3           INC     DPTR
   \   00000B   A3           INC     DPTR
   \   00000C   A3           INC     DPTR
   \   00000D   E4           CLR     A
   \   00000E   F0           MOVX    @DPTR,A
   1024          }
   \   00000F   02....       LJMP    ??Subroutine139_0 & 0xFFFF
   1025          
   1026          /******************************************************************************
   1027           * @fn          ZDSecMgrCtrlLookup
   1028           *
   1029           * @brief       Lookup control data.
   1030           *
   1031           * @param       entry - [in] valid entry data
   1032           * @param       ctrl  - [out] control data - NULL if not found
   1033           *
   1034           * @return      none
   1035           */

   \                                 In  segment BANKED_CODE, align 1, keep-with-next
   1036          void ZDSecMgrCtrlLookup( ZDSecMgrEntry_t* entry, ZDSecMgrCtrl_t** ctrl )
   \                     ZDSecMgrCtrlLookup:
   1037          {
   \   000000   74F7         MOV     A,#-0x9
   \   000002   12....       LCALL   ?BANKED_ENTER_XDATA
   \   000005                ; Saved register size: 9
   \   000005                ; Auto size: 0
   \   000005   EA           MOV     A,R2
   \   000006   FE           MOV     R6,A
   \   000007   EB           MOV     A,R3
   \   000008   FF           MOV     R7,A
   1038            uint16 index;
   1039          
   1040            // initialize search results
   1041            *ctrl = NULL;
   \   000009   8C82         MOV     DPL,R4
   \   00000B   8D83         MOV     DPH,R5
   \   00000D   E4           CLR     A
   \   00000E   F0           MOVX    @DPTR,A
   \   00000F   A3           INC     DPTR
   \   000010   12....       LCALL   ?Subroutine29 & 0xFFFF
   1042          
   1043            // verify data is available
   1044            if ( ZDSecMgrCtrlData != NULL )
   \                     ??CrossCallReturnLabel_34:
   \   000013   605E         JZ      ??ZDSecMgrCtrlLookup_0
   1045            {
   1046              for ( index = 0; index < ZDSECMGR_CTRL_MAX; index++ )
   \   000015   7800         MOV     R0,#0x0
   \   000017   7900         MOV     R1,#0x0
   1047              {
   1048                // make sure control data is in use
   1049                if ( ZDSecMgrCtrlData[index].state != ZDSECMGR_CTRL_NONE )
   \                     ??ZDSecMgrCtrlLookup_1:
   \   000019   E8           MOV     A,R0
   \   00001A   FA           MOV     R2,A
   \   00001B   E9           MOV     A,R1
   \   00001C   FB           MOV     R3,A
   \   00001D   EA           MOV     A,R2
   \   00001E   75F007       MOV     B,#0x7
   \   000021   A4           MUL     AB
   \   000022   FA           MOV     R2,A
   \   000023   85F0..       MOV     ?V0 + 0,B
   \   000026   75F007       MOV     B,#0x7
   \   000029   EB           MOV     A,R3
   \   00002A   A4           MUL     AB
   \   00002B   25..         ADD     A,?V0 + 0
   \   00002D   FB           MOV     R3,A
   \   00002E   90....       MOV     DPTR,#ZDSecMgrCtrlData
   \   000031   12....       LCALL   ?Subroutine105 & 0xFFFF
   \                     ??CrossCallReturnLabel_164:
   \   000034   A3           INC     DPTR
   \   000035   A3           INC     DPTR
   \   000036   A3           INC     DPTR
   \   000037   A3           INC     DPTR
   \   000038   A3           INC     DPTR
   \   000039   E0           MOVX    A,@DPTR
   \   00003A   6032         JZ      ??ZDSecMgrCtrlLookup_2
   1050                {
   1051                  // check for entry match
   1052                  if ( ZDSecMgrCtrlData[index].entry == entry )
   \   00003C   E8           MOV     A,R0
   \   00003D   FA           MOV     R2,A
   \   00003E   E9           MOV     A,R1
   \   00003F   FB           MOV     R3,A
   \   000040   EA           MOV     A,R2
   \   000041   75F007       MOV     B,#0x7
   \   000044   A4           MUL     AB
   \   000045   FA           MOV     R2,A
   \   000046   85F0..       MOV     ?V0 + 0,B
   \   000049   75F007       MOV     B,#0x7
   \   00004C   EB           MOV     A,R3
   \   00004D   A4           MUL     AB
   \   00004E   25..         ADD     A,?V0 + 0
   \   000050   FB           MOV     R3,A
   \   000051   90....       MOV     DPTR,#ZDSecMgrCtrlData
   \   000054   12....       LCALL   ?Subroutine61 & 0xFFFF
   \                     ??CrossCallReturnLabel_95:
   \   000057   FA           MOV     R2,A
   \   000058   A3           INC     DPTR
   \   000059   E0           MOVX    A,@DPTR
   \   00005A   FB           MOV     R3,A
   \   00005B   EE           MOV     A,R6
   \   00005C   6A           XRL     A,R2
   \   00005D   7002         JNZ     ??ZDSecMgrCtrlLookup_3
   \   00005F   EF           MOV     A,R7
   \   000060   6B           XRL     A,R3
   \                     ??ZDSecMgrCtrlLookup_3:
   \   000061   700B         JNZ     ??ZDSecMgrCtrlLookup_2
   1053                  {
   1054                    // return this control data
   1055                    *ctrl = &ZDSecMgrCtrlData[index];
   \   000063   12....       LCALL   ??Subroutine142_0 & 0xFFFF
   \                     ??CrossCallReturnLabel_294:
   \   000066   12....       LCALL   ?Subroutine67 & 0xFFFF
   \                     ??CrossCallReturnLabel_103:
   \   000069   12....       LCALL   ??Subroutine130_0 & 0xFFFF
   1056          
   1057                    // break from loop
   1058                    return;
   \                     ??CrossCallReturnLabel_226:
   \   00006C   8005         SJMP    ??ZDSecMgrCtrlLookup_0
   1059                  }
   1060                }
   1061              }
   \                     ??ZDSecMgrCtrlLookup_2:
   \   00006E   12....       LCALL   ?Subroutine38 & 0xFFFF
   1062            }
   \                     ??CrossCallReturnLabel_56:
   \   000071   40A6         JC      ??ZDSecMgrCtrlLookup_1
   \                     ??ZDSecMgrCtrlLookup_0:
   \   000073   02....       LJMP    ??Subroutine147_0 & 0xFFFF
   1063          }

   \                                 In  segment BANKED_CODE, align 1, keep-with-next
   \                     ??Subroutine142_0:
   \   000000   E8           MOV     A,R0
   \   000001   75F007       MOV     B,#0x7
   \   000004   A4           MUL     AB
   \   000005   F8           MOV     R0,A
   \   000006   AAF0         MOV     R2,B
   \   000008   75F007       MOV     B,#0x7
   \   00000B   E9           MOV     A,R1
   \   00000C   A4           MUL     AB
   \   00000D   2A           ADD     A,R2
   \   00000E   F9           MOV     R1,A
   \   00000F   90....       MOV     DPTR,#ZDSecMgrCtrlData
   \   000012   22           RET
   1064          
   1065          /******************************************************************************
   1066           * @fn          ZDSecMgrCtrlSet
   1067           *
   1068           * @brief       Set control data.
   1069           *
   1070           * @param       device - [in] valid device data
   1071           * @param       entry  - [in] valid entry data
   1072           * @param       ctrl   - [in] valid control data
   1073           *
   1074           * @return      none
   1075           */

   \                                 In  segment BANKED_CODE, align 1, keep-with-next
   1076          void ZDSecMgrCtrlSet( ZDSecMgrDevice_t* device,
   \                     ZDSecMgrCtrlSet:
   1077                                ZDSecMgrEntry_t*  entry,
   1078                                ZDSecMgrCtrl_t*   ctrl )
   1079          {
   \   000000   74F7         MOV     A,#-0x9
   \   000002   12....       LCALL   ?BANKED_ENTER_XDATA
   \   000005                ; Saved register size: 9
   \   000005                ; Auto size: 0
   \   000005   7409         MOV     A,#0x9
   \   000007   12....       LCALL   ?XSTACK_DISP0_8
   \   00000A   12....       LCALL   ??Subroutine160_0 & 0xFFFF
   1080            // set control date
   1081            ctrl->parentAddr = device->parentAddr;
   \                     ??CrossCallReturnLabel_357:
   \   00000D   8A82         MOV     DPL,R2
   \   00000F   8B83         MOV     DPH,R3
   \   000011   A3           INC     DPTR
   \   000012   A3           INC     DPTR
   \   000013   A3           INC     DPTR
   \   000014   A3           INC     DPTR
   \   000015   E0           MOVX    A,@DPTR
   \   000016   FE           MOV     R6,A
   \   000017   A3           INC     DPTR
   \   000018   E0           MOVX    A,@DPTR
   \   000019   FF           MOV     R7,A
   \   00001A   8882         MOV     DPL,R0
   \   00001C   8983         MOV     DPH,R1
   \   00001E   A3           INC     DPTR
   \   00001F   A3           INC     DPTR
   \   000020   EE           MOV     A,R6
   \   000021   F0           MOVX    @DPTR,A
   \   000022   A3           INC     DPTR
   \   000023   EF           MOV     A,R7
   \   000024   12....       LCALL   ?Subroutine94 & 0xFFFF
   1082            ctrl->secure     = device->secure;
   \                     ??CrossCallReturnLabel_144:
   \   000027   E0           MOVX    A,@DPTR
   \   000028   8882         MOV     DPL,R0
   \   00002A   8983         MOV     DPH,R1
   \   00002C   A3           INC     DPTR
   \   00002D   A3           INC     DPTR
   \   00002E   A3           INC     DPTR
   \   00002F   A3           INC     DPTR
   \   000030   12....       LCALL   ?Subroutine97 & 0xFFFF
   1083            ctrl->entry      = entry;
   \                     ??CrossCallReturnLabel_146:
   \   000033   EC           MOV     A,R4
   \   000034   F0           MOVX    @DPTR,A
   \   000035   A3           INC     DPTR
   \   000036   ED           MOV     A,R5
   \   000037   12....       LCALL   ?Subroutine30 & 0xFFFF
   1084            ctrl->state      = ZDSECMGR_CTRL_INIT;
   \                     ??CrossCallReturnLabel_35:
   \   00003A   7401         MOV     A,#0x1
   \   00003C   12....       LCALL   ?Subroutine30 & 0xFFFF
   1085            ctrl->cntr       = 0;
   \                     ??CrossCallReturnLabel_36:
   \   00003F   A3           INC     DPTR
   \   000040   E4           CLR     A
   \   000041   12....       LCALL   ?Subroutine27 & 0xFFFF
   1086          
   1087            // set device pointer
   1088            device->ctrl = ctrl;
   \                     ??CrossCallReturnLabel_29:
   \   000044   A3           INC     DPTR
   \   000045   12....       LCALL   ??Subroutine130_0 & 0xFFFF
   1089          }
   \                     ??CrossCallReturnLabel_227:
   \   000048   02....       LJMP    ??Subroutine147_0 & 0xFFFF

   \                                 In  segment BANKED_CODE, align 1, keep-with-next
   \                     ?Subroutine30:
   \   000000   12....       LCALL   ?Subroutine97 & 0xFFFF
   \                     ??CrossCallReturnLabel_147:
   \   000003   A3           INC     DPTR
   \   000004   A3           INC     DPTR
   \   000005   A3           INC     DPTR
   \   000006   A3           INC     DPTR
   \   000007   A3           INC     DPTR
   \   000008   22           RET

   \                                 In  segment BANKED_CODE, align 1, keep-with-next
   \                     ?Subroutine97:
   \   000000   F0           MOVX    @DPTR,A
   \   000001                ; Setup parameters for call to function AssocGetWithExt
   \   000001   8882         MOV     DPL,R0
   \   000003   8983         MOV     DPH,R1
   \   000005   22           RET

   \                                 In  segment BANKED_CODE, align 1, keep-with-next
   \                     ?Subroutine27:
   \   000000   12....       LCALL   ?Subroutine94 & 0xFFFF
   \                     ??CrossCallReturnLabel_145:
   \   000003   A3           INC     DPTR
   \   000004   22           RET

   \                                 In  segment BANKED_CODE, align 1, keep-with-next
   \                     ?Subroutine94:
   \   000000   F0           MOVX    @DPTR,A
   \   000001   8A82         MOV     DPL,R2
   \   000003   8B83         MOV     DPH,R3
   \   000005   A3           INC     DPTR
   \   000006   A3           INC     DPTR
   \   000007   A3           INC     DPTR
   \   000008   A3           INC     DPTR
   \   000009   A3           INC     DPTR
   \   00000A   A3           INC     DPTR
   \   00000B   22           RET
   1090          
   1091          /******************************************************************************
   1092           * @fn          ZDSecMgrCtrlAdd
   1093           *
   1094           * @brief       Add control data.
   1095           *
   1096           * @param       device - [in] valid device data
   1097           * @param       entry  - [in] valid entry data
   1098           *
   1099           * @return      ZStatus_t
   1100           */

   \                                 In  segment BANKED_CODE, align 1, keep-with-next
   1101          ZStatus_t ZDSecMgrCtrlAdd( ZDSecMgrDevice_t* device, ZDSecMgrEntry_t*  entry )
   \                     ZDSecMgrCtrlAdd:
   1102          {
   \   000000   74F6         MOV     A,#-0xa
   \   000002   12....       LCALL   ?BANKED_ENTER_XDATA
   \   000005                ; Saved register size: 10
   \   000005                ; Auto size: 0
   1103            uint16 index;
   1104          
   1105            // verify data is available
   1106            if ( ZDSecMgrCtrlData != NULL )
   \   000005   90....       MOV     DPTR,#ZDSecMgrCtrlData
   \   000008   12....       LCALL   ??Subroutine155_0 & 0xFFFF
   \                     ??CrossCallReturnLabel_326:
   \   00000B   6056         JZ      ??ZDSecMgrCtrlAdd_0
   1107            {
   1108              // look for an empty slot
   1109              for ( index = 0; index < ZDSECMGR_CTRL_MAX; index++ )
   \   00000D   7800         MOV     R0,#0x0
   \   00000F   7900         MOV     R1,#0x0
   1110              {
   1111                if ( ZDSecMgrCtrlData[index].state == ZDSECMGR_CTRL_NONE )
   \                     ??ZDSecMgrCtrlAdd_1:
   \   000011   E8           MOV     A,R0
   \   000012   FE           MOV     R6,A
   \   000013   E9           MOV     A,R1
   \   000014   FF           MOV     R7,A
   \   000015   EE           MOV     A,R6
   \   000016   75F007       MOV     B,#0x7
   \   000019   A4           MUL     AB
   \   00001A   FE           MOV     R6,A
   \   00001B   85F0..       MOV     ?V0 + 0,B
   \   00001E   75F007       MOV     B,#0x7
   \   000021   EF           MOV     A,R7
   \   000022   A4           MUL     AB
   \   000023   25..         ADD     A,?V0 + 0
   \   000025   FF           MOV     R7,A
   \   000026   90....       MOV     DPTR,#ZDSecMgrCtrlData
   \   000029   12....       LCALL   ?Subroutine106 & 0xFFFF
   \                     ??CrossCallReturnLabel_166:
   \   00002C   A3           INC     DPTR
   \   00002D   A3           INC     DPTR
   \   00002E   A3           INC     DPTR
   \   00002F   A3           INC     DPTR
   \   000030   A3           INC     DPTR
   \   000031   E0           MOVX    A,@DPTR
   \   000032   702A         JNZ     ??ZDSecMgrCtrlAdd_2
   1112                {
   1113                  // return successful results
   1114                  ZDSecMgrCtrlSet( device, entry, &ZDSecMgrCtrlData[index] );
   \   000034                ; Setup parameters for call to function ZDSecMgrCtrlSet
   \   000034   E8           MOV     A,R0
   \   000035   75F007       MOV     B,#0x7
   \   000038   A4           MUL     AB
   \   000039   F8           MOV     R0,A
   \   00003A   AEF0         MOV     R6,B
   \   00003C   75F007       MOV     B,#0x7
   \   00003F   E9           MOV     A,R1
   \   000040   A4           MUL     AB
   \   000041   2E           ADD     A,R6
   \   000042   F9           MOV     R1,A
   \   000043   90....       MOV     DPTR,#ZDSecMgrCtrlData
   \   000046   E0           MOVX    A,@DPTR
   \   000047   28           ADD     A,R0
   \   000048   A3           INC     DPTR
   \   000049   E0           MOVX    A,@DPTR
   \   00004A   39           ADDC    A,R1
   \   00004B   F5..         MOV     ?V0 + 1,A
   \   00004D   78..         MOV     R0,#?V0 + 0
   \   00004F   12....       LCALL   ?PUSH_XSTACK_I_TWO
   \   000052   12....       LCALL   ??ZDSecMgrCtrlSet?relay
   \   000055   7402         MOV     A,#0x2
   \   000057   12....       LCALL   ?DEALLOC_XSTACK8
   1115          
   1116                  // break from loop
   1117                  return ZSuccess;
   \   00005A   7900         MOV     R1,#0x0
   \   00005C   8007         SJMP    ??ZDSecMgrCtrlAdd_3
   1118                }
   1119              }
   \                     ??ZDSecMgrCtrlAdd_2:
   \   00005E   12....       LCALL   ?Subroutine38 & 0xFFFF
   1120            }
   \                     ??CrossCallReturnLabel_57:
   \   000061   40AE         JC      ??ZDSecMgrCtrlAdd_1
   1121          
   1122            return ZNwkUnknownDevice;
   \                     ??ZDSecMgrCtrlAdd_0:
   \   000063   79C8         MOV     R1,#-0x38
   \                     ??ZDSecMgrCtrlAdd_3:
   \   000065   02....       LJMP    ??Subroutine135_0 & 0xFFFF
   1123          }
   1124          
   1125          /******************************************************************************
   1126           * @fn          ZDSecMgrCtrlTerm
   1127           *
   1128           * @brief       Terminate device control.
   1129           *
   1130           * @param       entry - [in] valid entry data
   1131           *
   1132           * @return      none
   1133           */

   \                                 In  segment BANKED_CODE, align 1, keep-with-next
   1134          void ZDSecMgrCtrlTerm( ZDSecMgrEntry_t* entry )
   \                     ZDSecMgrCtrlTerm:
   1135          {
   \   000000   C082         PUSH    DPL
   \   000002   C083         PUSH    DPH
   \   000004                ; Saved register size: 2
   \   000004                ; Auto size: 2
   \   000004   74FE         MOV     A,#-0x2
   \   000006   12....       LCALL   ?ALLOC_XSTACK8
   1136            ZDSecMgrCtrl_t* ctrl;
   1137          
   1138            // remove device from control data
   1139            ZDSecMgrCtrlLookup ( entry, &ctrl );
   \   000009                ; Setup parameters for call to function ZDSecMgrCtrlLookup
   \   000009   85..82       MOV     DPL,?XSP + 0
   \   00000C   85..83       MOV     DPH,?XSP + 1
   \   00000F   AC82         MOV     R4,DPL
   \   000011   AD83         MOV     R5,DPH
   \   000013   12....       LCALL   ??Subroutine153_0 & 0xFFFF
   1140          
   1141            if ( ctrl != NULL )
   \                     ??CrossCallReturnLabel_322:
   \   000016   6005         JZ      ??ZDSecMgrCtrlTerm_0
   1142            {
   1143              ZDSecMgrCtrlRelease ( ctrl );
   \   000018   12....       LCALL   ?Subroutine65 & 0xFFFF
   \                     ??CrossCallReturnLabel_217:
   \   00001B   E4           CLR     A
   \   00001C   F0           MOVX    @DPTR,A
   1144            }
   1145          }
   \                     ??ZDSecMgrCtrlTerm_0:
   \   00001D   7402         MOV     A,#0x2
   \   00001F   80..         SJMP    ??Subroutine128_0

   \                                 In  segment BANKED_CODE, align 1, keep-with-next
   \                     ??Subroutine128_0:
   \   000000   12....       LCALL   ?DEALLOC_XSTACK8
   \   000003   02....       LJMP    ??Subroutine139_0 & 0xFFFF

   \                                 In  segment BANKED_CODE, align 1, keep-with-next
   \                     ??Subroutine153_0:
   \   000000   12....       LCALL   ??ZDSecMgrCtrlLookup?relay
   \   000003                REQUIRE ??Subroutine154_0
   \   000003                ; // Fall through to label ??Subroutine154_0

   \                                 In  segment BANKED_CODE, align 1, keep-with-next
   \                     ??Subroutine154_0:
   \   000000   85..82       MOV     DPL,?XSP + 0
   \   000003   85..83       MOV     DPH,?XSP + 1
   \   000006                REQUIRE ??Subroutine155_0
   \   000006                ; // Fall through to label ??Subroutine155_0
   1146          
   1147          /******************************************************************************
   1148           * @fn          ZDSecMgrCtrlReset
   1149           *
   1150           * @brief       Reset control data.
   1151           *
   1152           * @param       device - [in] valid device data
   1153           * @param       entry  - [in] valid entry data
   1154           *
   1155           * @return      ZStatus_t
   1156           */

   \                                 In  segment BANKED_CODE, align 1, keep-with-next
   1157          ZStatus_t ZDSecMgrCtrlReset( ZDSecMgrDevice_t* device, ZDSecMgrEntry_t* entry )
   \                     ZDSecMgrCtrlReset:
   1158          {
   \   000000   74F6         MOV     A,#-0xa
   \   000002   12....       LCALL   ?BANKED_ENTER_XDATA
   \   000005                ; Saved register size: 10
   \   000005                ; Auto size: 2
   \   000005   74FE         MOV     A,#-0x2
   \   000007   12....       LCALL   ?ALLOC_XSTACK8
   \   00000A   8A..         MOV     ?V0 + 0,R2
   \   00000C   8B..         MOV     ?V0 + 1,R3
   \   00000E   EC           MOV     A,R4
   \   00000F   FE           MOV     R6,A
   \   000010   ED           MOV     A,R5
   \   000011   FF           MOV     R7,A
   1159            ZStatus_t       status;
   1160            ZDSecMgrCtrl_t* ctrl;
   1161          
   1162            // initialize results
   1163            status = ZNwkUnknownDevice;
   1164          
   1165            // look for a match for the entry
   1166            ZDSecMgrCtrlLookup( entry, &ctrl );
   \   000012                ; Setup parameters for call to function ZDSecMgrCtrlLookup
   \   000012   85..82       MOV     DPL,?XSP + 0
   \   000015   85..83       MOV     DPH,?XSP + 1
   \   000018   AC82         MOV     R4,DPL
   \   00001A   AD83         MOV     R5,DPH
   \   00001C   EE           MOV     A,R6
   \   00001D   FA           MOV     R2,A
   \   00001E   EF           MOV     A,R7
   \   00001F   12....       LCALL   ?Subroutine51 & 0xFFFF
   1167          
   1168            if ( ctrl != NULL )
   \                     ??CrossCallReturnLabel_320:
   \   000022   601D         JZ      ??ZDSecMgrCtrlReset_0
   1169            {
   1170              ZDSecMgrCtrlSet( device, entry, ctrl );
   \   000024                ; Setup parameters for call to function ZDSecMgrCtrlSet
   \   000024   85..82       MOV     DPL,?XSP + 0
   \   000027   85..83       MOV     DPH,?XSP + 1
   \   00002A   12....       LCALL   ?PUSH_XSTACK8_X_TWO
   \   00002D   EE           MOV     A,R6
   \   00002E   FC           MOV     R4,A
   \   00002F   EF           MOV     A,R7
   \   000030   FD           MOV     R5,A
   \   000031   AA..         MOV     R2,?V0 + 0
   \   000033   AB..         MOV     R3,?V0 + 1
   \   000035   12....       LCALL   ??ZDSecMgrCtrlSet?relay
   \   000038   7402         MOV     A,#0x2
   \   00003A   12....       LCALL   ?DEALLOC_XSTACK8
   1171          
   1172              status = ZSuccess;
   \   00003D   7900         MOV     R1,#0x0
   \   00003F   800B         SJMP    ??ZDSecMgrCtrlReset_1
   1173            }
   1174            else
   1175            {
   1176              status = ZDSecMgrCtrlAdd( device, entry );
   \                     ??ZDSecMgrCtrlReset_0:
   \   000041                ; Setup parameters for call to function ZDSecMgrCtrlAdd
   \   000041   EE           MOV     A,R6
   \   000042   FC           MOV     R4,A
   \   000043   EF           MOV     A,R7
   \   000044   FD           MOV     R5,A
   \   000045   AA..         MOV     R2,?V0 + 0
   \   000047   AB..         MOV     R3,?V0 + 1
   \   000049   12....       LCALL   ??ZDSecMgrCtrlAdd?relay
   1177            }
   1178          
   1179            return status;
   \                     ??ZDSecMgrCtrlReset_1:
   \   00004C   02....       LJMP    ?Subroutine0 & 0xFFFF
   1180          }

   \                                 In  segment BANKED_CODE, align 1, keep-with-next
   \                     ?Subroutine51:
   \   000000   FB           MOV     R3,A
   \   000001                REQUIRE ??Subroutine153_0
   \   000001                ; // Fall through to label ??Subroutine153_0
   1181          
   1182          /******************************************************************************
   1183           * @fn          ZDSecMgrMasterKeyLoad
   1184           *
   1185           * @brief       Load the MASTER key for device with specified EXT
   1186           *              address.
   1187           *
   1188           * @param       extAddr - [in] EXT address of device
   1189           * @param       key     - [in] MASTER key shared with device
   1190           *
   1191           * @return      ZStatus_t
   1192           */

   \                                 In  segment BANKED_CODE, align 1, keep-with-next
   1193          ZStatus_t ZDSecMgrMasterKeyLoad( uint8* extAddr, uint8* key )
   \                     ZDSecMgrMasterKeyLoad:
   1194          {
   \   000000   74F6         MOV     A,#-0xa
   \   000002   12....       LCALL   ?BANKED_ENTER_XDATA
   \   000005                ; Saved register size: 10
   \   000005                ; Auto size: 4
   \   000005   74FC         MOV     A,#-0x4
   \   000007   12....       LCALL   ?ALLOC_XSTACK8
   \   00000A   8C..         MOV     ?V0 + 0,R4
   \   00000C   8D..         MOV     ?V0 + 1,R5
   1195            ZStatus_t status;
   1196            uint16 ami;
   1197            uint16 keyNvId;
   1198          
   1199            // set status based on policy
   1200            status = ZDSecMgrExtAddrLookup( extAddr, &ami );
   \   00000E                ; Setup parameters for call to function ZDSecMgrExtAddrLookup
   \   00000E   12....       LCALL   ?Subroutine86 & 0xFFFF
   \                     ??CrossCallReturnLabel_212:
   \   000011   FE           MOV     R6,A
   1201          
   1202            if ( status == ZSuccess )
   \   000012   7037         JNZ     ??ZDSecMgrMasterKeyLoad_0
   1203            {
   1204              // get the address NV ID
   1205              if ( ZDSecMgrMasterKeyLookup( ami, &keyNvId ) == ZSuccess )
   \   000014                ; Setup parameters for call to function ZDSecMgrMasterKeyLookup
   \   000014   7402         MOV     A,#0x2
   \   000016   12....       LCALL   ?XSTACK_DISP0_8
   \   000019   12....       LCALL   ?Subroutine53 & 0xFFFF
   \                     ??CrossCallReturnLabel_261:
   \   00001C   7024         JNZ     ??ZDSecMgrMasterKeyLoad_1
   1206              {
   1207                // overwrite old key in NV
   1208                osal_nv_write( keyNvId, osal_offsetof(ZDSecMgrMasterKeyData_t, key),
   1209                               SEC_KEY_LEN, key );
   \   00001E                ; Setup parameters for call to function osal_nv_write
   \   00001E   78..         MOV     R0,#?V0 + 0
   \   000020   12....       LCALL   ?PUSH_XSTACK_I_TWO
   \   000023   75..10       MOV     ?V0 + 0,#0x10
   \   000026   75..00       MOV     ?V0 + 1,#0x0
   \   000029   78..         MOV     R0,#?V0 + 0
   \   00002B   12....       LCALL   ?PUSH_XSTACK_I_TWO
   \   00002E   7C02         MOV     R4,#0x2
   \   000030   7D00         MOV     R5,#0x0
   \   000032   7406         MOV     A,#0x6
   \   000034   12....       LCALL   ?XSTACK_DISP0_8
   \   000037   12....       LCALL   ??Subroutine133_0 & 0xFFFF
   1210              }
   \                     ??CrossCallReturnLabel_255:
   \   00003A   12....       LCALL   ??Subroutine121_0 & 0xFFFF
   \                     ??CrossCallReturnLabel_189:
   \   00003D   12....       LCALL   ?DEALLOC_XSTACK8
   \   000040   8009         SJMP    ??ZDSecMgrMasterKeyLoad_0
   1211              else
   1212              {
   1213                // store new key -- NULL will zero key
   1214                status = ZDSecMgrMasterKeyStore( ami, key );
   \                     ??ZDSecMgrMasterKeyLoad_1:
   \   000042                ; Setup parameters for call to function ZDSecMgrMasterKeyStore
   \   000042   AC..         MOV     R4,?V0 + 0
   \   000044   AD..         MOV     R5,?V0 + 1
   \   000046   12....       LCALL   ?Subroutine74 & 0xFFFF
   1215              }
   1216            }
   \                     ??CrossCallReturnLabel_115:
   \   000049   E9           MOV     A,R1
   \   00004A   FE           MOV     R6,A
   1217          
   1218            return status;
   \                     ??ZDSecMgrMasterKeyLoad_0:
   \   00004B   EE           MOV     A,R6
   \   00004C   F9           MOV     R1,A
   \   00004D   7404         MOV     A,#0x4
   \   00004F   02....       LJMP    ??Subroutine134_0 & 0xFFFF
   1219          }

   \                                 In  segment BANKED_CODE, align 1, keep-with-next
   \                     ?Subroutine53:
   \   000000   AC82         MOV     R4,DPL
   \   000002   AD83         MOV     R5,DPH
   \   000004   85..82       MOV     DPL,?XSP + 0
   \   000007   85..83       MOV     DPH,?XSP + 1
   \   00000A                REQUIRE ??Subroutine136_0
   \   00000A                ; // Fall through to label ??Subroutine136_0

   \                                 In  segment BANKED_CODE, align 1, keep-with-next
   \                     ??Subroutine136_0:
   \   000000   12....       LCALL   ??Subroutine157_0 & 0xFFFF
   \                     ??CrossCallReturnLabel_354:
   \   000003   12....       LCALL   ??ZDSecMgrMasterKeyLookup?relay
   \   000006   E9           MOV     A,R1
   \   000007   22           RET

   \                                 In  segment BANKED_CODE, align 1, keep-with-next
   \                     ?Subroutine74:
   \   000000   12....       LCALL   ?Subroutine102 & 0xFFFF
   \                     ??CrossCallReturnLabel_352:
   \   000003   12....       LCALL   ??ZDSecMgrMasterKeyStore?relay
   \   000006   22           RET

   \                                 In  segment BANKED_CODE, align 1, keep-with-next
   \                     ?Subroutine102:
   \   000000   85..82       MOV     DPL,?XSP + 0
   \   000003   85..83       MOV     DPH,?XSP + 1
   \   000006                REQUIRE ??Subroutine157_0
   \   000006                ; // Fall through to label ??Subroutine157_0
   1220          
   1221          /******************************************************************************
   1222           * @fn          ZDSecMgrAppKeyGet
   1223           *
   1224           * @brief       get an APP key - option APP(MASTER or LINK) key
   1225           *
   1226           * @param       initNwkAddr - [in] NWK address of initiator device
   1227           * @param       initExtAddr - [in] EXT address of initiator device
   1228           * @param       partNwkAddr - [in] NWK address of partner device
   1229           * @param       partExtAddr - [in] EXT address of partner device
   1230           * @param       key         - [out] APP(MASTER or LINK) key
   1231           * @param       keyType     - [out] APP(MASTER or LINK) key type
   1232           *
   1233           * @return      ZStatus_t
   1234           */

   \                                 In  segment XDATA_I, align 1, keep-with-next
   1235          uint8 ZDSecMgrAppKeyType = KEY_TYPE_APP_LINK;    // Set the default key type
   \                     ZDSecMgrAppKeyType:
   \   000000                DS 1
   \   000001                REQUIRE `?<Initializer for ZDSecMgrAppKeyType>`
   \   000001                REQUIRE __INIT_XDATA_I
   1236                                                           // to KEY_TYPE_APP_LINK since
   1237                                                           // only specific requirement
   1238                                                           // right now comes from SE profile
   1239          

   \                                 In  segment BANKED_CODE, align 1, keep-with-next
   1240          ZStatus_t ZDSecMgrAppKeyGet( uint16  initNwkAddr,
   \                     ZDSecMgrAppKeyGet:
   1241                                       uint8*  initExtAddr,
   1242                                       uint16  partNwkAddr,
   1243                                       uint8*  partExtAddr,
   1244                                       uint8** key,
   1245                                       uint8*  keyType )
   1246          {
   \   000000   74F7         MOV     A,#-0x9
   \   000002   12....       LCALL   ?BANKED_ENTER_XDATA
   \   000005                ; Saved register size: 9
   \   000005                ; Auto size: 0
   \   000005   740D         MOV     A,#0xd
   \   000007   12....       LCALL   ?XSTACK_DISP0_8
   \   00000A   12....       LCALL   ?Subroutine72 & 0xFFFF
   \                     ??CrossCallReturnLabel_112:
   \   00000D   FA           MOV     R2,A
   \   00000E   E9           MOV     A,R1
   \   00000F   FB           MOV     R3,A
   \   000010   740F         MOV     A,#0xf
   \   000012   12....       LCALL   ?XSTACK_DISP0_8
   \   000015   12....       LCALL   ?Subroutine72 & 0xFFFF
   \                     ??CrossCallReturnLabel_113:
   \   000018   FE           MOV     R6,A
   \   000019   E9           MOV     A,R1
   \   00001A   FF           MOV     R7,A
   1247            // Intentionally unreferenced parameters
   1248            (void)initNwkAddr;
   1249            (void)initExtAddr;
   1250            (void)partNwkAddr;
   1251            (void)partExtAddr;
   1252          
   1253            //---------------------------------------------------------------------------
   1254            // note:
   1255            // should use a robust mechanism to generate keys, for example
   1256            // combine EXT addresses and call a hash function
   1257            //---------------------------------------------------------------------------
   1258            SSP_GetTrueRand( SEC_KEY_LEN, *key );
   \   00001B                ; Setup parameters for call to function SSP_GetTrueRand
   \   00001B   8A82         MOV     DPL,R2
   \   00001D   8B83         MOV     DPH,R3
   \   00001F   12....       LCALL   ??Subroutine150_0 & 0xFFFF
   \                     ??CrossCallReturnLabel_302:
   \   000022   7910         MOV     R1,#0x10
   \   000024   12....       LCALL   ??SSP_GetTrueRand?relay
   1259          
   1260            *keyType = ZDSecMgrAppKeyType;
   \   000027   90....       MOV     DPTR,#ZDSecMgrAppKeyType
   \   00002A   E0           MOVX    A,@DPTR
   \   00002B   8E82         MOV     DPL,R6
   \   00002D   8F83         MOV     DPH,R7
   \   00002F   F0           MOVX    @DPTR,A
   1261          
   1262            return ZSuccess;
   \   000030   7900         MOV     R1,#0x0
   \   000032   02....       LJMP    ??Subroutine147_0 & 0xFFFF
   1263          }

   \                                 In  segment BANKED_CODE, align 1, keep-with-next
   \                     ?Subroutine72:
   \   000000   12....       LCALL   ?Subroutine108 & 0xFFFF
   \                     ??CrossCallReturnLabel_367:
   \   000003   E8           MOV     A,R0
   \   000004   22           RET
   1264          
   1265          /******************************************************************************
   1266           * @fn          ZDSecMgrAppKeyReq
   1267           *
   1268           * @brief       Process request for APP key between two devices.
   1269           *
   1270           * @param       device - [in] ZDO_RequestKeyInd_t, request info
   1271           *
   1272           * @return      none
   1273           */

   \                                 In  segment BANKED_CODE, align 1, keep-with-next
   1274          void ZDSecMgrAppKeyReq( ZDO_RequestKeyInd_t* ind )
   \                     ZDSecMgrAppKeyReq:
   1275          {
   \   000000   74F7         MOV     A,#-0x9
   \   000002   12....       LCALL   ?BANKED_ENTER_XDATA
   \   000005                ; Saved register size: 9
   \   000005                ; Auto size: 39
   \   000005   74D9         MOV     A,#-0x27
   \   000007   12....       LCALL   ?ALLOC_XSTACK8
   \   00000A   EA           MOV     A,R2
   \   00000B   FE           MOV     R6,A
   \   00000C   EB           MOV     A,R3
   \   00000D   FF           MOV     R7,A
   1276            APSME_TransportKeyReq_t req;
   1277            uint8                   initExtAddr[Z_EXTADDR_LEN];
   1278            uint16                  partNwkAddr;
   1279            uint8                   key[SEC_KEY_LEN];
   1280          
   1281          
   1282            // validate initiator and partner
   1283            if ( ( APSME_LookupNwkAddr( ind->partExtAddr, &partNwkAddr ) == TRUE ) &&
   1284                 ( APSME_LookupExtAddr( ind->srcAddr, initExtAddr ) == TRUE      )   )
   \   00000E                ; Setup parameters for call to function APSME_LookupNwkAddr
   \   00000E   85..82       MOV     DPL,?XSP + 0
   \   000011   85..83       MOV     DPH,?XSP + 1
   \   000014   AC82         MOV     R4,DPL
   \   000016   AD83         MOV     R5,DPH
   \   000018   EE           MOV     A,R6
   \   000019   2405         ADD     A,#0x5
   \   00001B   12....       LCALL   ?Subroutine50 & 0xFFFF
   \                     ??CrossCallReturnLabel_76:
   \   00001E   6003         JZ      $+5
   \   000020   02....       LJMP    ??ZDSecMgrAppKeyReq_0 & 0xFFFF
   \   000023                ; Setup parameters for call to function APSME_LookupExtAddr
   \   000023   740F         MOV     A,#0xf
   \   000025   12....       LCALL   ?XSTACK_DISP0_8
   \   000028   12....       LCALL   ?Subroutine77 & 0xFFFF
   \                     ??CrossCallReturnLabel_309:
   \   00002B   12....       LCALL   ??APSME_LookupExtAddr?relay
   \   00002E   E9           MOV     A,R1
   \   00002F   6401         XRL     A,#0x1
   \   000031   6003         JZ      $+5
   \   000033   02....       LJMP    ??ZDSecMgrAppKeyReq_0 & 0xFFFF
   1285            {
   1286              // point the key to some memory
   1287              req.key = key;
   \   000036   7417         MOV     A,#0x17
   \   000038   12....       LCALL   ?XSTACK_DISP0_8
   \   00003B   A882         MOV     R0,DPL
   \   00003D   A983         MOV     R1,DPH
   \   00003F   7406         MOV     A,#0x6
   \   000041   12....       LCALL   ?XSTACK_DISP0_8
   \   000044   12....       LCALL   ??Subroutine130_0 & 0xFFFF
   1288          
   1289              // get an APP key - option APP (MASTER or LINK) key
   1290              if ( ZDSecMgrAppKeyGet( ind->srcAddr,
   1291                                      initExtAddr,
   1292                                      partNwkAddr,
   1293                                      ind->partExtAddr,
   1294                                      &req.key,
   1295                                      &req.keyType ) == ZSuccess )
   \                     ??CrossCallReturnLabel_228:
   \   000047                ; Setup parameters for call to function SSP_GetTrueRand
   \   000047   7417         MOV     A,#0x17
   \   000049   12....       LCALL   ?XSTACK_DISP0_8
   \   00004C   AA82         MOV     R2,DPL
   \   00004E   AB83         MOV     R3,DPH
   \   000050   7910         MOV     R1,#0x10
   \   000052   12....       LCALL   ??SSP_GetTrueRand?relay
   \   000055   90....       MOV     DPTR,#ZDSecMgrAppKeyType
   \   000058   E0           MOVX    A,@DPTR
   \   000059   C0E0         PUSH    A
   \   00005B   7404         MOV     A,#0x4
   \   00005D   12....       LCALL   ?XSTACK_DISP0_8
   \   000060   D0E0         POP     A
   \   000062   F0           MOVX    @DPTR,A
   1296              {
   1297                // always secure
   1298                req.nwkSecure = TRUE;
   \   000063   740C         MOV     A,#0xc
   \   000065   12....       LCALL   ?XSTACK_DISP0_8
   \   000068   7401         MOV     A,#0x1
   \   00006A   F0           MOVX    @DPTR,A
   1299                req.apsSecure = TRUE;
   \   00006B   740B         MOV     A,#0xb
   \   00006D   12....       LCALL   ?XSTACK_DISP0_8
   \   000070   7401         MOV     A,#0x1
   \   000072   F0           MOVX    @DPTR,A
   1300                req.tunnel    = NULL;
   \   000073   740D         MOV     A,#0xd
   \   000075   12....       LCALL   ?XSTACK_DISP0_8
   \   000078   12....       LCALL   ?Subroutine22 & 0xFFFF
   1301          
   1302                // send key to initiator device
   1303                req.dstAddr   = ind->srcAddr;
   \                     ??CrossCallReturnLabel_19:
   \   00007B   7402         MOV     A,#0x2
   \   00007D   12....       LCALL   ?XSTACK_DISP0_8
   \   000080   12....       LCALL   ??Subroutine130_0 & 0xFFFF
   1304                req.extAddr   = ind->partExtAddr;
   \                     ??CrossCallReturnLabel_229:
   \   000083   EE           MOV     A,R6
   \   000084   2405         ADD     A,#0x5
   \   000086   F8           MOV     R0,A
   \   000087   EF           MOV     A,R7
   \   000088   3400         ADDC    A,#0x0
   \   00008A   F9           MOV     R1,A
   \   00008B   7408         MOV     A,#0x8
   \   00008D   12....       LCALL   ?XSTACK_DISP0_8
   \   000090   12....       LCALL   ?Subroutine20 & 0xFFFF
   1305                req.initiator = TRUE;
   \                     ??CrossCallReturnLabel_12:
   \   000093   12....       LCALL   ?XSTACK_DISP0_8
   \   000096   7401         MOV     A,#0x1
   \   000098   F0           MOVX    @DPTR,A
   1306                APSME_TransportKeyReq( &req );
   \   000099                ; Setup parameters for call to function APSME_TransportKeyReq
   \   000099   04           INC     A
   \   00009A   12....       LCALL   ?XSTACK_DISP0_8
   \   00009D   AA82         MOV     R2,DPL
   \   00009F   AB83         MOV     R3,DPH
   \   0000A1   12....       LCALL   ??APSME_TransportKeyReq?relay
   1307          
   1308                // send key to partner device
   1309                req.dstAddr   = partNwkAddr;
   \   0000A4   85..82       MOV     DPL,?XSP + 0
   \   0000A7   85..83       MOV     DPH,?XSP + 1
   \   0000AA   12....       LCALL   ??Subroutine138_0 & 0xFFFF
   \                     ??CrossCallReturnLabel_270:
   \   0000AD   12....       LCALL   ?XSTACK_DISP0_8
   \   0000B0   12....       LCALL   ??Subroutine130_0 & 0xFFFF
   1310                req.extAddr   = initExtAddr;
   \                     ??CrossCallReturnLabel_230:
   \   0000B3   740F         MOV     A,#0xf
   \   0000B5   12....       LCALL   ?XSTACK_DISP0_8
   \   0000B8   A882         MOV     R0,DPL
   \   0000BA   A983         MOV     R1,DPH
   \   0000BC   7408         MOV     A,#0x8
   \   0000BE   12....       LCALL   ?XSTACK_DISP0_8
   \   0000C1   12....       LCALL   ?Subroutine20 & 0xFFFF
   1311                req.initiator = FALSE;
   \                     ??CrossCallReturnLabel_13:
   \   0000C4   12....       LCALL   ?XSTACK_DISP0_8
   \   0000C7   E4           CLR     A
   \   0000C8   F0           MOVX    @DPTR,A
   1312          
   1313                APSME_TransportKeyReq( &req );
   \   0000C9                ; Setup parameters for call to function APSME_TransportKeyReq
   \   0000C9   7402         MOV     A,#0x2
   \   0000CB   12....       LCALL   ?XSTACK_DISP0_8
   \   0000CE   AA82         MOV     R2,DPL
   \   0000D0   AB83         MOV     R3,DPH
   \   0000D2   12....       LCALL   ??APSME_TransportKeyReq?relay
   1314          
   1315                // clear copy of key in RAM
   1316                osal_memset( key, 0x00, SEC_KEY_LEN);
   \   0000D5                ; Setup parameters for call to function osal_memset
   \   0000D5   7C10         MOV     R4,#0x10
   \   0000D7   7D00         MOV     R5,#0x0
   \   0000D9   7900         MOV     R1,#0x0
   \   0000DB   7417         MOV     A,#0x17
   \   0000DD   12....       LCALL   ?XSTACK_DISP0_8
   \   0000E0   AA82         MOV     R2,DPL
   \   0000E2   AB83         MOV     R3,DPH
   \   0000E4   12....       LCALL   ??osal_memset?relay
   1317          
   1318              }
   1319            }
   1320          }
   \                     ??ZDSecMgrAppKeyReq_0:
   \   0000E7   7427         MOV     A,#0x27
   \   0000E9   02....       LJMP    ??Subroutine146_0 & 0xFFFF

   \                                 In  segment BANKED_CODE, align 1, keep-with-next
   \                     ??Subroutine138_0:
   \   000000   12....       LCALL   ?Subroutine108 & 0xFFFF
   \                     ??CrossCallReturnLabel_368:
   \   000003   7402         MOV     A,#0x2
   \   000005   22           RET

   \                                 In  segment BANKED_CODE, align 1, keep-with-next
   \                     ?Subroutine20:
   \   000000   12....       LCALL   ?Subroutine95 & 0xFFFF
   \                     ??CrossCallReturnLabel_279:
   \   000003                ; Setup parameters for call to function AddrMgrEntryGet
   \   000003                ; Setup parameters for call to function AddrMgrEntryGet
   \   000003   740A         MOV     A,#0xa
   \   000005   22           RET

   \                                 In  segment BANKED_CODE, align 1, keep-with-next
   \                     ?Subroutine77:
   \   000000   AC82         MOV     R4,DPL
   \   000002   AD83         MOV     R5,DPH
   \   000004   8E82         MOV     DPL,R6
   \   000006   8F83         MOV     DPH,R7
   \   000008                REQUIRE ??Subroutine149_0
   \   000008                ; // Fall through to label ??Subroutine149_0

   \                                 In  segment BANKED_CODE, align 1, keep-with-next
   \                     ??Subroutine149_0:
   \   000000   A3           INC     DPTR
   \   000001   A3           INC     DPTR
   \   000002                REQUIRE ??Subroutine150_0
   \   000002                ; // Fall through to label ??Subroutine150_0

   \                                 In  segment BANKED_CODE, align 1, keep-with-next
   \                     ?Subroutine22:
   \   000000   E4           CLR     A
   \   000001   F0           MOVX    @DPTR,A
   \   000002   A3           INC     DPTR
   \   000003   12....       LCALL   ?Subroutine92 & 0xFFFF
   \                     ??CrossCallReturnLabel_142:
   \   000006   22           RET

   \                                 In  segment BANKED_CODE, align 1, keep-with-next
   \                     ?Subroutine92:
   \   000000   F0           MOVX    @DPTR,A
   \   000001   8E82         MOV     DPL,R6
   \   000003   8F83         MOV     DPH,R7
   \   000005   A3           INC     DPTR
   \   000006   A3           INC     DPTR
   \   000007   12....       LCALL   ?Subroutine116 & 0xFFFF
   \                     ??CrossCallReturnLabel_370:
   \   00000A   22           RET

   \                                 In  segment BANKED_CODE, align 1, keep-with-next
   \                     ?Subroutine50:
   \   000000   FA           MOV     R2,A
   \   000001   EF           MOV     A,R7
   \   000002   3400         ADDC    A,#0x0
   \   000004   FB           MOV     R3,A
   \   000005   12....       LCALL   ??APSME_LookupNwkAddr?relay
   \   000008   E9           MOV     A,R1
   \   000009   6401         XRL     A,#0x1
   \   00000B   22           RET
   1321          
   1322          /******************************************************************************
   1323           * @fn          ZDSecMgrEstablishKey
   1324           *
   1325           * @brief       Start SKKE with device joining network.
   1326           *
   1327           * @param       device - [in] ZDSecMgrDevice_t, device info
   1328           *
   1329           * @return      ZStatus_t
   1330           */

   \                                 In  segment BANKED_CODE, align 1, keep-with-next
   1331          ZStatus_t ZDSecMgrEstablishKey( ZDSecMgrDevice_t* device )
   \                     ZDSecMgrEstablishKey:
   1332          {
   \   000000   74F6         MOV     A,#-0xa
   \   000002   12....       LCALL   ?BANKED_ENTER_XDATA
   \   000005                ; Saved register size: 10
   \   000005                ; Auto size: 7
   \   000005   74F9         MOV     A,#-0x7
   \   000007   12....       LCALL   ?ALLOC_XSTACK8
   \   00000A   EA           MOV     A,R2
   \   00000B   FE           MOV     R6,A
   \   00000C   EB           MOV     A,R3
   \   00000D   FF           MOV     R7,A
   1333            ZStatus_t               status;
   1334            APSME_EstablishKeyReq_t req;
   1335          
   1336          
   1337            req.respExtAddr = device->extAddr;
   \   00000E   8E82         MOV     DPL,R6
   \   000010   8F83         MOV     DPH,R7
   \   000012   12....       LCALL   ?Subroutine56 & 0xFFFF
   \                     ??CrossCallReturnLabel_273:
   \   000015   12....       LCALL   ?XSTACK_DISP0_8
   \   000018   12....       LCALL   ??Subroutine130_0 & 0xFFFF
   1338            req.method      = APSME_SKKE_METHOD;
   \                     ??CrossCallReturnLabel_231:
   \   00001B   7404         MOV     A,#0x4
   \   00001D   12....       LCALL   ?XSTACK_DISP0_8
   \   000020   E4           CLR     A
   \   000021   12....       LCALL   ??Subroutine131_0 & 0xFFFF
   1339          
   1340            if ( device->parentAddr == NLME_GetShortAddr() )
   \                     ??CrossCallReturnLabel_247:
   \   000024   7003         JNZ     ??ZDSecMgrEstablishKey_0
   \   000026   A3           INC     DPTR
   \   000027   E0           MOVX    A,@DPTR
   \   000028   69           XRL     A,R1
   \                     ??ZDSecMgrEstablishKey_0:
   \   000029   8E82         MOV     DPL,R6
   \   00002B   8F83         MOV     DPH,R7
   \   00002D   7010         JNZ     ??ZDSecMgrEstablishKey_1
   1341            {
   1342              req.dstAddr   = device->nwkAddr;
   \   00002F   12....       LCALL   ?Subroutine33 & 0xFFFF
   1343              //devtag.0604.todo - remove obsolete
   1344              req.apsSecure = FALSE;
   \                     ??CrossCallReturnLabel_221:
   \   000032   12....       LCALL   ?XSTACK_DISP0_8
   \   000035   E4           CLR     A
   \   000036   F0           MOVX    @DPTR,A
   1345              req.nwkSecure = FALSE;
   \   000037   7406         MOV     A,#0x6
   \   000039   12....       LCALL   ?XSTACK_DISP0_8
   \   00003C   E4           CLR     A
   \   00003D   8014         SJMP    ??ZDSecMgrEstablishKey_2
   1346            }
   1347            else
   1348            {
   1349              req.dstAddr   = device->parentAddr;
   \                     ??ZDSecMgrEstablishKey_1:
   \   00003F   A3           INC     DPTR
   \   000040   A3           INC     DPTR
   \   000041   A3           INC     DPTR
   \   000042   A3           INC     DPTR
   \   000043   12....       LCALL   ?Subroutine33 & 0xFFFF
   1350              //devtag.0604.todo - remove obsolete
   1351              req.apsSecure = TRUE;
   \                     ??CrossCallReturnLabel_222:
   \   000046   12....       LCALL   ?XSTACK_DISP0_8
   \   000049   7401         MOV     A,#0x1
   \   00004B   F0           MOVX    @DPTR,A
   1352              req.nwkSecure = TRUE;
   \   00004C   7406         MOV     A,#0x6
   \   00004E   12....       LCALL   ?XSTACK_DISP0_8
   \   000051   7401         MOV     A,#0x1
   1353            }
   \                     ??ZDSecMgrEstablishKey_2:
   \   000053   12....       LCALL   ??Subroutine141_0 & 0xFFFF
   1354          
   1355            status = APSME_EstablishKeyReq( &req );
   1356          
   1357            return status;
   \                     ??CrossCallReturnLabel_287:
   \   000056   12....       LCALL   ??APSME_EstablishKeyReq?relay
   \   000059   7407         MOV     A,#0x7
   \   00005B   02....       LJMP    ??Subroutine134_0 & 0xFFFF
   1358          }

   \                                 In  segment BANKED_CODE, align 1, keep-with-next
   \                     ?Subroutine33:
   \   000000   12....       LCALL   ?Subroutine100 & 0xFFFF
   \                     ??CrossCallReturnLabel_155:
   \   000003                REQUIRE ??Subroutine129_0
   \   000003                ; // Fall through to label ??Subroutine129_0

   \                                 In  segment BANKED_CODE, align 1, keep-with-next
   \                     ??Subroutine129_0:
   \   000000   12....       LCALL   ?Subroutine95 & 0xFFFF
   \                     ??CrossCallReturnLabel_282:
   \   000003                ; Setup parameters for call to function APSME_RemoveDeviceReq
   \   000003   7405         MOV     A,#0x5
   \   000005   22           RET

   \                                 In  segment BANKED_CODE, align 1, keep-with-next
   \                     ??Subroutine131_0:
   \   000000   F0           MOVX    @DPTR,A
   \   000001                ; Setup parameters for call to function NLME_GetShortAddr
   \   000001                ; Setup parameters for call to function NLME_GetShortAddr
   \   000001                ; Setup parameters for call to function NLME_GetShortAddr
   \   000001                ; Setup parameters for call to function NLME_GetShortAddr
   \   000001   12....       LCALL   ?Subroutine113 & 0xFFFF
   \                     ??CrossCallReturnLabel_249:
   \   000004   22           RET

   \                                 In  segment BANKED_CODE, align 1, keep-with-next
   \                     ?Subroutine113:
   \   000000   12....       LCALL   ??NLME_GetShortAddr?relay
   \   000003   8A..         MOV     ?V0 + 0,R2
   \   000005   8B..         MOV     ?V0 + 1,R3
   \   000007   A8..         MOV     R0,?V0 + 0
   \   000009   A9..         MOV     R1,?V0 + 1
   \   00000B   8E82         MOV     DPL,R6
   \   00000D   8F83         MOV     DPH,R7
   \   00000F   A3           INC     DPTR
   \   000010   A3           INC     DPTR
   \   000011   A3           INC     DPTR
   \   000012   A3           INC     DPTR
   \   000013   E0           MOVX    A,@DPTR
   \   000014   68           XRL     A,R0
   \   000015   22           RET

   \                                 In  segment BANKED_CODE, align 1, keep-with-next
   \                     ?Subroutine56:
   \   000000   A3           INC     DPTR
   \   000001   A3           INC     DPTR
   \   000002                REQUIRE ??Subroutine138_0
   \   000002                ; // Fall through to label ??Subroutine138_0

   \                                 In  segment BANKED_CODE, align 1, keep-with-next
   \                     ??Subroutine141_0:
   \   000000   12....       LCALL   ??Subroutine152_0 & 0xFFFF
   \                     ??CrossCallReturnLabel_319:
   \   000003   22           RET

   \                                 In  segment BANKED_CODE, align 1, keep-with-next
   \                     ?Subroutine100:
   \   000000   12....       LCALL   ?Subroutine116 & 0xFFFF
   \                     ??CrossCallReturnLabel_371:
   \   000003   85..82       MOV     DPL,?XSP + 0
   \   000006   85..83       MOV     DPH,?XSP + 1
   \   000009   22           RET
   1359          
   1360          /******************************************************************************
   1361           * @fn          ZDSecMgrSendMasterKey
   1362           *
   1363           * @brief       Send MASTER key to device joining network.
   1364           *
   1365           * @param       device - [in] ZDSecMgrDevice_t, device info
   1366           *
   1367           * @return      ZStatus_t
   1368           */

   \                                 In  segment BANKED_CODE, align 1, keep-with-next
   1369          ZStatus_t ZDSecMgrSendMasterKey( ZDSecMgrDevice_t* device )
   \                     ZDSecMgrSendMasterKey:
   1370          {
   \   000000   74F6         MOV     A,#-0xa
   \   000002   12....       LCALL   ?BANKED_ENTER_XDATA
   \   000005                ; Saved register size: 10
   \   000005                ; Auto size: 31
   \   000005   74E1         MOV     A,#-0x1f
   \   000007   12....       LCALL   ?ALLOC_XSTACK8
   \   00000A   EA           MOV     A,R2
   \   00000B   FE           MOV     R6,A
   \   00000C   EB           MOV     A,R3
   \   00000D   FF           MOV     R7,A
   1371            ZStatus_t status;
   1372            APSME_TransportKeyReq_t req;
   1373            uint16 keyNvId;
   1374            uint8 masterKey[SEC_KEY_LEN];
   1375          
   1376          
   1377            req.keyType = KEY_TYPE_TC_MASTER;
   \   00000E   7404         MOV     A,#0x4
   \   000010   12....       LCALL   ?XSTACK_DISP0_8
   \   000013   E4           CLR     A
   \   000014   12....       LCALL   ?Subroutine23 & 0xFFFF
   1378            req.extAddr = device->extAddr;
   \                     ??CrossCallReturnLabel_21:
   \   000017   12....       LCALL   ?XSTACK_DISP0_8
   \   00001A   12....       LCALL   ??Subroutine140_0 & 0xFFFF
   1379            req.tunnel  = NULL;
   \                     ??CrossCallReturnLabel_277:
   \   00001D   12....       LCALL   ?XSTACK_DISP0_8
   \   000020   12....       LCALL   ?Subroutine24 & 0xFFFF
   1380          
   1381            if ( ZDSecMgrMasterKeyLookup( device->ctrl->entry->ami, &keyNvId ) == ZSuccess )
   \                     ??CrossCallReturnLabel_23:
   \   000023   8E82         MOV     DPL,R6
   \   000025   8F83         MOV     DPH,R7
   \   000027   A3           INC     DPTR
   \   000028   A3           INC     DPTR
   \   000029   A3           INC     DPTR
   \   00002A   A3           INC     DPTR
   \   00002B   A3           INC     DPTR
   \   00002C   A3           INC     DPTR
   \   00002D   A3           INC     DPTR
   \   00002E   A3           INC     DPTR
   \   00002F   12....       LCALL   ?Subroutine78 & 0xFFFF
   \                     ??CrossCallReturnLabel_121:
   \   000032   12....       LCALL   ??Subroutine143_0 & 0xFFFF
   \                     ??CrossCallReturnLabel_345:
   \   000035   12....       LCALL   ??Subroutine136_0 & 0xFFFF
   \                     ??CrossCallReturnLabel_264:
   \   000038   702C         JNZ     ??ZDSecMgrSendMasterKey_0
   1382            {
   1383              osal_nv_read( keyNvId, osal_offsetof(ZDSecMgrMasterKeyData_t, key),
   1384                            SEC_KEY_LEN, masterKey );
   \   00003A                ; Setup parameters for call to function osal_nv_read
   \   00003A   740F         MOV     A,#0xf
   \   00003C   12....       LCALL   ?XSTACK_DISP0_8
   \   00003F   8582..       MOV     ?V0 + 0,DPL
   \   000042   8583..       MOV     ?V0 + 1,DPH
   \   000045   78..         MOV     R0,#?V0 + 0
   \   000047   12....       LCALL   ?PUSH_XSTACK_I_TWO
   \   00004A   75..10       MOV     ?V0 + 0,#0x10
   \   00004D   75..00       MOV     ?V0 + 1,#0x0
   \   000050   78..         MOV     R0,#?V0 + 0
   \   000052   12....       LCALL   ?PUSH_XSTACK_I_TWO
   \   000055   7C02         MOV     R4,#0x2
   \   000057   7D00         MOV     R5,#0x0
   \   000059   7404         MOV     A,#0x4
   \   00005B   12....       LCALL   ?XSTACK_DISP0_8
   \   00005E   12....       LCALL   ?Subroutine57 & 0xFFFF
   1385            }
   \                     ??CrossCallReturnLabel_85:
   \   000061   12....       LCALL   ?DEALLOC_XSTACK8
   \   000064   8012         SJMP    ??ZDSecMgrSendMasterKey_1
   1386            else
   1387            {
   1388              // in case read from NV fails
   1389              osal_memset( masterKey, 0x00, SEC_KEY_LEN);
   \                     ??ZDSecMgrSendMasterKey_0:
   \   000066                ; Setup parameters for call to function osal_memset
   \   000066   7C10         MOV     R4,#0x10
   \   000068   7D00         MOV     R5,#0x0
   \   00006A   7900         MOV     R1,#0x0
   \   00006C   740F         MOV     A,#0xf
   \   00006E   12....       LCALL   ?XSTACK_DISP0_8
   \   000071   AA82         MOV     R2,DPL
   \   000073   AB83         MOV     R3,DPH
   \   000075   12....       LCALL   ??osal_memset?relay
   1390            }
   1391          
   1392            req.key = masterKey;
   \                     ??ZDSecMgrSendMasterKey_1:
   \   000078   740F         MOV     A,#0xf
   \   00007A   12....       LCALL   ?XSTACK_DISP0_8
   \   00007D   A882         MOV     R0,DPL
   \   00007F   A983         MOV     R1,DPH
   \   000081   7406         MOV     A,#0x6
   \   000083   12....       LCALL   ?XSTACK_DISP0_8
   \   000086   12....       LCALL   ?Subroutine10 & 0xFFFF
   1393          
   1394            //check if using secure hop to to parent
   1395            if ( device->parentAddr != NLME_GetShortAddr() )
   \                     ??CrossCallReturnLabel_245:
   \   000089   7003         JNZ     ??ZDSecMgrSendMasterKey_2
   \   00008B   A3           INC     DPTR
   \   00008C   E0           MOVX    A,@DPTR
   \   00008D   69           XRL     A,R1
   \                     ??ZDSecMgrSendMasterKey_2:
   \   00008E   8E82         MOV     DPL,R6
   \   000090   8F83         MOV     DPH,R7
   \   000092   601C         JZ      ??ZDSecMgrSendMasterKey_3
   1396            {
   1397              //send to parent with security
   1398              req.dstAddr   = device->parentAddr;
   \   000094   A3           INC     DPTR
   \   000095   A3           INC     DPTR
   \   000096   12....       LCALL   ?Subroutine56 & 0xFFFF
   \                     ??CrossCallReturnLabel_274:
   \   000099   12....       LCALL   ?XSTACK_DISP0_8
   \   00009C   12....       LCALL   ??Subroutine130_0 & 0xFFFF
   1399              req.nwkSecure = TRUE;
   \                     ??CrossCallReturnLabel_232:
   \   00009F   740C         MOV     A,#0xc
   \   0000A1   12....       LCALL   ?XSTACK_DISP0_8
   \   0000A4   7401         MOV     A,#0x1
   \   0000A6   F0           MOVX    @DPTR,A
   1400              req.apsSecure = TRUE;
   \   0000A7   740B         MOV     A,#0xb
   \   0000A9   12....       LCALL   ?XSTACK_DISP0_8
   \   0000AC   7401         MOV     A,#0x1
   \   0000AE   8016         SJMP    ??ZDSecMgrSendMasterKey_4
   1401            }
   1402            else
   1403            {
   1404              //direct with no security
   1405              req.dstAddr   = device->nwkAddr;
   \                     ??ZDSecMgrSendMasterKey_3:
   \   0000B0   12....       LCALL   ??Subroutine138_0 & 0xFFFF
   \                     ??CrossCallReturnLabel_271:
   \   0000B3   12....       LCALL   ?XSTACK_DISP0_8
   \   0000B6   12....       LCALL   ??Subroutine130_0 & 0xFFFF
   1406              req.nwkSecure = FALSE;
   \                     ??CrossCallReturnLabel_233:
   \   0000B9   740C         MOV     A,#0xc
   \   0000BB   12....       LCALL   ?XSTACK_DISP0_8
   \   0000BE   E4           CLR     A
   \   0000BF   F0           MOVX    @DPTR,A
   1407              req.apsSecure = FALSE;
   \   0000C0   740B         MOV     A,#0xb
   \   0000C2   12....       LCALL   ?XSTACK_DISP0_8
   \   0000C5   E4           CLR     A
   \                     ??ZDSecMgrSendMasterKey_4:
   \   0000C6   F0           MOVX    @DPTR,A
   1408            }
   1409          
   1410            status = APSME_TransportKeyReq( &req );
   \   0000C7                ; Setup parameters for call to function APSME_TransportKeyReq
   \   0000C7   7402         MOV     A,#0x2
   \   0000C9   12....       LCALL   ?XSTACK_DISP0_8
   \   0000CC   AA82         MOV     R2,DPL
   \   0000CE   AB83         MOV     R3,DPH
   \   0000D0   12....       LCALL   ??APSME_TransportKeyReq?relay
   \   0000D3   E9           MOV     A,R1
   \   0000D4   FE           MOV     R6,A
   1411          
   1412            // clear copy of key in RAM
   1413            osal_memset( masterKey, 0x00, SEC_KEY_LEN);
   \   0000D5                ; Setup parameters for call to function osal_memset
   \   0000D5   7C10         MOV     R4,#0x10
   \   0000D7   7D00         MOV     R5,#0x0
   \   0000D9   7900         MOV     R1,#0x0
   \   0000DB   740F         MOV     A,#0xf
   \   0000DD   12....       LCALL   ?XSTACK_DISP0_8
   \   0000E0   AA82         MOV     R2,DPL
   \   0000E2   AB83         MOV     R3,DPH
   \   0000E4   12....       LCALL   ??osal_memset?relay
   1414          
   1415            return status;
   \   0000E7   EE           MOV     A,R6
   \   0000E8   F9           MOV     R1,A
   \   0000E9   741F         MOV     A,#0x1f
   \   0000EB   02....       LJMP    ??Subroutine134_0 & 0xFFFF
   1416          }

   \                                 In  segment BANKED_CODE, align 1, keep-with-next
   \                     ?Subroutine10:
   \   000000   E8           MOV     A,R0
   \   000001   F0           MOVX    @DPTR,A
   \   000002   A3           INC     DPTR
   \   000003   E9           MOV     A,R1
   \   000004                REQUIRE ??Subroutine131_0
   \   000004                ; // Fall through to label ??Subroutine131_0

   \                                 In  segment BANKED_CODE, align 1, keep-with-next
   \                     ?Subroutine78:
   \   000000   12....       LCALL   ?Subroutine104 & 0xFFFF
   \                     ??CrossCallReturnLabel_163:
   \   000003   E0           MOVX    A,@DPTR
   \   000004   22           RET

   \                                 In  segment BANKED_CODE, align 1, keep-with-next
   \                     ?Subroutine24:
   \   000000   12....       LCALL   ?Subroutine93 & 0xFFFF
   \                     ??CrossCallReturnLabel_251:
   \   000003   AC82         MOV     R4,DPL
   \   000005   AD83         MOV     R5,DPH
   \   000007   22           RET

   \                                 In  segment BANKED_CODE, align 1, keep-with-next
   \                     ?Subroutine93:
   \   000000   E4           CLR     A
   \   000001   F0           MOVX    @DPTR,A
   \   000002   A3           INC     DPTR
   \   000003                REQUIRE ??Subroutine132_0
   \   000003                ; // Fall through to label ??Subroutine132_0

   \                                 In  segment BANKED_CODE, align 1, keep-with-next
   \                     ??Subroutine140_0:
   \   000000   12....       LCALL   ?Subroutine95 & 0xFFFF
   \                     ??CrossCallReturnLabel_284:
   \   000003   740D         MOV     A,#0xd
   \   000005   22           RET

   \                                 In  segment BANKED_CODE, align 1, keep-with-next
   \                     ?Subroutine104:
   \   000000   12....       LCALL   ?Subroutine117 & 0xFFFF
   \                     ??CrossCallReturnLabel_346:
   \   000003   22           RET

   \                                 In  segment BANKED_CODE, align 1, keep-with-next
   \                     ?Subroutine117:
   \   000000   E0           MOVX    A,@DPTR
   \   000001                REQUIRE ??Subroutine143_0
   \   000001                ; // Fall through to label ??Subroutine143_0

   \                                 In  segment BANKED_CODE, align 1, keep-with-next
   \                     ??Subroutine143_0:
   \   000000   F8           MOV     R0,A
   \   000001   A3           INC     DPTR
   \   000002                REQUIRE ??Subroutine144_0
   \   000002                ; // Fall through to label ??Subroutine144_0

   \                                 In  segment BANKED_CODE, align 1, keep-with-next
   \                     ??Subroutine144_0:
   \   000000   E0           MOVX    A,@DPTR
   \   000001   F583         MOV     DPH,A
   \   000003   8882         MOV     DPL,R0
   \   000005   22           RET

   \                                 In  segment BANKED_CODE, align 1, keep-with-next
   \                     ?Subroutine23:
   \   000000   12....       LCALL   ?Subroutine92 & 0xFFFF
   \                     ??CrossCallReturnLabel_143:
   \   000003   7408         MOV     A,#0x8
   \   000005   22           RET

   \                                 In  segment BANKED_CODE, align 1, keep-with-next
   \                     ?Subroutine57:
   \   000000   12....       LCALL   ??Subroutine157_0 & 0xFFFF
   \                     ??CrossCallReturnLabel_349:
   \   000003   12....       LCALL   ??osal_nv_read?relay
   \   000006   7404         MOV     A,#0x4
   \   000008   22           RET
   1417          
   1418          /******************************************************************************
   1419           * @fn          ZDSecMgrSendNwkKey
   1420           *
   1421           * @brief       Send NWK key to device joining network.
   1422           *
   1423           * @param       device - [in] ZDSecMgrDevice_t, device info
   1424           *
   1425           * @return      ZStatus_t
   1426           */

   \                                 In  segment BANKED_CODE, align 1, keep-with-next
   1427          ZStatus_t ZDSecMgrSendNwkKey( ZDSecMgrDevice_t* device )
   \                     ZDSecMgrSendNwkKey:
   1428          {
   \   000000   74F6         MOV     A,#-0xa
   \   000002   12....       LCALL   ?BANKED_ENTER_XDATA
   \   000005                ; Saved register size: 10
   \   000005                ; Auto size: 30
   \   000005   74E2         MOV     A,#-0x1e
   \   000007   12....       LCALL   ?ALLOC_XSTACK8
   \   00000A   EA           MOV     A,R2
   \   00000B   FE           MOV     R6,A
   \   00000C   EB           MOV     A,R3
   \   00000D   FF           MOV     R7,A
   1429            ZStatus_t status;
   1430            APSME_TransportKeyReq_t req;
   1431            APSDE_FrameTunnel_t tunnel;
   1432            nwkKeyDesc tmpKey;
   1433          
   1434            req.dstAddr   = device->nwkAddr;
   \   00000E   8E82         MOV     DPL,R6
   \   000010   8F83         MOV     DPH,R7
   \   000012   12....       LCALL   ?Subroutine68 & 0xFFFF
   \                     ??CrossCallReturnLabel_104:
   \   000015   12....       LCALL   ?Subroutine21 & 0xFFFF
   1435            req.extAddr   = device->extAddr;
   \                     ??CrossCallReturnLabel_17:
   \   000018   7406         MOV     A,#0x6
   \   00001A   12....       LCALL   ?XSTACK_DISP0_8
   \   00001D   12....       LCALL   ??Subroutine130_0 & 0xFFFF
   1436          
   1437            if ( ZG_CHECK_SECURITY_MODE == ZG_SECURITY_PRO_HIGH )
   1438            {
   1439              req.keyType   = KEY_TYPE_NWK_HIGH;
   1440            }
   1441            else
   1442            {
   1443              req.keyType   = KEY_TYPE_NWK;
   \                     ??CrossCallReturnLabel_234:
   \   000020   7402         MOV     A,#0x2
   \   000022   12....       LCALL   ?XSTACK_DISP0_8
   \   000025   7401         MOV     A,#0x1
   \   000027   F0           MOVX    @DPTR,A
   1444            }
   1445          
   1446            // get the Active Key into a local variable
   1447            if( NLME_ReadNwkKeyInfo( 0, sizeof(tmpKey), &tmpKey,
   1448                                     ZCD_NV_NWK_ACTIVE_KEY_INFO ) != SUCCESS )
   \   000028                ; Setup parameters for call to function NLME_ReadNwkKeyInfo
   \   000028   75..3A       MOV     ?V0 + 0,#0x3a
   \   00002B   75..00       MOV     ?V0 + 1,#0x0
   \   00002E   78..         MOV     R0,#?V0 + 0
   \   000030   12....       LCALL   ?PUSH_XSTACK_I_TWO
   \   000033   740F         MOV     A,#0xf
   \   000035   12....       LCALL   ?XSTACK_DISP0_8
   \   000038   8582..       MOV     ?V0 + 0,DPL
   \   00003B   8583..       MOV     ?V0 + 1,DPH
   \   00003E   78..         MOV     R0,#?V0 + 0
   \   000040   12....       LCALL   ?PUSH_XSTACK_I_TWO
   \   000043   7C11         MOV     R4,#0x11
   \   000045   7D00         MOV     R5,#0x0
   \   000047   7A00         MOV     R2,#0x0
   \   000049   7B00         MOV     R3,#0x0
   \   00004B   12....       LCALL   ??NLME_ReadNwkKeyInfo?relay
   \   00004E   7404         MOV     A,#0x4
   \   000050   12....       LCALL   ?DEALLOC_XSTACK8
   \   000053   E9           MOV     A,R1
   \   000054   6012         JZ      ??ZDSecMgrSendNwkKey_0
   1449            {
   1450              // set key data to all 0s if NV read fails
   1451              osal_memset(&tmpKey, 0x00, sizeof(tmpKey));
   \   000056                ; Setup parameters for call to function osal_memset
   \   000056   7C11         MOV     R4,#0x11
   \   000058   7D00         MOV     R5,#0x0
   \   00005A   7900         MOV     R1,#0x0
   \   00005C   740D         MOV     A,#0xd
   \   00005E   12....       LCALL   ?XSTACK_DISP0_8
   \   000061   AA82         MOV     R2,DPL
   \   000063   AB83         MOV     R3,DPH
   \   000065   12....       LCALL   ??osal_memset?relay
   1452            }
   1453          
   1454            if ( (ZG_CHECK_SECURITY_MODE == ZG_SECURITY_PRO_HIGH)
   1455                || (ZG_CHECK_SECURITY_MODE == ZG_SECURITY_SE_STANDARD) )
   1456            {
   1457              // set values
   1458              req.keySeqNum = tmpKey.keySeqNum;
   1459              req.key       = tmpKey.key;
   1460          
   1461              //devtag.pro.security.todo - make sure that if there is no link key the NWK
   1462              //key isn't used to secure the frame at the APS layer -- since the receiving
   1463              //device may not have a NWK key yet
   1464              req.apsSecure = TRUE;
   1465          
   1466              // check if using secure hop to to parent
   1467              if ( device->parentAddr == NLME_GetShortAddr() )
   1468              {
   1469                req.nwkSecure = FALSE;
   1470                req.tunnel    = NULL;
   1471              }
   1472              else
   1473              {
   1474                req.nwkSecure   = TRUE;
   1475                req.tunnel      = &tunnel;
   1476                req.tunnel->tna = device->parentAddr;
   1477                req.tunnel->dea = device->extAddr;
   1478              }
   1479            }
   1480            else
   1481            {
   1482              // default values
   1483              //devtag.0604.verify
   1484              req.nwkSecure = TRUE;
   \                     ??ZDSecMgrSendNwkKey_0:
   \   000068   740A         MOV     A,#0xa
   \   00006A   12....       LCALL   ?XSTACK_DISP0_8
   \   00006D   7401         MOV     A,#0x1
   \   00006F   F0           MOVX    @DPTR,A
   1485              req.apsSecure = FALSE;
   \   000070   7409         MOV     A,#0x9
   \   000072   12....       LCALL   ?XSTACK_DISP0_8
   \   000075   E4           CLR     A
   \   000076   F0           MOVX    @DPTR,A
   1486              req.tunnel    = NULL;
   \   000077   740B         MOV     A,#0xb
   \   000079   12....       LCALL   ?XSTACK_DISP0_8
   \   00007C   E4           CLR     A
   \   00007D   F0           MOVX    @DPTR,A
   \   00007E   A3           INC     DPTR
   \   00007F   12....       LCALL   ??Subroutine131_0 & 0xFFFF
   1487          
   1488              if ( device->parentAddr != NLME_GetShortAddr() )
   \                     ??CrossCallReturnLabel_248:
   \   000082   7003         JNZ     ??ZDSecMgrSendNwkKey_1
   \   000084   A3           INC     DPTR
   \   000085   E0           MOVX    A,@DPTR
   \   000086   69           XRL     A,R1
   \                     ??ZDSecMgrSendNwkKey_1:
   \   000087   600B         JZ      ??CrossCallReturnLabel_243
   1489              {
   1490                req.dstAddr = device->parentAddr;
   \   000089   8E82         MOV     DPL,R6
   \   00008B   8F83         MOV     DPH,R7
   \   00008D   A3           INC     DPTR
   \   00008E   A3           INC     DPTR
   \   00008F   A3           INC     DPTR
   \   000090   A3           INC     DPTR
   \   000091   12....       LCALL   ?Subroutine35 & 0xFFFF
   1491              }
   1492          
   1493              // special cases
   1494              //devtag.0604.todo - modify to preconfig flag
   1495              if ( device->secure == FALSE )
   \                     ??CrossCallReturnLabel_243:
   \   000094   8E82         MOV     DPL,R6
   \   000096   8F83         MOV     DPH,R7
   \   000098   A3           INC     DPTR
   \   000099   A3           INC     DPTR
   \   00009A   A3           INC     DPTR
   \   00009B   A3           INC     DPTR
   \   00009C   A3           INC     DPTR
   \   00009D   A3           INC     DPTR
   \   00009E   E0           MOVX    A,@DPTR
   \   00009F   702C         JNZ     ??ZDSecMgrSendNwkKey_2
   1496              {
   1497                req.keySeqNum = tmpKey.keySeqNum;
   \   0000A1   740D         MOV     A,#0xd
   \   0000A3   12....       LCALL   ?XSTACK_DISP0_8
   \   0000A6   E0           MOVX    A,@DPTR
   \   0000A7   C0E0         PUSH    A
   \   0000A9   7403         MOV     A,#0x3
   \   0000AB   12....       LCALL   ?XSTACK_DISP0_8
   \   0000AE   D0E0         POP     A
   \   0000B0   F0           MOVX    @DPTR,A
   1498                req.key       = tmpKey.key;
   \   0000B1   740E         MOV     A,#0xe
   \   0000B3   12....       LCALL   ?XSTACK_DISP0_8
   \   0000B6   A882         MOV     R0,DPL
   \   0000B8   A983         MOV     R1,DPH
   \   0000BA   7404         MOV     A,#0x4
   \   0000BC   12....       LCALL   ?XSTACK_DISP0_8
   \   0000BF   12....       LCALL   ?Subroutine10 & 0xFFFF
   1499          
   1500                // check if using secure hop to to parent
   1501                if ( device->parentAddr == NLME_GetShortAddr() )
   \                     ??CrossCallReturnLabel_246:
   \   0000C2   7003         JNZ     ??ZDSecMgrSendNwkKey_3
   \   0000C4   A3           INC     DPTR
   \   0000C5   E0           MOVX    A,@DPTR
   \   0000C6   69           XRL     A,R1
   \                     ??ZDSecMgrSendNwkKey_3:
   \   0000C7   7014         JNZ     ??ZDSecMgrSendNwkKey_4
   1502                {
   1503                  req.nwkSecure = FALSE;
   \   0000C9   740A         MOV     A,#0xa
   \   0000CB   800B         SJMP    ??ZDSecMgrSendNwkKey_5
   1504                }
   1505              }
   1506              else
   1507              {
   1508                req.key       = NULL;
   \                     ??ZDSecMgrSendNwkKey_2:
   \   0000CD   7404         MOV     A,#0x4
   \   0000CF   12....       LCALL   ?XSTACK_DISP0_8
   \   0000D2   E4           CLR     A
   \   0000D3   F0           MOVX    @DPTR,A
   \   0000D4   A3           INC     DPTR
   \   0000D5   F0           MOVX    @DPTR,A
   1509                req.keySeqNum = 0;
   \   0000D6   7403         MOV     A,#0x3
   \                     ??ZDSecMgrSendNwkKey_5:
   \   0000D8   12....       LCALL   ?XSTACK_DISP0_8
   \   0000DB   E4           CLR     A
   \   0000DC   F0           MOVX    @DPTR,A
   1510              }
   1511            }
   1512          
   1513            status = APSME_TransportKeyReq( &req );
   \                     ??ZDSecMgrSendNwkKey_4:
   \   0000DD                ; Setup parameters for call to function APSME_TransportKeyReq
   \   0000DD   85..82       MOV     DPL,?XSP + 0
   \   0000E0   85..83       MOV     DPH,?XSP + 1
   \   0000E3   AA82         MOV     R2,DPL
   \   0000E5   AB83         MOV     R3,DPH
   \   0000E7   12....       LCALL   ??APSME_TransportKeyReq?relay
   \   0000EA   E9           MOV     A,R1
   \   0000EB   FE           MOV     R6,A
   1514          
   1515            // clear copy of key in RAM before return
   1516            osal_memset( &tmpKey, 0x00, sizeof(nwkKeyDesc) );
   \   0000EC                ; Setup parameters for call to function osal_memset
   \   0000EC   7C11         MOV     R4,#0x11
   \   0000EE   7D00         MOV     R5,#0x0
   \   0000F0   7900         MOV     R1,#0x0
   \   0000F2   740D         MOV     A,#0xd
   \   0000F4   12....       LCALL   ?XSTACK_DISP0_8
   \   0000F7   AA82         MOV     R2,DPL
   \   0000F9   AB83         MOV     R3,DPH
   \   0000FB   12....       LCALL   ??osal_memset?relay
   1517          
   1518            return status;
   \   0000FE   EE           MOV     A,R6
   \   0000FF   F9           MOV     R1,A
   \   000100   741E         MOV     A,#0x1e
   \   000102   02....       LJMP    ??Subroutine134_0 & 0xFFFF
   1519          }

   \                                 In  segment BANKED_CODE, align 1, keep-with-next
   \                     ?Subroutine35:
   \   000000   12....       LCALL   ?Subroutine100 & 0xFFFF
   \                     ??CrossCallReturnLabel_157:
   \   000003                REQUIRE ??Subroutine130_0
   \   000003                ; // Fall through to label ??Subroutine130_0

   \                                 In  segment BANKED_CODE, align 1, keep-with-next
   \                     ?Subroutine21:
   \   000000   E8           MOV     A,R0
   \   000001   F0           MOVX    @DPTR,A
   \   000002   A3           INC     DPTR
   \   000003   E9           MOV     A,R1
   \   000004   12....       LCALL   ?Subroutine92 & 0xFFFF
   \                     ??CrossCallReturnLabel_141:
   \   000007   22           RET

   \                                 In  segment BANKED_CODE, align 1, keep-with-next
   \                     ?Subroutine68:
   \   000000   12....       LCALL   ?Subroutine100 & 0xFFFF
   \                     ??CrossCallReturnLabel_158:
   \   000003   22           RET
   1520          
   1521          /******************************************************************************
   1522           * @fn          ZDSecMgrDeviceEntryRemove
   1523           *
   1524           * @brief       Remove device entry.
   1525           *
   1526           * @param       entry - [in] valid entry
   1527           *
   1528           * @return      none
   1529           */

   \                                 In  segment BANKED_CODE, align 1, keep-with-next
   1530          void ZDSecMgrDeviceEntryRemove( ZDSecMgrEntry_t* entry )
   \                     ZDSecMgrDeviceEntryRemove:
   1531          {
   \   000000   74F7         MOV     A,#-0x9
   \   000002   12....       LCALL   ?BANKED_ENTER_XDATA
   \   000005                ; Saved register size: 9
   \   000005                ; Auto size: 0
   \   000005   EA           MOV     A,R2
   \   000006   FE           MOV     R6,A
   \   000007   EB           MOV     A,R3
   \   000008   FF           MOV     R7,A
   1532            // terminate device control
   1533            if ( ( ZG_BUILD_COORDINATOR_TYPE ) && ( ZG_DEVICE_COORDINATOR_TYPE ) )
   1534            {
   1535              ZDSecMgrCtrlTerm( entry );
   \   000009                ; Setup parameters for call to function ZDSecMgrCtrlTerm
   \   000009   12....       LCALL   ??ZDSecMgrCtrlTerm?relay
   1536            }
   1537          
   1538            // remove device from entry data
   1539            ZDSecMgrEntryFree( entry );
   \   00000C                ; Setup parameters for call to function ZDSecMgrEntryFree
   \   00000C   EE           MOV     A,R6
   \   00000D   FA           MOV     R2,A
   \   00000E   EF           MOV     A,R7
   \   00000F   FB           MOV     R3,A
   \   000010   12....       LCALL   ??ZDSecMgrEntryFree?relay
   1540          
   1541          }
   \   000013   02....       LJMP    ??Subroutine147_0 & 0xFFFF
   1542          
   1543          /******************************************************************************
   1544           * @fn          ZDSecMgrDeviceRemoveByExtAddr
   1545           *
   1546           * @brief       Remove device entry by its ext address.
   1547           *
   1548           * @param       pAddr - pointer to the extended address
   1549           *
   1550           * @return      ZStatus_t
   1551           */

   \                                 In  segment BANKED_CODE, align 1, keep-with-next
   1552          ZStatus_t ZDSecMgrDeviceRemoveByExtAddr( uint8 *pAddr )
   \                     ZDSecMgrDeviceRemoveByExtAddr:
   1553          {
   \   000000   74F7         MOV     A,#-0x9
   \   000002   12....       LCALL   ?BANKED_ENTER_XDATA
   \   000005                ; Saved register size: 9
   \   000005                ; Auto size: 2
   \   000005   74FE         MOV     A,#-0x2
   \   000007   12....       LCALL   ?ALLOC_XSTACK8
   1554            ZDSecMgrEntry_t *pEntry;
   1555            uint8           retValue;
   1556          
   1557            retValue = (uint8)ZDSecMgrEntryLookupExt( pAddr, &pEntry );
   \   00000A                ; Setup parameters for call to function ZDSecMgrEntryLookupExt
   \   00000A   85..82       MOV     DPL,?XSP + 0
   \   00000D   85..83       MOV     DPH,?XSP + 1
   \   000010   AC82         MOV     R4,DPL
   \   000012   AD83         MOV     R5,DPH
   \   000014   12....       LCALL   ??ZDSecMgrEntryLookupExt?relay
   \   000017   E9           MOV     A,R1
   \   000018   FE           MOV     R6,A
   1558          
   1559            if( retValue == ZSuccess )
   \   000019   7003         JNZ     ??CrossCallReturnLabel_117
   1560            {
   1561              ZDSecMgrDeviceEntryRemove( pEntry );
   \   00001B                ; Setup parameters for call to function ZDSecMgrDeviceEntryRemove
   \   00001B   12....       LCALL   ?Subroutine75 & 0xFFFF
   1562            }
   1563          
   1564            return retValue;
   \                     ??CrossCallReturnLabel_117:
   \   00001E   EE           MOV     A,R6
   \   00001F   F9           MOV     R1,A
   \   000020   02....       LJMP    ??Subroutine145_0 & 0xFFFF
   1565          }

   \                                 In  segment BANKED_CODE, align 1, keep-with-next
   \                     ?Subroutine75:
   \   000000   12....       LCALL   ?Subroutine102 & 0xFFFF
   \                     ??CrossCallReturnLabel_353:
   \   000003   12....       LCALL   ??ZDSecMgrDeviceEntryRemove?relay
   \   000006   22           RET
   1566          
   1567          /******************************************************************************
   1568           * @fn          ZDSecMgrDeviceEntryAdd
   1569           *
   1570           * @brief       Add entry.
   1571           *
   1572           * @param       device - [in] ZDSecMgrDevice_t, device info
   1573           * @param       ami    - [in] Address Manager index
   1574           *
   1575           * @return      ZStatus_t
   1576           */

   \                                 In  segment BANKED_CODE, align 1, keep-with-next
   1577          void ZDSecMgrAddrMgrUpdate( uint16 ami, uint16 nwkAddr )
   \                     ZDSecMgrAddrMgrUpdate:
   1578          {
   \   000000   74F7         MOV     A,#-0x9
   \   000002   12....       LCALL   ?BANKED_ENTER_XDATA
   \   000005                ; Saved register size: 9
   \   000005                ; Auto size: 13
   \   000005   74F3         MOV     A,#-0xd
   \   000007   12....       LCALL   ?ALLOC_XSTACK8
   \   00000A   EC           MOV     A,R4
   \   00000B   FE           MOV     R6,A
   \   00000C   ED           MOV     A,R5
   \   00000D   FF           MOV     R7,A
   1579            AddrMgrEntry_t entry;
   1580          
   1581            // get the ami data
   1582            entry.user  = ADDRMGR_USER_SECURITY;
   \   00000E   85..82       MOV     DPL,?XSP + 0
   \   000011   85..83       MOV     DPH,?XSP + 1
   \   000014   7402         MOV     A,#0x2
   \   000016   F0           MOVX    @DPTR,A
   1583            entry.index = ami;
   \   000017   740B         MOV     A,#0xb
   \   000019   12....       LCALL   ?XSTACK_DISP0_8
   \   00001C   12....       LCALL   ?Subroutine12 & 0xFFFF
   1584          
   1585            AddrMgrEntryGet( &entry );
   \                     ??CrossCallReturnLabel_1:
   \   00001F   12....       LCALL   ??AddrMgrEntryGet?relay
   1586          
   1587            // check if NWK address is same
   1588            if ( entry.nwkAddr != nwkAddr )
   \   000022   7401         MOV     A,#0x1
   \   000024   12....       LCALL   ?XSTACK_DISP0_8
   \   000027   E0           MOVX    A,@DPTR
   \   000028   6E           XRL     A,R6
   \   000029   7003         JNZ     ??ZDSecMgrAddrMgrUpdate_0
   \   00002B   A3           INC     DPTR
   \   00002C   E0           MOVX    A,@DPTR
   \   00002D   6F           XRL     A,R7
   \                     ??ZDSecMgrAddrMgrUpdate_0:
   \   00002E   600F         JZ      ??ZDSecMgrAddrMgrUpdate_1
   1589            {
   1590              // update NWK address
   1591              entry.nwkAddr = nwkAddr;
   \   000030   7401         MOV     A,#0x1
   \   000032   12....       LCALL   ?XSTACK_DISP0_8
   \   000035   EE           MOV     A,R6
   \   000036   F0           MOVX    @DPTR,A
   \   000037   A3           INC     DPTR
   \   000038   EF           MOV     A,R7
   \   000039   12....       LCALL   ??Subroutine141_0 & 0xFFFF
   1592          
   1593              AddrMgrEntryUpdate( &entry );
   1594            }
   \                     ??CrossCallReturnLabel_288:
   \   00003C   12....       LCALL   ??AddrMgrEntryUpdate?relay
   1595          }
   \                     ??ZDSecMgrAddrMgrUpdate_1:
   \   00003F   02....       LJMP    ?Subroutine7 & 0xFFFF
   1596          

   \                                 In  segment BANKED_CODE, align 1, keep-with-next
   1597          ZStatus_t ZDSecMgrDeviceEntryAdd( ZDSecMgrDevice_t* device, uint16 ami )
   \                     ZDSecMgrDeviceEntryAdd:
   1598          {
   \   000000   74F5         MOV     A,#-0xb
   \   000002   12....       LCALL   ?BANKED_ENTER_XDATA
   \   000005                ; Saved register size: 11
   \   000005                ; Auto size: 2
   \   000005   74FE         MOV     A,#-0x2
   \   000007   12....       LCALL   ?ALLOC_XSTACK8
   \   00000A   8A..         MOV     ?V0 + 0,R2
   \   00000C   8B..         MOV     ?V0 + 1,R3
   \   00000E   EC           MOV     A,R4
   \   00000F   FE           MOV     R6,A
   \   000010   ED           MOV     A,R5
   \   000011   FF           MOV     R7,A
   1599            ZStatus_t        status;
   1600            ZDSecMgrEntry_t* entry;
   1601          
   1602            // initialize as unknown until completion
   1603            status = ZNwkUnknownDevice;
   \   000012   75..C8       MOV     ?V0 + 2,#-0x38
   1604          
   1605            device->ctrl = NULL;
   \   000015   8A82         MOV     DPL,R2
   \   000017   8B83         MOV     DPH,R3
   \   000019   A3           INC     DPTR
   \   00001A   A3           INC     DPTR
   \   00001B   A3           INC     DPTR
   \   00001C   A3           INC     DPTR
   \   00001D   A3           INC     DPTR
   \   00001E   A3           INC     DPTR
   \   00001F   A3           INC     DPTR
   \   000020   A3           INC     DPTR
   \   000021   12....       LCALL   ?Subroutine24 & 0xFFFF
   1606          
   1607            // make sure not already registered
   1608            if ( ZDSecMgrEntryLookup( device->nwkAddr, &entry ) == ZSuccess )
   \                     ??CrossCallReturnLabel_24:
   \   000024   8A82         MOV     DPL,R2
   \   000026   8B83         MOV     DPH,R3
   \   000028   12....       LCALL   ??Subroutine150_0 & 0xFFFF
   \                     ??CrossCallReturnLabel_303:
   \   00002B   12....       LCALL   ??ZDSecMgrEntryLookup?relay
   \   00002E   E9           MOV     A,R1
   \   00002F   85..82       MOV     DPL,?XSP + 0
   \   000032   85..83       MOV     DPH,?XSP + 1
   \   000035   7027         JNZ     ??ZDSecMgrDeviceEntryAdd_0
   1609            {
   1610              // verify that address index is same
   1611              if ( entry->ami != ami )
   \   000037   12....       LCALL   ?Subroutine78 & 0xFFFF
   \                     ??CrossCallReturnLabel_122:
   \   00003A   6E           XRL     A,R6
   \   00003B   7003         JNZ     ??ZDSecMgrDeviceEntryAdd_1
   \   00003D   A3           INC     DPTR
   \   00003E   E0           MOVX    A,@DPTR
   \   00003F   6F           XRL     A,R7
   \                     ??ZDSecMgrDeviceEntryAdd_1:
   \   000040   602A         JZ      ??ZDSecMgrDeviceEntryAdd_2
   1612              {
   1613                // remove conflicting entry
   1614                ZDSecMgrDeviceEntryRemove( entry );
   \   000042                ; Setup parameters for call to function ZDSecMgrDeviceEntryRemove
   \   000042   12....       LCALL   ?Subroutine75 & 0xFFFF
   1615          
   1616                if ( ZDSecMgrEntryLookupAMI( ami, &entry ) == ZSuccess )
   \                     ??CrossCallReturnLabel_118:
   \   000045                ; Setup parameters for call to function ZDSecMgrEntryLookupAMI
   \   000045   85..82       MOV     DPL,?XSP + 0
   \   000048   85..83       MOV     DPH,?XSP + 1
   \   00004B   AC82         MOV     R4,DPL
   \   00004D   AD83         MOV     R5,DPH
   \   00004F   EE           MOV     A,R6
   \   000050   FA           MOV     R2,A
   \   000051   EF           MOV     A,R7
   \   000052   FB           MOV     R3,A
   \   000053   12....       LCALL   ??ZDSecMgrEntryLookupAMI?relay
   \   000056   E9           MOV     A,R1
   \   000057   7013         JNZ     ??ZDSecMgrDeviceEntryAdd_2
   1617                {
   1618                  // update NWK address
   1619                  ZDSecMgrAddrMgrUpdate( ami, device->nwkAddr );
   \                     ??ZDSecMgrDeviceEntryAdd_3:
   \   000059                ; Setup parameters for call to function ZDSecMgrAddrMgrUpdate
   \   000059   12....       LCALL   ?Subroutine62 & 0xFFFF
   1620                }
   1621              }
   1622            }
   \                     ??CrossCallReturnLabel_96:
   \   00005C   800E         SJMP    ??ZDSecMgrDeviceEntryAdd_2
   1623            else if ( ZDSecMgrEntryLookupAMI( ami, &entry ) == ZSuccess )
   \                     ??ZDSecMgrDeviceEntryAdd_0:
   \   00005E                ; Setup parameters for call to function ZDSecMgrEntryLookupAMI
   \   00005E   AC82         MOV     R4,DPL
   \   000060   AD83         MOV     R5,DPH
   \   000062   EE           MOV     A,R6
   \   000063   FA           MOV     R2,A
   \   000064   EF           MOV     A,R7
   \   000065   FB           MOV     R3,A
   \   000066   12....       LCALL   ??ZDSecMgrEntryLookupAMI?relay
   \   000069   E9           MOV     A,R1
   \   00006A   60ED         JZ      ??ZDSecMgrDeviceEntryAdd_3
   1624            {
   1625              // update NWK address
   1626              ZDSecMgrAddrMgrUpdate( ami, device->nwkAddr );
   1627            }
   1628          
   1629            // check if a new entry needs to be created
   1630            if ( entry == NULL )
   \                     ??ZDSecMgrDeviceEntryAdd_2:
   \   00006C   12....       LCALL   ??Subroutine154_0 & 0xFFFF
   \                     ??CrossCallReturnLabel_332:
   \   00006F   85..82       MOV     DPL,?XSP + 0
   \   000072   85..83       MOV     DPH,?XSP + 1
   \   000075   7029         JNZ     ??ZDSecMgrDeviceEntryAdd_4
   1631            {
   1632              // get new entry
   1633              if ( ZDSecMgrEntryNew( &entry ) == ZSuccess )
   \   000077                ; Setup parameters for call to function ZDSecMgrEntryNew
   \   000077   AA82         MOV     R2,DPL
   \   000079   AB83         MOV     R3,DPH
   \   00007B   12....       LCALL   ??ZDSecMgrEntryNew?relay
   \   00007E   E9           MOV     A,R1
   \   00007F   7028         JNZ     ??ZDSecMgrDeviceEntryAdd_5
   1634              {
   1635                // reset entry lkd
   1636          
   1637                // finish setting up entry
   1638                entry->ami = ami;
   \   000081   85..82       MOV     DPL,?XSP + 0
   \   000084   85..83       MOV     DPH,?XSP + 1
   \   000087   12....       LCALL   ?Subroutine104 & 0xFFFF
   \                     ??CrossCallReturnLabel_161:
   \   00008A   EE           MOV     A,R6
   \   00008B   F0           MOVX    @DPTR,A
   \   00008C   A3           INC     DPTR
   \   00008D   EF           MOV     A,R7
   \   00008E   F0           MOVX    @DPTR,A
   1639          
   1640                // update NWK address
   1641                ZDSecMgrAddrMgrUpdate( ami, device->nwkAddr );
   \   00008F                ; Setup parameters for call to function ZDSecMgrAddrMgrUpdate
   \   00008F   12....       LCALL   ?Subroutine62 & 0xFFFF
   1642          
   1643                // enter new device into device control
   1644                if ( ( ZG_BUILD_COORDINATOR_TYPE ) && ( ZG_DEVICE_COORDINATOR_TYPE ) )
   1645                {
   1646                  status = ZDSecMgrCtrlAdd( device, entry );
   \                     ??CrossCallReturnLabel_97:
   \   000092                ; Setup parameters for call to function ZDSecMgrCtrlAdd
   \   000092   85..82       MOV     DPL,?XSP + 0
   \   000095   85..83       MOV     DPH,?XSP + 1
   \   000098   12....       LCALL   ?Subroutine70 & 0xFFFF
   1647                }
   1648                else
   1649                {
   1650                  status = ZSuccess;
   1651                }
   1652              }
   1653            }
   \                     ??CrossCallReturnLabel_108:
   \   00009B   12....       LCALL   ??ZDSecMgrCtrlAdd?relay
   \   00009E   8006         SJMP    ??ZDSecMgrDeviceEntryAdd_6
   1654            else
   1655            {
   1656              // reset entry lkd
   1657          
   1658              // reset entry in entry control
   1659              if ( ( ZG_BUILD_COORDINATOR_TYPE ) && ( ZG_DEVICE_COORDINATOR_TYPE ) )
   1660              {
   1661                status = ZDSecMgrCtrlReset( device, entry );
   \                     ??ZDSecMgrDeviceEntryAdd_4:
   \   0000A0                ; Setup parameters for call to function ZDSecMgrCtrlReset
   \   0000A0   12....       LCALL   ?Subroutine70 & 0xFFFF
   1662              }
   1663              else
   1664              {
   1665                status = ZSuccess;
   1666              }
   1667            }
   \                     ??CrossCallReturnLabel_109:
   \   0000A3   12....       LCALL   ??ZDSecMgrCtrlReset?relay
   \                     ??ZDSecMgrDeviceEntryAdd_6:
   \   0000A6   E9           MOV     A,R1
   \   0000A7   F5..         MOV     ?V0 + 2,A
   1668          
   1669            return status;
   \                     ??ZDSecMgrDeviceEntryAdd_5:
   \   0000A9   A9..         MOV     R1,?V0 + 2
   \   0000AB   7402         MOV     A,#0x2
   \   0000AD                REQUIRE ?Subroutine5
   \   0000AD                ; // Fall through to label ?Subroutine5
   1670          }

   \                                 In  segment BANKED_CODE, align 1, keep-with-next
   \                     ?Subroutine5:
   \   000000   12....       LCALL   ?DEALLOC_XSTACK8
   \   000003   7F03         MOV     R7,#0x3
   \   000005   02....       LJMP    ?BANKED_LEAVE_XDATA

   \                                 In  segment BANKED_CODE, align 1, keep-with-next
   \                     ?Subroutine70:
   \   000000   12....       LCALL   ?Subroutine115 & 0xFFFF
   \                     ??CrossCallReturnLabel_178:
   \   000003   AA..         MOV     R2,?V0 + 0
   \   000005   AB..         MOV     R3,?V0 + 1
   \   000007   22           RET

   \                                 In  segment BANKED_CODE, align 1, keep-with-next
   \                     ?Subroutine62:
   \   000000   85..82       MOV     DPL,?V0 + 0
   \   000003   85..83       MOV     DPH,?V0 + 1
   \   000006   12....       LCALL   ?Subroutine109 & 0xFFFF
   \                     ??CrossCallReturnLabel_168:
   \   000009   12....       LCALL   ??ZDSecMgrAddrMgrUpdate?relay
   \   00000C   22           RET

   \                                 In  segment BANKED_CODE, align 1, keep-with-next
   \                     ?Subroutine109:
   \   000000   12....       LCALL   ?Subroutine115 & 0xFFFF
   \                     ??CrossCallReturnLabel_179:
   \   000003   EE           MOV     A,R6
   \   000004   FA           MOV     R2,A
   \   000005   EF           MOV     A,R7
   \   000006   FB           MOV     R3,A
   \   000007   22           RET
   1671          
   1672          /******************************************************************************
   1673           * @fn          ZDSecMgrDeviceCtrlHandler
   1674           *
   1675           * @brief       Device control handler.
   1676           *
   1677           * @param       device - [in] ZDSecMgrDevice_t, device info
   1678           *
   1679           * @return      none
   1680           */

   \                                 In  segment BANKED_CODE, align 1, keep-with-next
   1681          void ZDSecMgrDeviceCtrlHandler( ZDSecMgrDevice_t* device )
   \                     ZDSecMgrDeviceCtrlHandler:
   1682          {
   \   000000   74F7         MOV     A,#-0x9
   \   000002   12....       LCALL   ?BANKED_ENTER_XDATA
   \   000005                ; Saved register size: 9
   \   000005                ; Auto size: 0
   \   000005   EA           MOV     A,R2
   \   000006   FE           MOV     R6,A
   \   000007   EB           MOV     A,R3
   \   000008   FF           MOV     R7,A
   1683            uint8 state;
   1684            uint8 cntr;
   1685          
   1686            state = device->ctrl->state;
   \   000009   12....       LCALL   ?Subroutine64 & 0xFFFF
   \                     ??CrossCallReturnLabel_100:
   \   00000C   E0           MOVX    A,@DPTR
   \   00000D   F5..         MOV     ?V0 + 0,A
   1687            cntr  = ZDSECMGR_CTRL_BASE_CNTR;
   1688          
   1689            switch ( state )
   \   00000F   24FE         ADD     A,#-0x2
   \   000011   600C         JZ      ??ZDSecMgrDeviceCtrlHandler_0
   \   000013   14           DEC     A
   \   000014   6014         JZ      ??ZDSecMgrDeviceCtrlHandler_1
   \   000016   14           DEC     A
   \   000017   6022         JZ      ??ZDSecMgrDeviceCtrlHandler_2
   \   000019   24FD         ADD     A,#-0x3
   \   00001B   6018         JZ      ??ZDSecMgrDeviceCtrlHandler_3
   \   00001D   804A         SJMP    ??ZDSecMgrDeviceCtrlHandler_4
   1690            {
   1691              case ZDSECMGR_CTRL_TK_MASTER:
   1692                if ( ZDSecMgrSendMasterKey( device ) == ZSuccess )
   \                     ??ZDSecMgrDeviceCtrlHandler_0:
   \   00001F                ; Setup parameters for call to function ZDSecMgrSendMasterKey
   \   00001F   12....       LCALL   ??ZDSecMgrSendMasterKey?relay
   \   000022   E9           MOV     A,R1
   \   000023   7016         JNZ     ??ZDSecMgrDeviceCtrlHandler_2
   1693                {
   1694                  state = ZDSECMGR_CTRL_SKKE_INIT;
   \   000025   75..03       MOV     ?V0 + 0,#0x3
   1695                  cntr  = ZDSECMGR_CTRL_SKKE_INIT_CNTR;
   \   000028   8011         SJMP    ??ZDSecMgrDeviceCtrlHandler_2
   1696                }
   1697                break;
   1698          
   1699              case ZDSECMGR_CTRL_SKKE_INIT:
   1700                if ( ZDSecMgrEstablishKey( device ) == ZSuccess )
   \                     ??ZDSecMgrDeviceCtrlHandler_1:
   \   00002A                ; Setup parameters for call to function ZDSecMgrEstablishKey
   \   00002A   12....       LCALL   ??ZDSecMgrEstablishKey?relay
   \   00002D   E9           MOV     A,R1
   \   00002E   700B         JNZ     ??ZDSecMgrDeviceCtrlHandler_2
   1701                {
   1702                  state = ZDSECMGR_CTRL_SKKE_WAIT;
   \   000030   75..04       MOV     ?V0 + 0,#0x4
   \   000033   8006         SJMP    ??ZDSecMgrDeviceCtrlHandler_2
   1703                }
   1704                break;
   1705          
   1706              case ZDSECMGR_CTRL_SKKE_WAIT:
   1707                // continue to wait for SKA control timeout
   1708                break;
   1709          
   1710              case ZDSECMGR_CTRL_TK_NWK:
   1711                if ( ZDSecMgrSendNwkKey( device ) == ZSuccess )
   \                     ??ZDSecMgrDeviceCtrlHandler_3:
   \   000035                ; Setup parameters for call to function ZDSecMgrSendNwkKey
   \   000035   12....       LCALL   ??ZDSecMgrSendNwkKey?relay
   \   000038   E9           MOV     A,R1
   \   000039   602E         JZ      ??ZDSecMgrDeviceCtrlHandler_4
   1712                {
   1713                  state = ZDSECMGR_CTRL_NONE;
   1714                }
   1715                break;
   1716          
   1717              default:
   1718                state = ZDSECMGR_CTRL_NONE;
   1719                break;
   1720            }
   1721          
   1722            if ( state != ZDSECMGR_CTRL_NONE )
   1723            {
   1724              device->ctrl->state = state;
   \                     ??ZDSecMgrDeviceCtrlHandler_2:
   \   00003B   EE           MOV     A,R6
   \   00003C   2408         ADD     A,#0x8
   \   00003E   12....       LCALL   ?Subroutine47 & 0xFFFF
   \                     ??CrossCallReturnLabel_72:
   \   000041   F583         MOV     DPH,A
   \   000043   8A82         MOV     DPL,R2
   \   000045   A3           INC     DPTR
   \   000046   A3           INC     DPTR
   \   000047   A3           INC     DPTR
   \   000048   A3           INC     DPTR
   \   000049   A3           INC     DPTR
   \   00004A   E5..         MOV     A,?V0 + 0
   \   00004C   12....       LCALL   ?Subroutine25 & 0xFFFF
   1725              device->ctrl->cntr  = cntr;
   \                     ??CrossCallReturnLabel_25:
   \   00004F   A3           INC     DPTR
   \   000050   A3           INC     DPTR
   \   000051   A3           INC     DPTR
   \   000052   A3           INC     DPTR
   \   000053   A3           INC     DPTR
   \   000054   A3           INC     DPTR
   \   000055   7401         MOV     A,#0x1
   \   000057   F0           MOVX    @DPTR,A
   1726          
   1727              osal_start_timerEx(ZDAppTaskID, ZDO_SECMGR_EVENT, 100 );
   \   000058                ; Setup parameters for call to function osal_start_timerEx
   \   000058   7C64         MOV     R4,#0x64
   \   00005A   7D00         MOV     R5,#0x0
   \   00005C   7A00         MOV     R2,#0x0
   \   00005E   FB           MOV     R3,A
   \   00005F   90....       MOV     DPTR,#ZDAppTaskID
   \   000062   E0           MOVX    A,@DPTR
   \   000063   F9           MOV     R1,A
   \   000064   12....       LCALL   ??osal_start_timerEx?relay
   \   000067   8005         SJMP    ??ZDSecMgrDeviceCtrlHandler_5
   1728            }
   1729            else
   1730            {
   1731              ZDSecMgrCtrlRelease( device->ctrl );
   \                     ??ZDSecMgrDeviceCtrlHandler_4:
   \   000069   12....       LCALL   ?Subroutine64 & 0xFFFF
   \                     ??CrossCallReturnLabel_101:
   \   00006C   E4           CLR     A
   \   00006D   F0           MOVX    @DPTR,A
   1732            }
   1733          }
   \                     ??ZDSecMgrDeviceCtrlHandler_5:
   \   00006E   02....       LJMP    ??Subroutine147_0 & 0xFFFF

   \                                 In  segment BANKED_CODE, align 1, keep-with-next
   \                     ?Subroutine64:
   \   000000   8E82         MOV     DPL,R6
   \   000002   8F83         MOV     DPH,R7
   \   000004   A3           INC     DPTR
   \   000005   A3           INC     DPTR
   \   000006   A3           INC     DPTR
   \   000007   A3           INC     DPTR
   \   000008   A3           INC     DPTR
   \   000009   A3           INC     DPTR
   \   00000A   A3           INC     DPTR
   \   00000B   A3           INC     DPTR
   \   00000C   12....       LCALL   ?Subroutine101 & 0xFFFF
   \                     ??CrossCallReturnLabel_342:
   \   00000F   A3           INC     DPTR
   \   000010   A3           INC     DPTR
   \   000011   A3           INC     DPTR
   \   000012   22           RET

   \                                 In  segment BANKED_CODE, align 1, keep-with-next
   \                     ?Subroutine47:
   \   000000   F8           MOV     R0,A
   \   000001   EF           MOV     A,R7
   \   000002   3400         ADDC    A,#0x0
   \   000004   F9           MOV     R1,A
   \   000005   8882         MOV     DPL,R0
   \   000007   12....       LCALL   ?Subroutine111 & 0xFFFF
   \                     ??CrossCallReturnLabel_260:
   \   00000A   22           RET

   \                                 In  segment BANKED_CODE, align 1, keep-with-next
   \                     ?Subroutine25:
   \   000000   12....       LCALL   ?Subroutine97 & 0xFFFF
   \                     ??CrossCallReturnLabel_149:
   \   000003   12....       LCALL   ?Subroutine104 & 0xFFFF
   \                     ??CrossCallReturnLabel_162:
   \   000006   22           RET

   \                                 In  segment BANKED_CODE, align 1, keep-with-next
   \                     ?Subroutine101:
   \   000000   12....       LCALL   ?Subroutine117 & 0xFFFF
   \                     ??CrossCallReturnLabel_347:
   \   000003   A3           INC     DPTR
   \   000004   A3           INC     DPTR
   \   000005   22           RET
   1734          
   1735          /******************************************************************************
   1736           * @fn          ZDSecMgrDeviceCtrlSetup
   1737           *
   1738           * @brief       Setup device control.
   1739           *
   1740           * @param       device - [in] ZDSecMgrDevice_t, device info
   1741           *
   1742           * @return      ZStatus_t
   1743           */

   \                                 In  segment BANKED_CODE, align 1, keep-with-next
   \                     ??Subroutine127_0:
   \   000000   12....       LCALL   ??Subroutine144_0 & 0xFFFF
   \                     ??CrossCallReturnLabel_344:
   \   000003   A3           INC     DPTR
   \   000004   A3           INC     DPTR
   \   000005   A3           INC     DPTR
   \   000006   A3           INC     DPTR
   \   000007   A3           INC     DPTR
   \   000008   22           RET

   \                                 In  segment BANKED_CODE, align 1, keep-with-next
   1744          void ZDSecMgrDeviceCtrlSetup( ZDSecMgrDevice_t* device )
   \                     ZDSecMgrDeviceCtrlSetup:
   1745          {
   \   000000   C082         PUSH    DPL
   \   000002   C083         PUSH    DPH
   \   000004                ; Saved register size: 2
   \   000004                ; Auto size: 0
   1746            if ( device->ctrl != NULL )
   \   000004   8A82         MOV     DPL,R2
   \   000006   8B83         MOV     DPH,R3
   \   000008   A3           INC     DPTR
   \   000009   A3           INC     DPTR
   \   00000A   A3           INC     DPTR
   \   00000B   A3           INC     DPTR
   \   00000C   A3           INC     DPTR
   \   00000D   A3           INC     DPTR
   \   00000E   A3           INC     DPTR
   \   00000F   A3           INC     DPTR
   \   000010   12....       LCALL   ??Subroutine155_0 & 0xFFFF
   \                     ??CrossCallReturnLabel_327:
   \   000013   602A         JZ      ??ZDSecMgrDeviceCtrlSetup_0
   1747            {
   1748              if ( device->secure == FALSE )
   \   000015   8A82         MOV     DPL,R2
   \   000017   8B83         MOV     DPH,R3
   \   000019   A3           INC     DPTR
   \   00001A   A3           INC     DPTR
   \   00001B   A3           INC     DPTR
   \   00001C   A3           INC     DPTR
   \   00001D   A3           INC     DPTR
   \   00001E   A3           INC     DPTR
   \   00001F   E0           MOVX    A,@DPTR
   \   000020   8A82         MOV     DPL,R2
   \   000022   8B83         MOV     DPH,R3
   \   000024   A3           INC     DPTR
   \   000025   A3           INC     DPTR
   \   000026   A3           INC     DPTR
   \   000027   A3           INC     DPTR
   \   000028   A3           INC     DPTR
   \   000029   A3           INC     DPTR
   \   00002A   A3           INC     DPTR
   \   00002B   A3           INC     DPTR
   \   00002C   A3           INC     DPTR
   \   00002D   7007         JNZ     ??ZDSecMgrDeviceCtrlSetup_1
   1749              {
   1750                // send the master key data to the joining device
   1751                device->ctrl->state = ZDSECMGR_CTRL_TK_MASTER;
   \   00002F   12....       LCALL   ??Subroutine127_0 & 0xFFFF
   1752              }
   \                     ??CrossCallReturnLabel_215:
   \   000032   7402         MOV     A,#0x2
   \   000034   8005         SJMP    ??ZDSecMgrDeviceCtrlSetup_2
   1753              else
   1754              {
   1755                // start SKKE
   1756                device->ctrl->state = ZDSECMGR_CTRL_SKKE_INIT;
   \                     ??ZDSecMgrDeviceCtrlSetup_1:
   \   000036   12....       LCALL   ??Subroutine127_0 & 0xFFFF
   1757              }
   \                     ??CrossCallReturnLabel_216:
   \   000039   7403         MOV     A,#0x3
   \                     ??ZDSecMgrDeviceCtrlSetup_2:
   \   00003B   F0           MOVX    @DPTR,A
   1758          
   1759              ZDSecMgrDeviceCtrlHandler( device );
   \   00003C                ; Setup parameters for call to function ZDSecMgrDeviceCtrlHandler
   \   00003C   12....       LCALL   ??ZDSecMgrDeviceCtrlHandler?relay
   1760            }
   1761          }
   \                     ??ZDSecMgrDeviceCtrlSetup_0:
   \   00003F   02....       LJMP    ??Subroutine139_0 & 0xFFFF
   1762          
   1763          /******************************************************************************
   1764           * @fn          ZDSecMgrDeviceCtrlUpdate
   1765           *
   1766           * @brief       Update control data.
   1767           *
   1768           * @param       extAddr - [in] EXT address
   1769           * @param       state   - [in] new control state
   1770           *
   1771           * @return      none
   1772           */

   \                                 In  segment BANKED_CODE, align 1, keep-with-next
   \                     ?Subroutine65:
   \   000000   85..82       MOV     DPL,?XSP + 0
   \   000003   85..83       MOV     DPH,?XSP + 1
   \   000006   A3           INC     DPTR
   \   000007                REQUIRE ??Subroutine127_0
   \   000007                ; // Fall through to label ??Subroutine127_0

   \                                 In  segment BANKED_CODE, align 1, keep-with-next
   1773          void ZDSecMgrDeviceCtrlUpdate( uint8* extAddr, uint8 state )
   \                     ZDSecMgrDeviceCtrlUpdate:
   1774          {
   \   000000   74F7         MOV     A,#-0x9
   \   000002   12....       LCALL   ?BANKED_ENTER_XDATA
   \   000005                ; Saved register size: 9
   \   000005                ; Auto size: 4
   \   000005   74FC         MOV     A,#-0x4
   \   000007   12....       LCALL   ?ALLOC_XSTACK8
   \   00000A   E9           MOV     A,R1
   \   00000B   FE           MOV     R6,A
   1775            ZDSecMgrEntry_t* entry;
   1776            ZDSecMgrCtrl_t*  ctrl;
   1777          
   1778            // lookup device entry data
   1779            (void)ZDSecMgrEntryLookupExt( extAddr, &entry );
   \   00000C                ; Setup parameters for call to function ZDSecMgrEntryLookupExt
   \   00000C   7402         MOV     A,#0x2
   \   00000E   12....       LCALL   ?XSTACK_DISP0_8
   \   000011   AC82         MOV     R4,DPL
   \   000013   AD83         MOV     R5,DPH
   \   000015   12....       LCALL   ??ZDSecMgrEntryLookupExt?relay
   1780          
   1781            if ( entry != NULL )
   \   000018   7402         MOV     A,#0x2
   \   00001A   12....       LCALL   ?XSTACK_DISP0_8
   \   00001D   12....       LCALL   ??Subroutine155_0 & 0xFFFF
   \                     ??CrossCallReturnLabel_328:
   \   000020   6045         JZ      ??ZDSecMgrDeviceCtrlUpdate_0
   1782            {
   1783              // lookup device control data
   1784              ZDSecMgrCtrlLookup( entry, &ctrl );
   \   000022                ; Setup parameters for call to function ZDSecMgrCtrlLookup
   \   000022   85..82       MOV     DPL,?XSP + 0
   \   000025   85..83       MOV     DPH,?XSP + 1
   \   000028   AC82         MOV     R4,DPL
   \   00002A   AD83         MOV     R5,DPH
   \   00002C   7402         MOV     A,#0x2
   \   00002E   12....       LCALL   ?XSTACK_DISP0_8
   \   000031   12....       LCALL   ??Subroutine133_0 & 0xFFFF
   \                     ??CrossCallReturnLabel_256:
   \   000034   12....       LCALL   ?Subroutine51 & 0xFFFF
   1785          
   1786              // make sure control data is valid
   1787              if ( ctrl != NULL )
   \                     ??CrossCallReturnLabel_321:
   \   000037   602E         JZ      ??ZDSecMgrDeviceCtrlUpdate_0
   1788              {
   1789                // possible state transitions
   1790                if ( ctrl->state == ZDSECMGR_CTRL_SKKE_WAIT )
   \   000039   12....       LCALL   ?Subroutine65 & 0xFFFF
   \                     ??CrossCallReturnLabel_218:
   \   00003C   E0           MOVX    A,@DPTR
   \   00003D   6404         XRL     A,#0x4
   \   00003F   7026         JNZ     ??ZDSecMgrDeviceCtrlUpdate_0
   1791                {
   1792                  if ( state == ZDSECMGR_CTRL_SKKE_DONE )
   \   000041   7405         MOV     A,#0x5
   \   000043   6E           XRL     A,R6
   \   000044   7007         JNZ     ??ZDSecMgrDeviceCtrlUpdate_1
   1793                  {
   1794                    // send the network key
   1795                    ctrl->state = ZDSECMGR_CTRL_TK_NWK;
   \   000046   12....       LCALL   ?Subroutine65 & 0xFFFF
   1796                    ctrl->cntr  = ZDSECMGR_CTRL_TK_NWK_CNTR;
   1797                  }
   \                     ??CrossCallReturnLabel_219:
   \   000049   7407         MOV     A,#0x7
   \   00004B   800A         SJMP    ??ZDSecMgrDeviceCtrlUpdate_2
   1798                  else if ( state == ZDSECMGR_CTRL_SKKE_FAIL )
   \                     ??ZDSecMgrDeviceCtrlUpdate_1:
   \   00004D   7406         MOV     A,#0x6
   \   00004F   6E           XRL     A,R6
   \   000050   7015         JNZ     ??ZDSecMgrDeviceCtrlUpdate_0
   1799                  {
   1800                    // force default timeout in order to cleanup control logic
   1801                    ctrl->state = ZDSECMGR_CTRL_SKKE_FAIL;
   \   000052   12....       LCALL   ?Subroutine65 & 0xFFFF
   1802                    ctrl->cntr  = ZDSECMGR_CTRL_BASE_CNTR;
   1803                  }
   1804                }
   1805                // timer should be active
   1806              }
   1807            }
   \                     ??CrossCallReturnLabel_220:
   \   000055   7406         MOV     A,#0x6
   \                     ??ZDSecMgrDeviceCtrlUpdate_2:
   \   000057   12....       LCALL   ?Subroutine28 & 0xFFFF
   \                     ??CrossCallReturnLabel_32:
   \   00005A   F583         MOV     DPH,A
   \   00005C   8882         MOV     DPL,R0
   \   00005E   A3           INC     DPTR
   \   00005F   A3           INC     DPTR
   \   000060   A3           INC     DPTR
   \   000061   A3           INC     DPTR
   \   000062   A3           INC     DPTR
   \   000063   A3           INC     DPTR
   \   000064   7401         MOV     A,#0x1
   \   000066   F0           MOVX    @DPTR,A
   1808          }
   \                     ??ZDSecMgrDeviceCtrlUpdate_0:
   \   000067                REQUIRE ?Subroutine8
   \   000067                ; // Fall through to label ?Subroutine8

   \                                 In  segment BANKED_CODE, align 1, keep-with-next
   \                     ?Subroutine8:
   \   000000   7404         MOV     A,#0x4
   \   000002   02....       LJMP    ??Subroutine146_0 & 0xFFFF
   1809          
   1810          void APSME_SKA_TimerExpired( uint8 initiator, uint8* partExtAddr );

   \                                 In  segment BANKED_CODE, align 1, keep-with-next
   1811          void APSME_SKA_TimerExpired( uint8 initiator, uint8* partExtAddr )
   \                     APSME_SKA_TimerExpired:
   1812          {
   \   000000   74F7         MOV     A,#-0x9
   \   000002   12....       LCALL   ?BANKED_ENTER_XDATA
   \   000005                ; Saved register size: 9
   \   000005                ; Auto size: 0
   \   000005   E9           MOV     A,R1
   \   000006   FE           MOV     R6,A
   1813            if ( ( ZG_BUILD_COORDINATOR_TYPE ) && ( ZG_DEVICE_COORDINATOR_TYPE ) )
   1814            {
   1815              if ( initiator == TRUE )
   \   000007   7401         MOV     A,#0x1
   \   000009   6E           XRL     A,R6
   \   00000A   7005         JNZ     ??APSME_SKA_TimerExpired_0
   1816              {
   1817                ZDSecMgrDeviceCtrlUpdate( partExtAddr, ZDSECMGR_CTRL_SKKE_FAIL );
   \   00000C                ; Setup parameters for call to function ZDSecMgrDeviceCtrlUpdate
   \   00000C   7906         MOV     R1,#0x6
   \   00000E   12....       LCALL   ??ZDSecMgrDeviceCtrlUpdate?relay
   1818              }
   1819            }
   1820          }
   \                     ??APSME_SKA_TimerExpired_0:
   \   000011   02....       LJMP    ??Subroutine147_0 & 0xFFFF
   1821          
   1822          /******************************************************************************
   1823           * @fn          ZDSecMgrDeviceRemove
   1824           *
   1825           * @brief       Remove device from network.
   1826           *
   1827           * @param       device - [in] ZDSecMgrDevice_t, device info
   1828           *
   1829           * @return      none
   1830           */

   \                                 In  segment BANKED_CODE, align 1, keep-with-next
   1831          void ZDSecMgrDeviceRemove( ZDSecMgrDevice_t* device )
   \                     ZDSecMgrDeviceRemove:
   1832          {
   \   000000   74F6         MOV     A,#-0xa
   \   000002   12....       LCALL   ?BANKED_ENTER_XDATA
   \   000005                ; Saved register size: 10
   \   000005                ; Auto size: 9
   \   000005   74F7         MOV     A,#-0x9
   \   000007   12....       LCALL   ?ALLOC_XSTACK8
   \   00000A   EA           MOV     A,R2
   \   00000B   FE           MOV     R6,A
   \   00000C   EB           MOV     A,R3
   \   00000D   FF           MOV     R7,A
   1833            APSME_RemoveDeviceReq_t remDevReq;
   1834            NLME_LeaveReq_t         leaveReq;
   1835            associated_devices_t*   assoc;
   1836          
   1837            // check if parent, remove the device
   1838            if ( device->parentAddr == NLME_GetShortAddr() )
   \   00000E                ; Setup parameters for call to function NLME_GetShortAddr
   \   00000E   12....       LCALL   ?Subroutine113 & 0xFFFF
   \                     ??CrossCallReturnLabel_250:
   \   000011   7003         JNZ     ??ZDSecMgrDeviceRemove_0
   \   000013   A3           INC     DPTR
   \   000014   E0           MOVX    A,@DPTR
   \   000015   69           XRL     A,R1
   \                     ??ZDSecMgrDeviceRemove_0:
   \   000016   7059         JNZ     ??ZDSecMgrDeviceRemove_1
   1839            {
   1840              // this is the parent of the device
   1841              leaveReq.extAddr        = device->extAddr;
   \   000018   EE           MOV     A,R6
   \   000019   2402         ADD     A,#0x2
   \   00001B   12....       LCALL   ?Subroutine47 & 0xFFFF
   \                     ??CrossCallReturnLabel_73:
   \   00001E   FB           MOV     R3,A
   \   00001F   12....       LCALL   ?Subroutine31 & 0xFFFF
   1842              leaveReq.removeChildren = FALSE;
   \                     ??CrossCallReturnLabel_37:
   \   000022   12....       LCALL   ?XSTACK_DISP0_8
   \   000025   E4           CLR     A
   \   000026   F0           MOVX    @DPTR,A
   1843              leaveReq.rejoin         = FALSE;
   \   000027   7403         MOV     A,#0x3
   \   000029   12....       LCALL   ?XSTACK_DISP0_8
   \   00002C   E4           CLR     A
   \   00002D   12....       LCALL   ?Subroutine97 & 0xFFFF
   1844          
   1845              // find child association
   1846              assoc = AssocGetWithExt( device->extAddr );
   \                     ??CrossCallReturnLabel_148:
   \   000030   12....       LCALL   ?Subroutine76 & 0xFFFF
   \                     ??CrossCallReturnLabel_119:
   \   000033   8A..         MOV     ?V0 + 0,R2
   \   000035   8B..         MOV     ?V0 + 1,R3
   \   000037   A8..         MOV     R0,?V0 + 0
   \   000039   A9..         MOV     R1,?V0 + 1
   1847          
   1848              if ( ( assoc != NULL                            ) &&
   1849                   ( assoc->nodeRelation >= CHILD_RFD         ) &&
   1850                   ( assoc->nodeRelation <= CHILD_FFD_RX_IDLE )    )
   \   00003B   E8           MOV     A,R0
   \   00003C   49           ORL     A,R1
   \   00003D   6055         JZ      ??ZDSecMgrDeviceRemove_2
   \   00003F   8882         MOV     DPL,R0
   \   000041   8983         MOV     DPH,R1
   \   000043   A3           INC     DPTR
   \   000044   A3           INC     DPTR
   \   000045   A3           INC     DPTR
   \   000046   A3           INC     DPTR
   \   000047   E0           MOVX    A,@DPTR
   \   000048   14           DEC     A
   \   000049   C3           CLR     C
   \   00004A   9404         SUBB    A,#0x4
   \   00004C   5046         JNC     ??ZDSecMgrDeviceRemove_2
   1851              {
   1852                // check if associated device is authenticated
   1853                if ( assoc->devStatus & DEV_SEC_AUTH_STATUS )
   \   00004E   8882         MOV     DPL,R0
   \   000050   8983         MOV     DPH,R1
   \   000052   A3           INC     DPTR
   \   000053   A3           INC     DPTR
   \   000054   A3           INC     DPTR
   \   000055   A3           INC     DPTR
   \   000056   A3           INC     DPTR
   \   000057   E0           MOVX    A,@DPTR
   \   000058   A2E3         MOV     C,0xE0 /* A   */.3
   \   00005A   7404         MOV     A,#0x4
   \   00005C   5006         JNC     ??ZDSecMgrDeviceRemove_3
   1854                {
   1855                  leaveReq.silent = FALSE;
   \   00005E   12....       LCALL   ?XSTACK_DISP0_8
   \   000061   E4           CLR     A
   \   000062   8005         SJMP    ??ZDSecMgrDeviceRemove_4
   1856                }
   1857                else
   1858                {
   1859                  leaveReq.silent = TRUE;
   \                     ??ZDSecMgrDeviceRemove_3:
   \   000064   12....       LCALL   ?XSTACK_DISP0_8
   \   000067   7401         MOV     A,#0x1
   1860                }
   1861          
   1862                NLME_LeaveReq( &leaveReq );
   1863              }
   1864            }
   \                     ??ZDSecMgrDeviceRemove_4:
   \   000069   12....       LCALL   ??Subroutine141_0 & 0xFFFF
   \                     ??CrossCallReturnLabel_289:
   \   00006C   12....       LCALL   ??NLME_LeaveReq?relay
   \   00006F   8023         SJMP    ??ZDSecMgrDeviceRemove_2
   1865            else
   1866            {
   1867              // this is not the parent of the device
   1868              remDevReq.parentAddr   = device->parentAddr;
   \                     ??ZDSecMgrDeviceRemove_1:
   \   000071   8E82         MOV     DPL,R6
   \   000073   8F83         MOV     DPH,R7
   \   000075   A3           INC     DPTR
   \   000076   A3           INC     DPTR
   \   000077   12....       LCALL   ??Subroutine159_0 & 0xFFFF
   1869              remDevReq.childExtAddr = device->extAddr;
   1870          
   1871              APSME_RemoveDeviceReq( &remDevReq );
   1872            }
   \                     ??CrossCallReturnLabel_361:
   \   00007A   7405         MOV     A,#0x5
   \   00007C   12....       LCALL   ?XSTACK_DISP0_8
   \   00007F   12....       LCALL   ?Subroutine21 & 0xFFFF
   \                     ??CrossCallReturnLabel_18:
   \   000082   7407         MOV     A,#0x7
   \   000084   12....       LCALL   ?XSTACK_DISP0_8
   \   000087   12....       LCALL   ??Subroutine129_0 & 0xFFFF
   \                     ??CrossCallReturnLabel_223:
   \   00008A   12....       LCALL   ?XSTACK_DISP0_8
   \   00008D   AA82         MOV     R2,DPL
   \   00008F   AB83         MOV     R3,DPH
   \   000091   12....       LCALL   ??APSME_RemoveDeviceReq?relay
   1873          }
   \                     ??ZDSecMgrDeviceRemove_2:
   \   000094   7409         MOV     A,#0x9
   \   000096   80..         SJMP    ??Subroutine134_0

   \                                 In  segment BANKED_CODE, align 1, keep-with-next
   \                     ?Subroutine31:
   \   000000   85..82       MOV     DPL,?XSP + 0
   \   000003   85..83       MOV     DPH,?XSP + 1
   \   000006   EA           MOV     A,R2
   \   000007   F0           MOVX    @DPTR,A
   \   000008   A3           INC     DPTR
   \   000009   EB           MOV     A,R3
   \   00000A   F0           MOVX    @DPTR,A
   \   00000B   7402         MOV     A,#0x2
   \   00000D   22           RET

   \                                 In  segment BANKED_CODE, align 1, keep-with-next
   \                     ?Subroutine76:
   \   000000   12....       LCALL   ??Subroutine157_0 & 0xFFFF
   \                     ??CrossCallReturnLabel_351:
   \   000003   12....       LCALL   ??AssocGetWithExt?relay
   \   000006   22           RET

   \                                 In  segment BANKED_CODE, align 1, keep-with-next
   \                     ??Subroutine159_0:
   \   000000   A3           INC     DPTR
   \   000001   A3           INC     DPTR
   \   000002                REQUIRE ??Subroutine160_0
   \   000002                ; // Fall through to label ??Subroutine160_0
   1874          
   1875          /******************************************************************************
   1876           * @fn          ZDSecMgrDeviceValidateSKKE
   1877           *
   1878           * @brief       Decide whether device is allowed for SKKE.
   1879           *
   1880           * @param       device - [in] ZDSecMgrDevice_t, device info
   1881           *
   1882           * @return      ZStatus_t
   1883           */

   \                                 In  segment BANKED_CODE, align 1, keep-with-next
   1884          ZStatus_t ZDSecMgrDeviceValidateSKKE( ZDSecMgrDevice_t* device )
   \                     ZDSecMgrDeviceValidateSKKE:
   1885          {
   \   000000   74F7         MOV     A,#-0x9
   \   000002   12....       LCALL   ?BANKED_ENTER_XDATA
   \   000005                ; Saved register size: 9
   \   000005                ; Auto size: 4
   \   000005   74FC         MOV     A,#-0x4
   \   000007   12....       LCALL   ?ALLOC_XSTACK8
   \   00000A   EA           MOV     A,R2
   \   00000B   FE           MOV     R6,A
   \   00000C   EB           MOV     A,R3
   \   00000D   FF           MOV     R7,A
   1886            ZStatus_t status;
   1887            uint16 ami;
   1888            uint16 keyNvId;
   1889          
   1890            // get EXT address
   1891            status = ZDSecMgrExtAddrLookup( device->extAddr, &ami );
   \   00000E                ; Setup parameters for call to function ZDSecMgrExtAddrLookup
   \   00000E   85..82       MOV     DPL,?XSP + 0
   \   000011   85..83       MOV     DPH,?XSP + 1
   \   000014   12....       LCALL   ?Subroutine77 & 0xFFFF
   \                     ??CrossCallReturnLabel_310:
   \   000017   12....       LCALL   ??Subroutine126_0 & 0xFFFF
   1892          
   1893            if ( status == ZSuccess )
   \                     ??CrossCallReturnLabel_214:
   \   00001A   700D         JNZ     ??CrossCallReturnLabel_98
   1894            {
   1895              // get MASTER key
   1896              status = ZDSecMgrMasterKeyLookup( ami, &keyNvId );
   \   00001C                ; Setup parameters for call to function ZDSecMgrMasterKeyLookup
   \   00001C   7402         MOV     A,#0x2
   \   00001E   12....       LCALL   ?XSTACK_DISP0_8
   \   000021   12....       LCALL   ?Subroutine53 & 0xFFFF
   1897          
   1898              if ( status == ZSuccess )
   \                     ??CrossCallReturnLabel_262:
   \   000024   7003         JNZ     ??CrossCallReturnLabel_98
   1899              {
   1900                status = ZDSecMgrDeviceEntryAdd( device, ami );
   \   000026                ; Setup parameters for call to function ZDSecMgrDeviceEntryAdd
   \   000026   12....       LCALL   ?Subroutine63 & 0xFFFF
   1901              }
   1902            }
   1903          
   1904            return status;
   \                     ??CrossCallReturnLabel_98:
   \   000029   02....       LJMP    ?Subroutine8 & 0xFFFF
   1905          }

   \                                 In  segment BANKED_CODE, align 1, keep-with-next
   \                     ?Subroutine63:
   \   000000   85..82       MOV     DPL,?XSP + 0
   \   000003   85..83       MOV     DPH,?XSP + 1
   \   000006   12....       LCALL   ?Subroutine109 & 0xFFFF
   \                     ??CrossCallReturnLabel_169:
   \   000009   12....       LCALL   ??ZDSecMgrDeviceEntryAdd?relay
   \   00000C   22           RET
   1906          
   1907          /******************************************************************************
   1908           * @fn          ZDSecMgrDeviceValidateRM (RESIDENTIAL MODE)
   1909           *
   1910           * @brief       Decide whether device is allowed.
   1911           *
   1912           * @param       device - [in] ZDSecMgrDevice_t, device info
   1913           *
   1914           * @return      ZStatus_t
   1915           */

   \                                 In  segment BANKED_CODE, align 1, keep-with-next
   1916          ZStatus_t ZDSecMgrDeviceValidateRM( ZDSecMgrDevice_t* device )
   \                     ZDSecMgrDeviceValidateRM:
   1917          {
   \   000000   C082         PUSH    DPL
   \   000002   C083         PUSH    DPH
   \   000004                ; Saved register size: 2
   \   000004                ; Auto size: 0
   1918            ZStatus_t status;
   1919          
   1920            status = ZSuccess;
   \   000004   7900         MOV     R1,#0x0
   1921          
   1922            (void)device;  // Intentionally unreferenced parameter
   1923          
   1924            // For test purpose, turning off the zgSecurePermitJoin flag will force
   1925            // the trust center to reject any newly joining devices by sending
   1926            // Remove-device to the parents.
   1927            if ( zgSecurePermitJoin == FALSE )
   \   000006   90....       MOV     DPTR,#zgSecurePermitJoin
   \   000009   E0           MOVX    A,@DPTR
   \   00000A   7002         JNZ     ??ZDSecMgrDeviceValidateRM_0
   1928            {
   1929              status = ZNwkUnknownDevice;
   \   00000C   79C8         MOV     R1,#-0x38
   1930            }
   1931          
   1932          
   1933          
   1934          #if 0  // Taken out because the following functionality is only used for test
   1935                 // purpose. A more efficient (above) way is used. It can be put
   1936                 // back in if customers request for a white/black list feature.
   1937                 // ZDSecMgrStoredDeviceList[] is defined in ZDSecMgr.c
   1938          
   1939            // The following code processes the device black list (stored device list)
   1940            // If the joining device is not part of the forbidden device list
   1941            // Return ZSuccess. Otherwise, return ZNwkUnknownDevice. The trust center
   1942            // will send Remove-device and ban the device from joining.
   1943          
   1944            uint8     index;
   1945            uint8*    restricted;
   1946          
   1947            // Look through the stored device list - used for restricted devices
   1948            for ( index = 0; index < ZDSECMGR_STORED_DEVICES; index++ )
   1949            {
   1950              restricted = ZDSecMgrStoredDeviceList[index];
   1951          
   1952              if ( AddrMgrExtAddrEqual( restricted, device->extAddr )  == TRUE )
   1953              {
   1954                // return as unknown device in regards to validation
   1955                status = ZNwkUnknownDevice;
   1956          
   1957                // break from loop
   1958                index = ZDSECMGR_STORED_DEVICES;
   1959              }
   1960            }
   1961          
   1962          #endif
   1963          
   1964            return status;
   \                     ??ZDSecMgrDeviceValidateRM_0:
   \   00000E   02....       LJMP    ??Subroutine139_0 & 0xFFFF
   1965          }
   1966          
   1967          /******************************************************************************
   1968           * @fn          ZDSecMgrDeviceValidateCM (COMMERCIAL MODE)
   1969           *
   1970           * @brief       Decide whether device is allowed.
   1971           *
   1972           * @param       device - [in] ZDSecMgrDevice_t, device info
   1973           *
   1974           * @return      ZStatus_t
   1975           */
   1976          //devtag.pro.security

   \                                 In  segment BANKED_CODE, align 1, keep-with-next
   1977          ZStatus_t ZDSecMgrDeviceValidateCM( ZDSecMgrDevice_t* device )
   \                     ZDSecMgrDeviceValidateCM:
   1978          {
   \   000000   74F4         MOV     A,#-0xc
   \   000002   12....       LCALL   ?BANKED_ENTER_XDATA
   \   000005                ; Saved register size: 12
   \   000005                ; Auto size: 18
   \   000005   74EE         MOV     A,#-0x12
   \   000007   12....       LCALL   ?ALLOC_XSTACK8
   \   00000A   EA           MOV     A,R2
   \   00000B   FE           MOV     R6,A
   \   00000C   EB           MOV     A,R3
   \   00000D   FF           MOV     R7,A
   1979            ZStatus_t status;
   1980            uint16    ami;
   1981            uint8     key[SEC_KEY_LEN];
   1982          
   1983            // implement EXT address and MASTER key policy here -- the total number of
   1984            // Security Manager entries should never exceed the number of EXT addresses
   1985            // and MASTER keys available
   1986          
   1987            // set status based on policy
   1988            //status = ZNwkUnknownDevice;
   1989          
   1990            // set status based on policy
   1991            status = ZSuccess; // ZNwkUnknownDevice;
   1992          
   1993            // get key based on policy
   1994            osal_memcpy( key, ZDSecMgrTCMasterKey, SEC_KEY_LEN);
   \   00000E                ; Setup parameters for call to function osal_memcpy
   \   00000E   75....       MOV     ?V0 + 0,#ZDSecMgrTCMasterKey & 0xff
   \   000011   75....       MOV     ?V0 + 1,#(ZDSecMgrTCMasterKey >> 8) & 0xff
   \   000014   75..80       MOV     ?V0 + 2,#-0x80
   \   000017   78..         MOV     R0,#?V0 + 0
   \   000019   12....       LCALL   ?PUSH_XSTACK_I_THREE
   \   00001C   7C10         MOV     R4,#0x10
   \   00001E   7D00         MOV     R5,#0x0
   \   000020   7405         MOV     A,#0x5
   \   000022   12....       LCALL   ?XSTACK_DISP0_8
   \   000025   12....       LCALL   ?Subroutine84 & 0xFFFF
   \                     ??CrossCallReturnLabel_266:
   \   000028   12....       LCALL   ?DEALLOC_XSTACK8
   1995          
   1996            // if policy, store new EXT address
   1997            status = ZDSecMgrAddrStore( device->nwkAddr, device->extAddr, &ami );
   \   00002B   12....       LCALL   ?Subroutine87 & 0xFFFF
   \                     ??CrossCallReturnLabel_136:
   \   00002E                ; Setup parameters for call to function ZDSecMgrAddrStore
   \   00002E   85..82       MOV     DPL,?XSP + 0
   \   000031   85..83       MOV     DPH,?XSP + 1
   \   000034   8582..       MOV     ?V0 + 2,DPL
   \   000037   8583..       MOV     ?V0 + 3,DPH
   \   00003A   78..         MOV     R0,#?V0 + 2
   \   00003C   12....       LCALL   ?PUSH_XSTACK_I_TWO
   \   00003F   85..82       MOV     DPL,?V0 + 0
   \   000042   8983         MOV     DPH,R1
   \   000044   12....       LCALL   ?Subroutine55 & 0xFFFF
   \                     ??CrossCallReturnLabel_83:
   \   000047   12....       LCALL   ?DEALLOC_XSTACK8
   \   00004A   E9           MOV     A,R1
   \   00004B   F5..         MOV     ?V0 + 2,A
   1998          
   1999            // set the key
   2000            ZDSecMgrMasterKeyLoad( device->extAddr, key );
   \   00004D                ; Setup parameters for call to function ZDSecMgrMasterKeyLoad
   \   00004D   7402         MOV     A,#0x2
   \   00004F   12....       LCALL   ?XSTACK_DISP0_8
   \   000052   AC82         MOV     R4,DPL
   \   000054   AD83         MOV     R5,DPH
   \   000056   85..82       MOV     DPL,?V0 + 0
   \   000059   85..83       MOV     DPH,?V0 + 1
   \   00005C   12....       LCALL   ??Subroutine150_0 & 0xFFFF
   \                     ??CrossCallReturnLabel_304:
   \   00005F   12....       LCALL   ??ZDSecMgrMasterKeyLoad?relay
   2001          
   2002            // if EXT address and MASTER key available -- add device
   2003            if ( status == ZSuccess )
   \   000062   E5..         MOV     A,?V0 + 2
   \   000064   7006         JNZ     ??ZDSecMgrDeviceValidateCM_0
   2004            {
   2005              // add device to internal data - with control
   2006              status = ZDSecMgrDeviceEntryAdd( device, ami );
   \   000066                ; Setup parameters for call to function ZDSecMgrDeviceEntryAdd
   \   000066   12....       LCALL   ?Subroutine63 & 0xFFFF
   2007            }
   \                     ??CrossCallReturnLabel_99:
   \   000069   E9           MOV     A,R1
   \   00006A   F5..         MOV     ?V0 + 2,A
   2008          
   2009            // remove copy of key in RAM
   2010            osal_memset( key, 0x00, SEC_KEY_LEN );
   \                     ??ZDSecMgrDeviceValidateCM_0:
   \   00006C                ; Setup parameters for call to function osal_memset
   \   00006C   7C10         MOV     R4,#0x10
   \   00006E   7D00         MOV     R5,#0x0
   \   000070   7900         MOV     R1,#0x0
   \   000072   7402         MOV     A,#0x2
   \   000074   12....       LCALL   ?XSTACK_DISP0_8
   \   000077   AA82         MOV     R2,DPL
   \   000079   AB83         MOV     R3,DPH
   \   00007B   12....       LCALL   ??osal_memset?relay
   2011          
   2012            return status;
   \   00007E   A9..         MOV     R1,?V0 + 2
   \   000080   7412         MOV     A,#0x12
   \   000082   02....       LJMP    ?Subroutine6 & 0xFFFF
   2013          }

   \                                 In  segment BANKED_CODE, align 1, keep-with-next
   \                     ?Subroutine55:
   \   000000   12....       LCALL   ?Subroutine115 & 0xFFFF
   \                     ??CrossCallReturnLabel_177:
   \   000003   8E82         MOV     DPL,R6
   \   000005   8F83         MOV     DPH,R7
   \   000007   12....       LCALL   ??Subroutine157_0 & 0xFFFF
   \                     ??CrossCallReturnLabel_348:
   \   00000A   12....       LCALL   ??ZDSecMgrAddrStore?relay
   \   00000D   7402         MOV     A,#0x2
   \   00000F   22           RET

   \                                 In  segment BANKED_CODE, align 1, keep-with-next
   \                     ?Subroutine6:
   \   000000   12....       LCALL   ?DEALLOC_XSTACK8
   \   000003                REQUIRE ??Subroutine158_0
   \   000003                ; // Fall through to label ??Subroutine158_0

   \                                 In  segment BANKED_CODE, align 1, keep-with-next
   \                     ??Subroutine158_0:
   \   000000   7F04         MOV     R7,#0x4
   \   000002   02....       LJMP    ?BANKED_LEAVE_XDATA
   2014          
   2015          /******************************************************************************
   2016           * @fn          ZDSecMgrDeviceValidate
   2017           *
   2018           * @brief       Decide whether device is allowed.
   2019           *
   2020           * @param       device - [in] ZDSecMgrDevice_t, device info
   2021           *
   2022           * @return      ZStatus_t
   2023           */

   \                                 In  segment BANKED_CODE, align 1, keep-with-next
   2024          ZStatus_t ZDSecMgrDeviceValidate( ZDSecMgrDevice_t* device )
   \                     ZDSecMgrDeviceValidate:
   2025          {
   \   000000   C082         PUSH    DPL
   \   000002   C083         PUSH    DPH
   \   000004                ; Saved register size: 2
   \   000004                ; Auto size: 0
   2026            ZStatus_t status;
   2027          
   2028          
   2029            if ( ZDSecMgrPermitJoiningEnabled == TRUE )
   \   000004   90....       MOV     DPTR,#ZDSecMgrPermitJoiningEnabled
   \   000007   E0           MOVX    A,@DPTR
   \   000008   6401         XRL     A,#0x1
   \   00000A   701D         JNZ     ??ZDSecMgrDeviceValidate_0
   2030            {
   2031              // device may be joining with a secure flag but it is ultimately the Trust
   2032              // Center that decides -- check if expected pre configured device --
   2033              // override settings
   2034              if ( zgPreConfigKeys == TRUE )
   \   00000C   90....       MOV     DPTR,#zgPreConfigKeys
   \   00000F   E0           MOVX    A,@DPTR
   \   000010   6401         XRL     A,#0x1
   \   000012   8A82         MOV     DPL,R2
   \   000014   8B83         MOV     DPH,R3
   \   000016   A3           INC     DPTR
   \   000017   A3           INC     DPTR
   \   000018   A3           INC     DPTR
   \   000019   A3           INC     DPTR
   \   00001A   A3           INC     DPTR
   \   00001B   A3           INC     DPTR
   \   00001C   7004         JNZ     ??ZDSecMgrDeviceValidate_1
   2035              {
   2036                device->secure = TRUE;
   \   00001E   7401         MOV     A,#0x1
   \   000020   8001         SJMP    ??ZDSecMgrDeviceValidate_2
   2037              }
   2038              else
   2039              {
   2040                device->secure = FALSE;
   \                     ??ZDSecMgrDeviceValidate_1:
   \   000022   E4           CLR     A
   \                     ??ZDSecMgrDeviceValidate_2:
   \   000023   F0           MOVX    @DPTR,A
   2041              }
   2042          
   2043              if ( ZG_CHECK_SECURITY_MODE == ZG_SECURITY_PRO_HIGH )
   2044              {
   2045                status = ZDSecMgrDeviceValidateCM( device );
   2046              }
   2047              else // ( ZG_CHECK_SECURITY_MODE == ZG_SECURITY_RESIDENTIAL )
   2048              {
   2049                status = ZDSecMgrDeviceValidateRM( device );
   \   000024                ; Setup parameters for call to function ZDSecMgrDeviceValidateRM
   \   000024   12....       LCALL   ??ZDSecMgrDeviceValidateRM?relay
   \   000027   8002         SJMP    ??ZDSecMgrDeviceValidate_3
   2050              }
   2051            }
   2052            else
   2053            {
   2054              status = ZNwkUnknownDevice;
   \                     ??ZDSecMgrDeviceValidate_0:
   \   000029   79C8         MOV     R1,#-0x38
   2055            }
   2056          
   2057            return status;
   \                     ??ZDSecMgrDeviceValidate_3:
   \   00002B   02....       LJMP    ??Subroutine139_0 & 0xFFFF
   2058          }
   2059          
   2060          /******************************************************************************
   2061           * @fn          ZDSecMgrDeviceJoin
   2062           *
   2063           * @brief       Try to join this device.
   2064           *
   2065           * @param       device - [in] ZDSecMgrDevice_t, device info
   2066           *
   2067           * @return      ZStatus_t
   2068           */

   \                                 In  segment BANKED_CODE, align 1, keep-with-next
   2069          ZStatus_t ZDSecMgrDeviceJoin( ZDSecMgrDevice_t* device )
   \                     ZDSecMgrDeviceJoin:
   2070          {
   \   000000   74F6         MOV     A,#-0xa
   \   000002   12....       LCALL   ?BANKED_ENTER_XDATA
   \   000005                ; Saved register size: 10
   \   000005                ; Auto size: 2
   \   000005   74FE         MOV     A,#-0x2
   \   000007   12....       LCALL   ?ALLOC_XSTACK8
   \   00000A   EA           MOV     A,R2
   \   00000B   FE           MOV     R6,A
   \   00000C   EB           MOV     A,R3
   \   00000D   FF           MOV     R7,A
   2071            ZStatus_t status;
   2072            uint16    ami;
   2073          
   2074            // attempt to validate device
   2075            status = ZDSecMgrDeviceValidate( device );
   \   00000E                ; Setup parameters for call to function ZDSecMgrDeviceValidate
   \   00000E   12....       LCALL   ??ZDSecMgrDeviceValidate?relay
   \   000011   E9           MOV     A,R1
   \   000012   F5..         MOV     ?V0 + 0,A
   2076          
   2077            if ( status == ZSuccess )
   \   000014   7029         JNZ     ??ZDSecMgrDeviceJoin_0
   2078            {
   2079              if ( ZG_CHECK_SECURITY_MODE == ZG_SECURITY_PRO_HIGH )
   2080              {
   2081                ZDSecMgrDeviceCtrlSetup( device );
   2082              }
   2083              else // ( ZG_CHECK_SECURITY_MODE == ZG_SECURITY_RESIDENTIAL )
   2084              {
   2085                // Add the device to the address manager
   2086                ZDSecMgrAddrStore( device->nwkAddr, device->extAddr, &ami );
   \   000016                ; Setup parameters for call to function ZDSecMgrAddrStore
   \   000016   85..82       MOV     DPL,?XSP + 0
   \   000019   85..83       MOV     DPH,?XSP + 1
   \   00001C   8582..       MOV     ?V0 + 0,DPL
   \   00001F   8583..       MOV     ?V0 + 1,DPH
   \   000022   78..         MOV     R0,#?V0 + 0
   \   000024   12....       LCALL   ?PUSH_XSTACK_I_TWO
   \   000027   8E82         MOV     DPL,R6
   \   000029   8F83         MOV     DPH,R7
   \   00002B   A3           INC     DPTR
   \   00002C   A3           INC     DPTR
   \   00002D   12....       LCALL   ?Subroutine55 & 0xFFFF
   \                     ??CrossCallReturnLabel_84:
   \   000030   12....       LCALL   ?DEALLOC_XSTACK8
   2087                //send the nwk key data to the joining device
   2088                status = ZDSecMgrSendNwkKey( device );
   \   000033                ; Setup parameters for call to function ZDSecMgrSendNwkKey
   \   000033   EE           MOV     A,R6
   \   000034   FA           MOV     R2,A
   \   000035   EF           MOV     A,R7
   \   000036   FB           MOV     R3,A
   \   000037   12....       LCALL   ??ZDSecMgrSendNwkKey?relay
   \   00003A   E9           MOV     A,R1
   \   00003B   F5..         MOV     ?V0 + 0,A
   \   00003D   8007         SJMP    ??ZDSecMgrDeviceJoin_1
   2089              }
   2090            }
   2091            else
   2092            {
   2093              // not allowed, remove the device
   2094              ZDSecMgrDeviceRemove( device );
   \                     ??ZDSecMgrDeviceJoin_0:
   \   00003F                ; Setup parameters for call to function ZDSecMgrDeviceRemove
   \   00003F   EE           MOV     A,R6
   \   000040   FA           MOV     R2,A
   \   000041   EF           MOV     A,R7
   \   000042   FB           MOV     R3,A
   \   000043   12....       LCALL   ??ZDSecMgrDeviceRemove?relay
   2095            }
   2096          
   2097            return status;
   \                     ??ZDSecMgrDeviceJoin_1:
   \   000046   A9..         MOV     R1,?V0 + 0
   \   000048   02....       LJMP    ?Subroutine0 & 0xFFFF
   2098          }
   2099          
   2100          /******************************************************************************
   2101           * @fn          ZDSecMgrDeviceJoinDirect
   2102           *
   2103           * @brief       Try to join this device as a direct child.
   2104           *
   2105           * @param       device - [in] ZDSecMgrDevice_t, device info
   2106           *
   2107           * @return      ZStatus_t
   2108           */

   \                                 In  segment BANKED_CODE, align 1, keep-with-next
   2109          ZStatus_t ZDSecMgrDeviceJoinDirect( ZDSecMgrDevice_t* device )
   \                     ZDSecMgrDeviceJoinDirect:
   2110          {
   \   000000   74F7         MOV     A,#-0x9
   \   000002   12....       LCALL   ?BANKED_ENTER_XDATA
   \   000005                ; Saved register size: 9
   \   000005                ; Auto size: 0
   \   000005   EA           MOV     A,R2
   \   000006   FE           MOV     R6,A
   \   000007   EB           MOV     A,R3
   \   000008   FF           MOV     R7,A
   2111            ZStatus_t status;
   2112          
   2113            status = ZDSecMgrDeviceJoin( device );
   \   000009                ; Setup parameters for call to function ZDSecMgrDeviceJoin
   \   000009   12....       LCALL   ??ZDSecMgrDeviceJoin?relay
   \   00000C   E9           MOV     A,R1
   \   00000D   F5..         MOV     ?V0 + 0,A
   2114          
   2115            if ( status == ZSuccess )
   \   00000F   700D         JNZ     ??ZDSecMgrDeviceJoinDirect_0
   2116            {
   2117              // set association status to authenticated
   2118              ZDSecMgrAssocDeviceAuth( AssocGetWithShort( device->nwkAddr ) );
   \   000011                ; Setup parameters for call to function ZDSecMgrAssocDeviceAuth
   \   000011                ; Setup parameters for call to function AssocGetWithShort
   \   000011   8E82         MOV     DPL,R6
   \   000013   8F83         MOV     DPH,R7
   \   000015   12....       LCALL   ??Subroutine150_0 & 0xFFFF
   2119            }
   \                     ??CrossCallReturnLabel_305:
   \   000018   12....       LCALL   ??AssocGetWithShort?relay
   \   00001B   12....       LCALL   ??ZDSecMgrAssocDeviceAuth?relay
   2120          
   2121            return status;
   \                     ??ZDSecMgrDeviceJoinDirect_0:
   \   00001E   A9..         MOV     R1,?V0 + 0
   \   000020   02....       LJMP    ??Subroutine147_0 & 0xFFFF
   2122          }
   2123          
   2124          /******************************************************************************
   2125           * @fn          ZDSecMgrDeviceJoinFwd
   2126           *
   2127           * @brief       Forward join to Trust Center.
   2128           *
   2129           * @param       device - [in] ZDSecMgrDevice_t, device info
   2130           *
   2131           * @return      ZStatus_t
   2132           */

   \                                 In  segment BANKED_CODE, align 1, keep-with-next
   2133          ZStatus_t ZDSecMgrDeviceJoinFwd( ZDSecMgrDevice_t* device )
   \                     ZDSecMgrDeviceJoinFwd:
   2134          {
   \   000000   C082         PUSH    DPL
   \   000002   C083         PUSH    DPH
   \   000004                ; Saved register size: 2
   \   000004                ; Auto size: 8
   \   000004   74F8         MOV     A,#-0x8
   \   000006   12....       LCALL   ?ALLOC_XSTACK8
   2135            ZStatus_t               status;
   2136            APSME_UpdateDeviceReq_t req;
   2137          
   2138            // forward any joining device to the Trust Center -- the Trust Center will
   2139            // decide if the device is allowed to join
   2140            status = ZSuccess;
   2141          
   2142            // forward authorization to the Trust Center
   2143            req.dstAddr    = APSME_TRUSTCENTER_NWKADDR;
   \   000009   85..82       MOV     DPL,?XSP + 0
   \   00000C   85..83       MOV     DPH,?XSP + 1
   \   00000F   E4           CLR     A
   \   000010   F0           MOVX    @DPTR,A
   \   000011   A3           INC     DPTR
   \   000012   F0           MOVX    @DPTR,A
   2144            req.devAddr    = device->nwkAddr;
   \   000013   8A82         MOV     DPL,R2
   \   000015   8B83         MOV     DPH,R3
   \   000017   12....       LCALL   ??Subroutine138_0 & 0xFFFF
   \                     ??CrossCallReturnLabel_272:
   \   00001A   12....       LCALL   ?XSTACK_DISP0_8
   \   00001D   12....       LCALL   ?Subroutine18 & 0xFFFF
   2145            req.devExtAddr = device->extAddr;
   \                     ??CrossCallReturnLabel_8:
   \   000020   12....       LCALL   ?XSTACK_DISP0_8
   \   000023   E8           MOV     A,R0
   \   000024   F0           MOVX    @DPTR,A
   \   000025   A3           INC     DPTR
   \   000026   E9           MOV     A,R1
   \   000027   12....       LCALL   ?Subroutine27 & 0xFFFF
   2146          
   2147            // set security status, option for router to reject if policy set
   2148            if ( (device->devStatus & DEV_HIGH_SEC_STATUS) )
   \                     ??CrossCallReturnLabel_30:
   \   00002A   E0           MOVX    A,@DPTR
   \   00002B   A2E7         MOV     C,0xE0 /* A   */.7
   \   00002D   502E         JNC     ??ZDSecMgrDeviceJoinFwd_0
   2149            {
   2150              if ( device->devStatus & DEV_REJOIN_STATUS )
   \   00002F   A2E6         MOV     C,0xE0 /* A   */.6
   \   000031   5021         JNC     ??ZDSecMgrDeviceJoinFwd_1
   2151              {
   2152                if ( device->secure == TRUE )
   \   000033   8A82         MOV     DPL,R2
   \   000035   8B83         MOV     DPH,R3
   \   000037   A3           INC     DPTR
   \   000038   A3           INC     DPTR
   \   000039   A3           INC     DPTR
   \   00003A   A3           INC     DPTR
   \   00003B   A3           INC     DPTR
   \   00003C   A3           INC     DPTR
   \   00003D   E0           MOVX    A,@DPTR
   \   00003E   6401         XRL     A,#0x1
   \   000040   7009         JNZ     ??ZDSecMgrDeviceJoinFwd_2
   2153                {
   2154                  req.status = APSME_UD_HIGH_SECURED_REJOIN;
   \   000042   7406         MOV     A,#0x6
   \   000044   12....       LCALL   ?XSTACK_DISP0_8
   \   000047   7404         MOV     A,#0x4
   \   000049   803D         SJMP    ??ZDSecMgrDeviceJoinFwd_3
   2155                }
   2156                else
   2157                {
   2158                  req.status = APSME_UD_HIGH_UNSECURED_REJOIN;
   \                     ??ZDSecMgrDeviceJoinFwd_2:
   \   00004B   7406         MOV     A,#0x6
   \   00004D   12....       LCALL   ?XSTACK_DISP0_8
   \   000050   7407         MOV     A,#0x7
   \   000052   8034         SJMP    ??ZDSecMgrDeviceJoinFwd_3
   2159                }
   2160              }
   2161              else
   2162              {
   2163                req.status = APSME_UD_HIGH_UNSECURED_JOIN;
   \                     ??ZDSecMgrDeviceJoinFwd_1:
   \   000054   7406         MOV     A,#0x6
   \   000056   12....       LCALL   ?XSTACK_DISP0_8
   \   000059   7405         MOV     A,#0x5
   \   00005B   802B         SJMP    ??ZDSecMgrDeviceJoinFwd_3
   2164              }
   2165            }
   2166            else
   2167            {
   2168              if ( device->devStatus & DEV_REJOIN_STATUS )
   \                     ??ZDSecMgrDeviceJoinFwd_0:
   \   00005D   A2E6         MOV     C,0xE0 /* A   */.6
   \   00005F   5020         JNC     ??ZDSecMgrDeviceJoinFwd_4
   2169              {
   2170                if ( device->secure == TRUE )
   \   000061   8A82         MOV     DPL,R2
   \   000063   8B83         MOV     DPH,R3
   \   000065   A3           INC     DPTR
   \   000066   A3           INC     DPTR
   \   000067   A3           INC     DPTR
   \   000068   A3           INC     DPTR
   \   000069   A3           INC     DPTR
   \   00006A   A3           INC     DPTR
   \   00006B   E0           MOVX    A,@DPTR
   \   00006C   6401         XRL     A,#0x1
   \   00006E   7008         JNZ     ??ZDSecMgrDeviceJoinFwd_5
   2171                {
   2172                  req.status = APSME_UD_STANDARD_SECURED_REJOIN;
   \   000070   7406         MOV     A,#0x6
   \   000072   12....       LCALL   ?XSTACK_DISP0_8
   \   000075   E4           CLR     A
   \   000076   8010         SJMP    ??ZDSecMgrDeviceJoinFwd_3
   2173                }
   2174                else
   2175                {
   2176                  req.status = APSME_UD_STANDARD_UNSECURED_REJOIN;
   \                     ??ZDSecMgrDeviceJoinFwd_5:
   \   000078   7406         MOV     A,#0x6
   \   00007A   12....       LCALL   ?XSTACK_DISP0_8
   \   00007D   7403         MOV     A,#0x3
   \   00007F   8007         SJMP    ??ZDSecMgrDeviceJoinFwd_3
   2177                }
   2178              }
   2179              else
   2180              {
   2181                req.status = APSME_UD_STANDARD_UNSECURED_JOIN;
   \                     ??ZDSecMgrDeviceJoinFwd_4:
   \   000081   7406         MOV     A,#0x6
   \   000083   12....       LCALL   ?XSTACK_DISP0_8
   \   000086   7401         MOV     A,#0x1
   \                     ??ZDSecMgrDeviceJoinFwd_3:
   \   000088   F0           MOVX    @DPTR,A
   2182              }
   2183            }
   2184          
   2185            if ( ZG_CHECK_SECURITY_MODE == ZG_SECURITY_PRO_HIGH )
   2186            {
   2187              req.apsSecure = TRUE;
   2188            }
   2189            else
   2190            {
   2191              req.apsSecure = FALSE;
   \   000089   7407         MOV     A,#0x7
   \   00008B   12....       LCALL   ?XSTACK_DISP0_8
   \   00008E   E4           CLR     A
   \   00008F   12....       LCALL   ??Subroutine141_0 & 0xFFFF
   2192            }
   2193          
   2194            // send and APSME_UPDATE_DEVICE request to the trust center
   2195            status = APSME_UpdateDeviceReq( &req );
   2196          
   2197            return status;
   \                     ??CrossCallReturnLabel_290:
   \   000092   12....       LCALL   ??APSME_UpdateDeviceReq?relay
   \   000095   7408         MOV     A,#0x8
   \   000097   02....       LJMP    ??Subroutine128_0 & 0xFFFF
   2198          }

   \                                 In  segment BANKED_CODE, align 1, keep-with-next
   \                     ?Subroutine18:
   \   000000   12....       LCALL   ?Subroutine95 & 0xFFFF
   \                     ??CrossCallReturnLabel_278:
   \   000003   8A82         MOV     DPL,R2
   \   000005   8B83         MOV     DPH,R3
   \   000007   A3           INC     DPTR
   \   000008   A3           INC     DPTR
   \   000009   12....       LCALL   ?Subroutine108 & 0xFFFF
   \                     ??CrossCallReturnLabel_364:
   \   00000C   7404         MOV     A,#0x4
   \   00000E   22           RET
   2199          
   2200          /******************************************************************************
   2201           * @fn          ZDSecMgrDeviceNew
   2202           *
   2203           * @brief       Process a new device.
   2204           *
   2205           * @param       device - [in] ZDSecMgrDevice_t, device info
   2206           *
   2207           * @return      ZStatus_t
   2208           */

   \                                 In  segment BANKED_CODE, align 1, keep-with-next
   2209          ZStatus_t ZDSecMgrDeviceNew( ZDSecMgrDevice_t* joiner )
   \                     ZDSecMgrDeviceNew:
   2210          {
   \   000000   C082         PUSH    DPL
   \   000002   C083         PUSH    DPH
   \   000004                ; Saved register size: 2
   \   000004                ; Auto size: 0
   2211            ZStatus_t status;
   2212          
   2213            if ( ( ZG_BUILD_COORDINATOR_TYPE ) && ( ZG_DEVICE_COORDINATOR_TYPE ) )
   2214            {
   2215              // try to join this device
   2216              status = ZDSecMgrDeviceJoinDirect( joiner );
   2217            }
   2218            else
   2219            {
   2220              status = ZDSecMgrDeviceJoinFwd( joiner );
   2221            }
   2222          
   2223            return status;
   \   000004                ; Setup parameters for call to function ZDSecMgrDeviceJoinDirect
   \   000004   12....       LCALL   ??ZDSecMgrDeviceJoinDirect?relay
   \   000007   80..         SJMP    ??Subroutine139_0
   2224          }
   2225          
   2226          /******************************************************************************
   2227           * @fn          ZDSecMgrAssocDeviceAuth
   2228           *
   2229           * @brief       Set associated device status to authenticated
   2230           *
   2231           * @param       assoc - [in, out] associated_devices_t
   2232           *
   2233           * @return      none
   2234           */

   \                                 In  segment BANKED_CODE, align 1, keep-with-next
   2235          void ZDSecMgrAssocDeviceAuth( associated_devices_t* assoc )
   \                     ZDSecMgrAssocDeviceAuth:
   2236          {
   \   000000   C082         PUSH    DPL
   \   000002   C083         PUSH    DPH
   \   000004                ; Saved register size: 2
   \   000004                ; Auto size: 0
   2237            if ( assoc != NULL )
   \   000004   EA           MOV     A,R2
   \   000005   4B           ORL     A,R3
   \   000006   600D         JZ      ??ZDSecMgrAssocDeviceAuth_0
   2238            {
   2239              assoc->devStatus |= DEV_SEC_AUTH_STATUS;
   \   000008   8A82         MOV     DPL,R2
   \   00000A   8B83         MOV     DPH,R3
   \   00000C   A3           INC     DPTR
   \   00000D   A3           INC     DPTR
   \   00000E   A3           INC     DPTR
   \   00000F   A3           INC     DPTR
   \   000010   A3           INC     DPTR
   \   000011   E0           MOVX    A,@DPTR
   \   000012   D2E3         SETB    0xE0 /* A   */.3
   \   000014   F0           MOVX    @DPTR,A
   2240            }
   2241          }
   \                     ??ZDSecMgrAssocDeviceAuth_0:
   \   000015   80..         SJMP    ??Subroutine139_0
   2242          
   2243          /******************************************************************************
   2244           * @fn          ZDSecMgrAuthInitiate
   2245           *
   2246           * @brief       Initiate entity authentication
   2247           *
   2248           * @param       responder - [in] responder EXT address
   2249           *
   2250           * @return      none
   2251           */

   \                                 In  segment BANKED_CODE, align 1, keep-with-next
   2252          void ZDSecMgrAuthInitiate( uint8* responder )
   \                     ZDSecMgrAuthInitiate:
   2253          {
   \   000000   74F7         MOV     A,#-0x9
   \   000002   12....       LCALL   ?BANKED_ENTER_XDATA
   \   000005                ; Saved register size: 9
   \   000005                ; Auto size: 7
   \   000005   74F9         MOV     A,#-0x7
   \   000007   12....       LCALL   ?ALLOC_XSTACK8
   \   00000A   EA           MOV     A,R2
   \   00000B   FE           MOV     R6,A
   \   00000C   EB           MOV     A,R3
   \   00000D   FF           MOV     R7,A
   2254            APSME_AuthenticateReq_t req;
   2255          
   2256          
   2257            // make sure NWK address is available
   2258            if ( APSME_LookupNwkAddr( responder, &req.nwkAddr ) )
   \   00000E                ; Setup parameters for call to function APSME_LookupNwkAddr
   \   00000E   85..82       MOV     DPL,?XSP + 0
   \   000011   85..83       MOV     DPH,?XSP + 1
   \   000014   AC82         MOV     R4,DPL
   \   000016   AD83         MOV     R5,DPH
   \   000018   12....       LCALL   ??APSME_LookupNwkAddr?relay
   \   00001B   E9           MOV     A,R1
   \   00001C   601C         JZ      ??ZDSecMgrAuthInitiate_0
   2259            {
   2260              // set request fields
   2261              req.extAddr   = responder;
   \   00001E   7402         MOV     A,#0x2
   \   000020   12....       LCALL   ?XSTACK_DISP0_8
   \   000023   EE           MOV     A,R6
   \   000024   F0           MOVX    @DPTR,A
   \   000025   A3           INC     DPTR
   \   000026   EF           MOV     A,R7
   \   000027   F0           MOVX    @DPTR,A
   2262              req.action    = APSME_EA_INITIATE;
   \   000028   7406         MOV     A,#0x6
   \   00002A   12....       LCALL   ?XSTACK_DISP0_8
   \   00002D   E4           CLR     A
   \   00002E   F0           MOVX    @DPTR,A
   2263              req.challenge = NULL;
   \   00002F   7404         MOV     A,#0x4
   \   000031   12....       LCALL   ?XSTACK_DISP0_8
   \   000034   12....       LCALL   ?Subroutine17 & 0xFFFF
   2264          
   2265              // start EA processing
   2266              APSME_AuthenticateReq( &req );
   2267            }
   \                     ??CrossCallReturnLabel_285:
   \   000037   12....       LCALL   ??APSME_AuthenticateReq?relay
   2268          }
   \                     ??ZDSecMgrAuthInitiate_0:
   \   00003A   7407         MOV     A,#0x7
   \   00003C   02....       LJMP    ??Subroutine146_0 & 0xFFFF

   \                                 In  segment BANKED_CODE, align 1, keep-with-next
   \                     ?Subroutine17:
   \   000000   E4           CLR     A
   \   000001   F0           MOVX    @DPTR,A
   \   000002   A3           INC     DPTR
   \   000003                REQUIRE ??Subroutine141_0
   \   000003                ; // Fall through to label ??Subroutine141_0
   2269          
   2270          /******************************************************************************
   2271           * @fn          ZDSecMgrAuthNwkKey
   2272           *
   2273           * @brief       Handle next step in authentication process
   2274           *
   2275           * @param       none
   2276           *
   2277           * @return      none
   2278           */

   \                                 In  segment BANKED_CODE, align 1, keep-with-next
   2279          void ZDSecMgrAuthNwkKey()
   \                     ZDSecMgrAuthNwkKey:
   2280          {
   \   000000   C082         PUSH    DPL
   \   000002   C083         PUSH    DPH
   \   000004                ; Saved register size: 2
   \   000004                ; Auto size: 0
   2281            if ( devState == DEV_END_DEVICE_UNAUTH )
   \   000004   90....       MOV     DPTR,#devState
   \   000007   E0           MOVX    A,@DPTR
   \   000008   6405         XRL     A,#0x5
   \   00000A   700C         JNZ     ??ZDSecMgrAuthNwkKey_0
   2282            {
   2283              if ( ZG_CHECK_SECURITY_MODE == ZG_SECURITY_PRO_HIGH )
   2284              {
   2285                uint8 parent[Z_EXTADDR_LEN];
   2286          
   2287                // get parent's EXT address
   2288                NLME_GetCoordExtAddr( parent );
   2289          
   2290                // begin entity authentication with parent
   2291                ZDSecMgrAuthInitiate( parent );
   2292              }
   2293              else
   2294              {
   2295                // inform ZDO that device has been authenticated
   2296                osal_set_event ( ZDAppTaskID, ZDO_DEVICE_AUTH );
   \   00000C                ; Setup parameters for call to function osal_set_event
   \   00000C   7A80         MOV     R2,#-0x80
   \   00000E   7B00         MOV     R3,#0x0
   \   000010   90....       MOV     DPTR,#ZDAppTaskID
   \   000013   E0           MOVX    A,@DPTR
   \   000014   F9           MOV     R1,A
   \   000015   12....       LCALL   ??osal_set_event?relay
   2297              }
   2298            }
   2299          }
   \                     ??ZDSecMgrAuthNwkKey_0:
   \   000018   80..         SJMP    ??Subroutine139_0
   2300          
   2301          /******************************************************************************
   2302           * PUBLIC FUNCTIONS
   2303           */
   2304          /******************************************************************************
   2305           * @fn          ZDSecMgrInit
   2306           *
   2307           * @brief       Initialize ZigBee Device Security Manager.
   2308           *
   2309           * @param       state - device initialization state
   2310           *
   2311           * @return      none
   2312           */
   2313          #if ( ADDRMGR_CALLBACK_ENABLED == 1 )
   2314          void ZDSecMgrAddrMgrCB( uint8 update, AddrMgrEntry_t* newEntry, AddrMgrEntry_t* oldEntry );
   2315          void ZDSecMgrAddrMgrCB( uint8           update,
   2316                                  AddrMgrEntry_t* newEntry,
   2317                                  AddrMgrEntry_t* oldEntry )
   2318          {
   2319            (void)update;
   2320            (void)newEntry;
   2321            (void)oldEntry;
   2322          }
   2323          #endif // ( ADDRMGR_CALLBACK_ENABLED == 1 )
   2324          

   \                                 In  segment BANKED_CODE, align 1, keep-with-next
   \                     ?Subroutine4:
   \   000000   C082         PUSH    DPL
   \   000002   C083         PUSH    DPH
   \   000004                ; Saved register size: 2
   \   000004                ; Auto size: 0
   \   000004                ; Setup parameters for call to function APSME_SecurityNM
   \   000004                ; Saved register size: 2
   \   000004                ; Auto size: 0
   \   000004                ; Setup parameters for call to function APSME_SecurityNM
   \   000004   12....       LCALL   ??APSME_SecurityNM?relay
   \   000007                REQUIRE ??Subroutine139_0
   \   000007                ; // Fall through to label ??Subroutine139_0

   \                                 In  segment BANKED_CODE, align 1, keep-with-next
   2325          void ZDSecMgrInit(uint8 state)
   \                     ZDSecMgrInit:
   \   000000   80..         SJMP    ?Subroutine4
   2326          {
   2327            if ( (ZG_CHECK_SECURITY_MODE == ZG_SECURITY_PRO_HIGH)
   2328                || (ZG_CHECK_SECURITY_MODE == ZG_SECURITY_SE_STANDARD) )
   2329            {
   2330              // initialize sub modules
   2331              ZDSecMgrEntryInit(state);
   2332          
   2333              if ( ( ZG_BUILD_COORDINATOR_TYPE ) && ( ZG_DEVICE_COORDINATOR_TYPE ) )
   2334              {
   2335                ZDSecMgrCtrlInit();
   2336              }
   2337          
   2338              // register with Address Manager
   2339          #if ( ADDRMGR_CALLBACK_ENABLED == 1 )
   2340              AddrMgrRegister( ADDRMGR_REG_SECURITY, ZDSecMgrAddrMgrCB );
   2341          #endif
   2342            }
   2343          
   2344            if ( ZG_CHECK_SECURITY_MODE == ZG_SECURITY_PRO_HIGH )
   2345            {
   2346              // configure SKA slot data
   2347              APSME_SKA_SlotInit( ZDSECMGR_SKA_SLOT_MAX );
   2348            }
   2349          
   2350            if ( ZG_SECURE_ENABLED )
   2351            {
   2352              if ( ( ZG_BUILD_COORDINATOR_TYPE ) && ( ZG_DEVICE_COORDINATOR_TYPE ) )
   2353              {
   2354                // setup joining permissions
   2355                ZDSecMgrPermitJoiningEnabled = TRUE;
   2356                ZDSecMgrPermitJoiningTimed   = FALSE;
   2357              }
   2358            }
   2359          
   2360            // configure security based on security mode and type of device
   2361            ZDSecMgrConfig();
   2362          }
   2363          
   2364          /******************************************************************************
   2365           * @fn          ZDSecMgrConfig
   2366           *
   2367           * @brief       Configure ZigBee Device Security Manager.
   2368           *
   2369           * @param       none
   2370           *
   2371           * @return      none
   2372           */

   \                                 In  segment BANKED_CODE, align 1, keep-with-next
   2373          void ZDSecMgrConfig( void )
   \                     ZDSecMgrConfig:
   \   000000   80..         SJMP    ?Subroutine4
   2374          {
   2375            if ( ZG_SECURE_ENABLED )
   2376            {
   2377              SSP_Init();
   2378          
   2379              if ( (ZG_CHECK_SECURITY_MODE == ZG_SECURITY_PRO_HIGH)
   2380                  || (ZG_CHECK_SECURITY_MODE == ZG_SECURITY_SE_STANDARD) )
   2381              {
   2382                if ( ( ZG_BUILD_COORDINATOR_TYPE ) && ( ZG_DEVICE_COORDINATOR_TYPE ) )
   2383                {
   2384                  // COMMERCIAL MODE - COORDINATOR DEVICE
   2385                  APSME_SecurityCM_CD();
   2386                }
   2387                else if ( ZSTACK_ROUTER_BUILD )
   2388                {
   2389                  // COMMERCIAL MODE - ROUTER DEVICE
   2390                  APSME_SecurityCM_RD();
   2391                }
   2392                else
   2393                {
   2394                  // COMMERCIAL MODE - END DEVICE
   2395                  APSME_SecurityCM_ED();
   2396                }
   2397              }
   2398              else // ( ZG_CHECK_SECURITY_MODE == ZG_SECURITY_RESIDENTIAL )
   2399              {
   2400                if ( ( ZG_BUILD_COORDINATOR_TYPE ) && ( ZG_DEVICE_COORDINATOR_TYPE ) )
   2401                {
   2402                  // RESIDENTIAL MODE - COORDINATOR DEVICE
   2403                  APSME_SecurityRM_CD();
   2404                }
   2405                else if ( ZSTACK_ROUTER_BUILD )
   2406                {
   2407                  // RESIDENTIAL MODE - ROUTER DEVICE
   2408                  APSME_SecurityRM_RD();
   2409                }
   2410                else
   2411                {
   2412                  // RESIDENTIAL MODE - END DEVICE
   2413                  APSME_SecurityRM_ED();
   2414                }
   2415              }
   2416            }
   2417            else
   2418            {
   2419              // NO SECURITY
   2420              APSME_SecurityNM();
   2421            }
   2422          }
   2423          
   2424          /******************************************************************************
   2425           * @fn          ZDSecMgrPermitJoining
   2426           *
   2427           * @brief       Process request to change joining permissions.
   2428           *
   2429           * @param       duration - [in] timed duration for join in seconds
   2430           *                         - 0x00 not allowed
   2431           *                         - 0xFF allowed without timeout
   2432           *
   2433           * @return      uint8 - success(TRUE:FALSE)
   2434           */

   \                                 In  segment BANKED_CODE, align 1, keep-with-next
   2435          uint8 ZDSecMgrPermitJoining( uint8 duration )
   \                     ZDSecMgrPermitJoining:
   2436          {
   \   000000   C082         PUSH    DPL
   \   000002   C083         PUSH    DPH
   \   000004                ; Saved register size: 2
   \   000004                ; Auto size: 0
   \   000004   E9           MOV     A,R1
   \   000005   F8           MOV     R0,A
   2437            uint8 accept;
   2438          
   2439            ZDSecMgrPermitJoiningTimed = FALSE;
   \   000006   90....       MOV     DPTR,#ZDSecMgrPermitJoiningTimed
   \   000009   E4           CLR     A
   \   00000A   F0           MOVX    @DPTR,A
   2440          
   2441            if ( duration > 0 )
   \   00000B   E8           MOV     A,R0
   \   00000C   90....       MOV     DPTR,#ZDSecMgrPermitJoiningEnabled
   \   00000F   600F         JZ      ??ZDSecMgrPermitJoining_0
   2442            {
   2443              ZDSecMgrPermitJoiningEnabled = TRUE;
   \   000011   7401         MOV     A,#0x1
   \   000013   F0           MOVX    @DPTR,A
   2444          
   2445              if ( duration != 0xFF )
   \   000014   74FF         MOV     A,#-0x1
   \   000016   68           XRL     A,R0
   \   000017   6009         JZ      ??ZDSecMgrPermitJoining_1
   2446              {
   2447                ZDSecMgrPermitJoiningTimed = TRUE;
   \   000019   90....       MOV     DPTR,#ZDSecMgrPermitJoiningTimed
   \   00001C   7401         MOV     A,#0x1
   \   00001E   8001         SJMP    ??ZDSecMgrPermitJoining_2
   2448              }
   2449            }
   2450            else
   2451            {
   2452              ZDSecMgrPermitJoiningEnabled = FALSE;
   \                     ??ZDSecMgrPermitJoining_0:
   \   000020   E4           CLR     A
   \                     ??ZDSecMgrPermitJoining_2:
   \   000021   F0           MOVX    @DPTR,A
   2453            }
   2454          
   2455            accept = TRUE;
   2456          
   2457            return accept;
   \                     ??ZDSecMgrPermitJoining_1:
   \   000022   7901         MOV     R1,#0x1
   \   000024   80..         SJMP    ??Subroutine139_0
   2458          }
   2459          
   2460          /******************************************************************************
   2461           * @fn          ZDSecMgrPermitJoiningTimeout
   2462           *
   2463           * @brief       Process permit joining timeout
   2464           *
   2465           * @param       none
   2466           *
   2467           * @return      none
   2468           */

   \                                 In  segment BANKED_CODE, align 1, keep-with-next
   2469          void ZDSecMgrPermitJoiningTimeout( void )
   \                     ZDSecMgrPermitJoiningTimeout:
   2470          {
   \   000000   C082         PUSH    DPL
   \   000002   C083         PUSH    DPH
   \   000004                ; Saved register size: 2
   \   000004                ; Auto size: 0
   2471            if ( ZDSecMgrPermitJoiningTimed == TRUE )
   \   000004   90....       MOV     DPTR,#ZDSecMgrPermitJoiningTimed
   \   000007   E0           MOVX    A,@DPTR
   \   000008   6401         XRL     A,#0x1
   \   00000A   7009         JNZ     ??ZDSecMgrPermitJoiningTimeout_0
   2472            {
   2473              ZDSecMgrPermitJoiningEnabled = FALSE;
   \   00000C   90....       MOV     DPTR,#ZDSecMgrPermitJoiningEnabled
   \   00000F   E4           CLR     A
   \   000010   F0           MOVX    @DPTR,A
   2474              ZDSecMgrPermitJoiningTimed   = FALSE;
   \   000011   90....       MOV     DPTR,#ZDSecMgrPermitJoiningTimed
   \   000014   F0           MOVX    @DPTR,A
   2475            }
   2476          }
   \                     ??ZDSecMgrPermitJoiningTimeout_0:
   \   000015   80..         SJMP    ??Subroutine139_0
   2477          
   2478          /******************************************************************************
   2479           * @fn          ZDSecMgrNewDeviceEvent
   2480           *
   2481           * @brief       Process a the new device event, if found reset new device
   2482           *              event/timer.
   2483           *
   2484           * @param       none
   2485           *
   2486           * @return      uint8 - found(TRUE:FALSE)
   2487           */

   \                                 In  segment BANKED_CODE, align 1, keep-with-next
   2488          uint8 ZDSecMgrNewDeviceEvent( void )
   \                     ZDSecMgrNewDeviceEvent:
   2489          {
   \   000000   74F4         MOV     A,#-0xc
   \   000002   12....       LCALL   ?BANKED_ENTER_XDATA
   \   000005                ; Saved register size: 12
   \   000005                ; Auto size: 23
   \   000005   74E9         MOV     A,#-0x17
   \   000007   12....       LCALL   ?ALLOC_XSTACK8
   2490            uint8                 found;
   2491            ZDSecMgrDevice_t      device;
   2492            AddrMgrEntry_t        addrEntry;
   2493            associated_devices_t* assoc;
   2494            ZStatus_t             status;
   2495          
   2496            // initialize return results
   2497            found = FALSE;
   \   00000A   75..00       MOV     ?V0 + 0,#0x0
   2498          
   2499            // look for device in the security init state
   2500            assoc = AssocMatchDeviceStatus( DEV_SEC_INIT_STATUS );
   \   00000D                ; Setup parameters for call to function AssocMatchDeviceStatus
   \   00000D   7904         MOV     R1,#0x4
   \   00000F   12....       LCALL   ??AssocMatchDeviceStatus?relay
   \   000012   8A..         MOV     ?V0 + 2,R2
   \   000014   8B..         MOV     ?V0 + 3,R3
   \   000016   AE..         MOV     R6,?V0 + 2
   \   000018   AF..         MOV     R7,?V0 + 3
   2501          
   2502            if ( assoc != NULL )
   \   00001A   EE           MOV     A,R6
   \   00001B   4F           ORL     A,R7
   \   00001C   7003         JNZ     $+5
   \   00001E   02....       LJMP    ??ZDSecMgrNewDeviceEvent_0 & 0xFFFF
   2503            {
   2504              // device found
   2505              found = TRUE;
   \   000021   75..01       MOV     ?V0 + 0,#0x1
   2506          
   2507              // check for preconfigured security
   2508              if ( zgPreConfigKeys == TRUE )
   \   000024   90....       MOV     DPTR,#zgPreConfigKeys
   \   000027   E0           MOVX    A,@DPTR
   \   000028   6401         XRL     A,#0x1
   \   00002A   7003         JNZ     ??ZDSecMgrNewDeviceEvent_1
   2509              {
   2510                // set association status to authenticated
   2511                ZDSecMgrAssocDeviceAuth( assoc );
   \   00002C                ; Setup parameters for call to function ZDSecMgrAssocDeviceAuth
   \   00002C   12....       LCALL   ??ZDSecMgrAssocDeviceAuth?relay
   2512              }
   2513          
   2514              // set up device info
   2515              addrEntry.user  = ADDRMGR_USER_DEFAULT;
   \                     ??ZDSecMgrNewDeviceEvent_1:
   \   00002F   740A         MOV     A,#0xa
   \   000031   12....       LCALL   ?XSTACK_DISP0_8
   \   000034   E4           CLR     A
   \   000035   F0           MOVX    @DPTR,A
   2516              addrEntry.index = assoc->addrIdx;
   \   000036   12....       LCALL   ?Subroutine73 & 0xFFFF
   \                     ??CrossCallReturnLabel_362:
   \   000039   7415         MOV     A,#0x15
   \   00003B   12....       LCALL   ?XSTACK_DISP0_8
   \   00003E   12....       LCALL   ?Subroutine20 & 0xFFFF
   2517              AddrMgrEntryGet( &addrEntry );
   \                     ??CrossCallReturnLabel_14:
   \   000041   12....       LCALL   ?XSTACK_DISP0_8
   \   000044   AA82         MOV     R2,DPL
   \   000046   AB83         MOV     R3,DPH
   \   000048   12....       LCALL   ??AddrMgrEntryGet?relay
   2518          
   2519              device.nwkAddr    = assoc->shortAddr;
   \   00004B   8E82         MOV     DPL,R6
   \   00004D   8F83         MOV     DPH,R7
   \   00004F   12....       LCALL   ?Subroutine34 & 0xFFFF
   2520              device.extAddr    = addrEntry.extAddr;
   \                     ??CrossCallReturnLabel_275:
   \   000052   12....       LCALL   ?XSTACK_DISP0_8
   \   000055   A882         MOV     R0,DPL
   \   000057   A983         MOV     R1,DPH
   \   000059   7402         MOV     A,#0x2
   \   00005B   12....       LCALL   ?XSTACK_DISP0_8
   \   00005E   12....       LCALL   ??Subroutine130_0 & 0xFFFF
   2521              device.parentAddr = NLME_GetShortAddr();
   \                     ??CrossCallReturnLabel_235:
   \   000061                ; Setup parameters for call to function NLME_GetShortAddr
   \   000061   12....       LCALL   ??NLME_GetShortAddr?relay
   \   000064   7404         MOV     A,#0x4
   \   000066   12....       LCALL   ?XSTACK_DISP0_8
   \   000069   12....       LCALL   ?Subroutine37 & 0xFFFF
   2522              device.secure     = FALSE;
   \                     ??CrossCallReturnLabel_48:
   \   00006C   7406         MOV     A,#0x6
   \   00006E   12....       LCALL   ?XSTACK_DISP0_8
   \   000071   E4           CLR     A
   \   000072   12....       LCALL   ?Subroutine36 & 0xFFFF
   2523              device.devStatus  = assoc->devStatus;
   \                     ??CrossCallReturnLabel_44:
   \   000075   A3           INC     DPTR
   \   000076   E0           MOVX    A,@DPTR
   \   000077   C0E0         PUSH    A
   \   000079   7407         MOV     A,#0x7
   \   00007B   12....       LCALL   ?XSTACK_DISP0_8
   \   00007E   D0E0         POP     A
   \   000080   12....       LCALL   ??Subroutine141_0 & 0xFFFF
   2524          
   2525              // process new device
   2526              status = ZDSecMgrDeviceNew( &device );
   \                     ??CrossCallReturnLabel_291:
   \   000083   12....       LCALL   ??ZDSecMgrDeviceNew?relay
   \   000086   E9           MOV     A,R1
   \   000087   F8           MOV     R0,A
   2527          
   2528              if ( status == ZSuccess )
   \   000088   700F         JNZ     ??ZDSecMgrNewDeviceEvent_2
   2529              {
   2530                assoc->devStatus &= ~DEV_SEC_INIT_STATUS;
   \   00008A   8E82         MOV     DPL,R6
   \   00008C   8F83         MOV     DPH,R7
   \   00008E   A3           INC     DPTR
   \   00008F   A3           INC     DPTR
   \   000090   A3           INC     DPTR
   \   000091   A3           INC     DPTR
   \   000092   A3           INC     DPTR
   \   000093   E0           MOVX    A,@DPTR
   \   000094   C2E2         CLR     0xE0 /* A   */.2
   \   000096   F0           MOVX    @DPTR,A
   \   000097   8011         SJMP    ??ZDSecMgrNewDeviceEvent_0
   2531              }
   2532              else if ( status == ZNwkUnknownDevice )
   \                     ??ZDSecMgrNewDeviceEvent_2:
   \   000099   74C8         MOV     A,#-0x38
   \   00009B   68           XRL     A,R0
   \   00009C   700C         JNZ     ??ZDSecMgrNewDeviceEvent_0
   2533              {
   2534                AssocRemove( addrEntry.extAddr );
   \   00009E                ; Setup parameters for call to function AssocRemove
   \   00009E   740D         MOV     A,#0xd
   \   0000A0   12....       LCALL   ?XSTACK_DISP0_8
   \   0000A3   AA82         MOV     R2,DPL
   \   0000A5   AB83         MOV     R3,DPH
   \   0000A7   12....       LCALL   ??AssocRemove?relay
   2535              }
   2536            }
   2537          
   2538            return found;
   \                     ??ZDSecMgrNewDeviceEvent_0:
   \   0000AA   A9..         MOV     R1,?V0 + 0
   \   0000AC   7417         MOV     A,#0x17
   \   0000AE   02....       LJMP    ?Subroutine6 & 0xFFFF
   2539          }

   \                                 In  segment BANKED_CODE, align 1, keep-with-next
   \                     ?Subroutine34:
   \   000000   12....       LCALL   ?Subroutine100 & 0xFFFF
   \                     ??CrossCallReturnLabel_156:
   \   000003                REQUIRE ??Subroutine140_0
   \   000003                ; // Fall through to label ??Subroutine140_0

   \                                 In  segment BANKED_CODE, align 1, keep-with-next
   \                     ?Subroutine73:
   \   000000   8E82         MOV     DPL,R6
   \   000002   8F83         MOV     DPH,R7
   \   000004                REQUIRE ??Subroutine159_0
   \   000004                ; // Fall through to label ??Subroutine159_0
   2540          
   2541          /******************************************************************************
   2542           * @fn          ZDSecMgrEvent
   2543           *
   2544           * @brief       Handle ZDO Security Manager event/timer(ZDO_SECMGR_EVENT).
   2545           *
   2546           * @param       none
   2547           *
   2548           * @return      none
   2549           */

   \                                 In  segment BANKED_CODE, align 1, keep-with-next
   2550          void ZDSecMgrEvent( void )
   \                     ZDSecMgrEvent:
   2551          {
   \   000000   74F6         MOV     A,#-0xa
   \   000002   12....       LCALL   ?BANKED_ENTER_XDATA
   \   000005                ; Saved register size: 10
   \   000005                ; Auto size: 23
   \   000005   74E9         MOV     A,#-0x17
   \   000007   12....       LCALL   ?ALLOC_XSTACK8
   2552            uint8            action;
   2553            uint8            restart;
   2554            uint16           index;
   2555            AddrMgrEntry_t   entry;
   2556            ZDSecMgrDevice_t device;
   2557          
   2558            // verify data is available
   2559            if ( ZDSecMgrCtrlData != NULL )
   \   00000A   90....       MOV     DPTR,#ZDSecMgrCtrlData
   \   00000D   12....       LCALL   ??Subroutine155_0 & 0xFFFF
   \                     ??CrossCallReturnLabel_329:
   \   000010   7003         JNZ     $+5
   \   000012   02....       LJMP    ??ZDSecMgrEvent_0 & 0xFFFF
   2560            {
   2561              action  = FALSE;
   \   000015   75..00       MOV     ?V0 + 0,#0x0
   2562              restart = FALSE;
   \   000018   75..00       MOV     ?V0 + 1,#0x0
   2563          
   2564              // update all the counters
   2565              for ( index = 0; index < ZDSECMGR_ENTRY_MAX; index++ )
   \   00001B   7E00         MOV     R6,#0x0
   \   00001D   7F00         MOV     R7,#0x0
   2566              {
   2567                if ( ZDSecMgrCtrlData[index].state !=  ZDSECMGR_CTRL_NONE )
   \                     ??ZDSecMgrEvent_1:
   \   00001F   12....       LCALL   ?Subroutine112 & 0xFFFF
   \                     ??CrossCallReturnLabel_295:
   \   000022   12....       LCALL   ?Subroutine58 & 0xFFFF
   \                     ??CrossCallReturnLabel_89:
   \   000025   A3           INC     DPTR
   \   000026   E0           MOVX    A,@DPTR
   \   000027   7003         JNZ     $+5
   \   000029   02....       LJMP    ??ZDSecMgrEvent_2 & 0xFFFF
   2568                {
   2569                  if ( ZDSecMgrCtrlData[index].cntr != 0 )
   \   00002C   12....       LCALL   ?Subroutine52 & 0xFFFF
   \                     ??CrossCallReturnLabel_78:
   \   00002F   6005         JZ      ??ZDSecMgrEvent_3
   2570                  {
   2571                    ZDSecMgrCtrlData[index].cntr--;
   \   000031   12....       LCALL   ?Subroutine52 & 0xFFFF
   2572                  }
   \                     ??CrossCallReturnLabel_79:
   \   000034   14           DEC     A
   \   000035   F0           MOVX    @DPTR,A
   2573          
   2574                  if ( ( action == FALSE ) && ( ZDSecMgrCtrlData[index].cntr == 0 ) )
   \                     ??ZDSecMgrEvent_3:
   \   000036   E5..         MOV     A,?V0 + 0
   \   000038   A2E0         MOV     C,0xE0 /* A   */.0
   \   00003A   4072         JC      ??ZDSecMgrEvent_4
   \   00003C   12....       LCALL   ?Subroutine52 & 0xFFFF
   \                     ??CrossCallReturnLabel_80:
   \   00003F   706D         JNZ     ??ZDSecMgrEvent_4
   2575                  {
   2576                    action = TRUE;
   \   000041   75..01       MOV     ?V0 + 0,#0x1
   \   000044   12....       LCALL   ?Subroutine112 & 0xFFFF
   \                     ??CrossCallReturnLabel_296:
   \   000047   12....       LCALL   ?Subroutine110 & 0xFFFF
   \                     ??CrossCallReturnLabel_171:
   \   00004A   F9           MOV     R1,A
   \   00004B   8882         MOV     DPL,R0
   \   00004D   8983         MOV     DPH,R1
   \   00004F   12....       LCALL   ??Subroutine149_0 & 0xFFFF
   \                     ??CrossCallReturnLabel_308:
   \   000052   7404         MOV     A,#0x4
   \   000054   12....       LCALL   ?XSTACK_DISP0_8
   \   000057   12....       LCALL   ?Subroutine37 & 0xFFFF
   2577          
   2578                    // update from control data
   2579                    device.parentAddr = ZDSecMgrCtrlData[index].parentAddr;
   2580                    device.secure     = ZDSecMgrCtrlData[index].secure;
   \                     ??CrossCallReturnLabel_49:
   \   00005A   8882         MOV     DPL,R0
   \   00005C   8983         MOV     DPH,R1
   \   00005E   A3           INC     DPTR
   \   00005F   A3           INC     DPTR
   \   000060   A3           INC     DPTR
   \   000061   A3           INC     DPTR
   \   000062   E0           MOVX    A,@DPTR
   \   000063   C0E0         PUSH    A
   \   000065   7406         MOV     A,#0x6
   \   000067   12....       LCALL   ?XSTACK_DISP0_8
   \   00006A   D0E0         POP     A
   \   00006C   F0           MOVX    @DPTR,A
   2581                    device.ctrl       = &ZDSecMgrCtrlData[index];
   \   00006D   7408         MOV     A,#0x8
   \   00006F   12....       LCALL   ?XSTACK_DISP0_8
   \   000072   12....       LCALL   ?Subroutine20 & 0xFFFF
   2582          
   2583                    // set the user and address index
   2584                    entry.user  = ADDRMGR_USER_SECURITY;
   \                     ??CrossCallReturnLabel_15:
   \   000075   12....       LCALL   ?XSTACK_DISP0_8
   \   000078   7402         MOV     A,#0x2
   \   00007A   12....       LCALL   ?Subroutine25 & 0xFFFF
   2585                    entry.index = ZDSecMgrCtrlData[index].entry->ami;
   \                     ??CrossCallReturnLabel_26:
   \   00007D   12....       LCALL   ??Subroutine160_0 & 0xFFFF
   \                     ??CrossCallReturnLabel_358:
   \   000080   7415         MOV     A,#0x15
   \   000082   12....       LCALL   ?XSTACK_DISP0_8
   \   000085   12....       LCALL   ?Subroutine20 & 0xFFFF
   2586          
   2587                    // get the address data
   2588                    AddrMgrEntryGet( &entry );
   \                     ??CrossCallReturnLabel_16:
   \   000088   12....       LCALL   ?XSTACK_DISP0_8
   \   00008B   AA82         MOV     R2,DPL
   \   00008D   AB83         MOV     R3,DPH
   \   00008F   12....       LCALL   ??AddrMgrEntryGet?relay
   2589          
   2590                    // set device address data
   2591                    device.nwkAddr = entry.nwkAddr;
   \   000092   740B         MOV     A,#0xb
   \   000094   12....       LCALL   ?XSTACK_DISP0_8
   \   000097   12....       LCALL   ?Subroutine34 & 0xFFFF
   2592                    device.extAddr = entry.extAddr;
   2593          
   2594                    // update from entry data
   2595                    ZDSecMgrDeviceCtrlHandler( &device );
   2596                  }
   \                     ??CrossCallReturnLabel_276:
   \   00009A   12....       LCALL   ?XSTACK_DISP0_8
   \   00009D   A882         MOV     R0,DPL
   \   00009F   A983         MOV     R1,DPH
   \   0000A1   7402         MOV     A,#0x2
   \   0000A3   12....       LCALL   ?XSTACK_DISP0_8
   \   0000A6   12....       LCALL   ?Subroutine16 & 0xFFFF
   \                     ??CrossCallReturnLabel_5:
   \   0000A9   12....       LCALL   ??ZDSecMgrDeviceCtrlHandler?relay
   \   0000AC   8003         SJMP    ??ZDSecMgrEvent_2
   2597                  else
   2598                  {
   2599                    restart = TRUE;
   \                     ??ZDSecMgrEvent_4:
   \   0000AE   75..01       MOV     ?V0 + 1,#0x1
   2600                  }
   2601                }
   2602              }
   \                     ??ZDSecMgrEvent_2:
   \   0000B1   12....       LCALL   ?Subroutine39 & 0xFFFF
   \                     ??CrossCallReturnLabel_59:
   \   0000B4   5003         JNC     $+5
   \   0000B6   02....       LJMP    ??ZDSecMgrEvent_1 & 0xFFFF
   2603          
   2604              // check for timer restart
   2605              if ( restart == TRUE )
   \   0000B9   E5..         MOV     A,?V0 + 1
   \   0000BB   A2E0         MOV     C,0xE0 /* A   */.0
   \   0000BD   5010         JNC     ??ZDSecMgrEvent_0
   2606              {
   2607                osal_start_timerEx(ZDAppTaskID, ZDO_SECMGR_EVENT, 100 );
   \   0000BF                ; Setup parameters for call to function osal_start_timerEx
   \   0000BF   7C64         MOV     R4,#0x64
   \   0000C1   7D00         MOV     R5,#0x0
   \   0000C3   7A00         MOV     R2,#0x0
   \   0000C5   7B01         MOV     R3,#0x1
   \   0000C7   90....       MOV     DPTR,#ZDAppTaskID
   \   0000CA   E0           MOVX    A,@DPTR
   \   0000CB   F9           MOV     R1,A
   \   0000CC   12....       LCALL   ??osal_start_timerEx?relay
   2608              }
   2609            }
   2610          }
   \                     ??ZDSecMgrEvent_0:
   \   0000CF   7417         MOV     A,#0x17
   \   0000D1   02....       LJMP    ??Subroutine134_0 & 0xFFFF

   \                                 In  segment BANKED_CODE, align 1, keep-with-next
   \                     ?Subroutine112:
   \   000000   EE           MOV     A,R6
   \   000001   F8           MOV     R0,A
   \   000002   EF           MOV     A,R7
   \   000003   F9           MOV     R1,A
   \   000004                REQUIRE ??Subroutine142_0
   \   000004                ; // Fall through to label ??Subroutine142_0

   \                                 In  segment BANKED_CODE, align 1, keep-with-next
   \                     ?Subroutine52:
   \   000000   12....       LCALL   ?Subroutine112 & 0xFFFF
   \                     ??CrossCallReturnLabel_297:
   \   000003   12....       LCALL   ?Subroutine103 & 0xFFFF
   \                     ??CrossCallReturnLabel_159:
   \   000006   A3           INC     DPTR
   \   000007   A3           INC     DPTR
   \   000008   E0           MOVX    A,@DPTR
   \   000009   22           RET

   \                                 In  segment BANKED_CODE, align 1, keep-with-next
   \                     ?Subroutine16:
   \   000000   12....       LCALL   ?Subroutine91 & 0xFFFF
   \                     ??CrossCallReturnLabel_316:
   \   000003   22           RET

   \                                 In  segment BANKED_CODE, align 1, keep-with-next
   \                     ?Subroutine91:
   \   000000   E8           MOV     A,R0
   \   000001   F0           MOVX    @DPTR,A
   \   000002   A3           INC     DPTR
   \   000003   E9           MOV     A,R1
   \   000004                REQUIRE ??Subroutine152_0
   \   000004                ; // Fall through to label ??Subroutine152_0
   2611          
   2612          /******************************************************************************
   2613           * @fn          ZDSecMgrEstablishKeyCfm
   2614           *
   2615           * @brief       Process the ZDO_EstablishKeyCfm_t message.
   2616           *
   2617           * @param       cfm - [in] ZDO_EstablishKeyCfm_t confirmation
   2618           *
   2619           * @return      none
   2620           */

   \                                 In  segment BANKED_CODE, align 1, keep-with-next
   2621          void ZDSecMgrEstablishKeyCfm( ZDO_EstablishKeyCfm_t* cfm )
   \                     ZDSecMgrEstablishKeyCfm:
   2622          {
   \   000000   C082         PUSH    DPL
   \   000002   C083         PUSH    DPH
   \   000004                ; Saved register size: 2
   \   000004                ; Auto size: 0
   2623            // send the NWK key
   2624            if ( ( ZG_BUILD_COORDINATOR_TYPE ) && ( ZG_DEVICE_COORDINATOR_TYPE ) )
   2625            {
   2626              // update control for specified EXT address
   2627              ZDSecMgrDeviceCtrlUpdate( cfm->partExtAddr, ZDSECMGR_CTRL_SKKE_DONE );
   \   000004                ; Setup parameters for call to function ZDSecMgrDeviceCtrlUpdate
   \   000004   7905         MOV     R1,#0x5
   \   000006   EA           MOV     A,R2
   \   000007   2402         ADD     A,#0x2
   \   000009   0A           INC     R2
   \   00000A   0A           INC     R2
   \   00000B   EB           MOV     A,R3
   \   00000C   3400         ADDC    A,#0x0
   \   00000E   FB           MOV     R3,A
   \   00000F   12....       LCALL   ??ZDSecMgrDeviceCtrlUpdate?relay
   2628            }
   2629            else
   2630            {
   2631              // this should be done when receiving the NWK key
   2632              // if devState ==
   2633              //if ( devState == DEV_END_DEVICE_UNAUTH )
   2634                  //osal_set_event( ZDAppTaskID, ZDO_DEVICE_AUTH );
   2635          
   2636              // if not in joining state -- this should trigger an event for an
   2637              // end point that requested SKKE
   2638              // if ( devState == DEV_END_DEVICE )
   2639             //       devState == DEV_ROUTER;
   2640          
   2641            }
   2642          }
   \   000012   02....       LJMP    ??Subroutine139_0 & 0xFFFF
   2643          
   2644          /******************************************************************************
   2645           * @fn          ZDSecMgrTCExtAddrCheck
   2646           *
   2647           * @brief       Verifies if received ext. address matches TC ext. address.
   2648           *
   2649           * @param       extAddr - Extended address to be verified.
   2650           *
   2651           * @return      TRUE - extended address matches
   2652           *              FALSE - otherwise
   2653           */

   \                                 In  segment BANKED_CODE, align 1, keep-with-next
   2654          uint8 ZDSecMgrTCExtAddrCheck( uint8* extAddr )
   \                     ZDSecMgrTCExtAddrCheck:
   2655          {
   \   000000   74F7         MOV     A,#-0x9
   \   000002   12....       LCALL   ?BANKED_ENTER_XDATA
   \   000005                ; Saved register size: 9
   \   000005                ; Auto size: 8
   \   000005   74F8         MOV     A,#-0x8
   \   000007   12....       LCALL   ?ALLOC_XSTACK8
   \   00000A   EA           MOV     A,R2
   \   00000B   FE           MOV     R6,A
   \   00000C   EB           MOV     A,R3
   \   00000D   FF           MOV     R7,A
   2656            uint8  match;
   2657            uint8  lookup[Z_EXTADDR_LEN];
   2658          
   2659            match = FALSE;
   \   00000E   75..00       MOV     ?V0 + 0,#0x0
   2660          
   2661            if ( AddrMgrExtAddrLookup( APSME_TRUSTCENTER_NWKADDR, lookup ) )
   \   000011                ; Setup parameters for call to function AddrMgrExtAddrLookup
   \   000011   85..82       MOV     DPL,?XSP + 0
   \   000014   85..83       MOV     DPH,?XSP + 1
   \   000017   AC82         MOV     R4,DPL
   \   000019   AD83         MOV     R5,DPH
   \   00001B   7A00         MOV     R2,#0x0
   \   00001D   7B00         MOV     R3,#0x0
   \   00001F   12....       LCALL   ??AddrMgrExtAddrLookup?relay
   \   000022   E9           MOV     A,R1
   \   000023   6014         JZ      ??ZDSecMgrTCExtAddrCheck_0
   2662            {
   2663              match = AddrMgrExtAddrEqual( lookup, extAddr );
   \   000025                ; Setup parameters for call to function AddrMgrExtAddrEqual
   \   000025   EE           MOV     A,R6
   \   000026   FC           MOV     R4,A
   \   000027   EF           MOV     A,R7
   \   000028   FD           MOV     R5,A
   \   000029   85..82       MOV     DPL,?XSP + 0
   \   00002C   85..83       MOV     DPH,?XSP + 1
   \   00002F   AA82         MOV     R2,DPL
   \   000031   AB83         MOV     R3,DPH
   \   000033   12....       LCALL   ??AddrMgrExtAddrEqual?relay
   \   000036   E9           MOV     A,R1
   \   000037   F5..         MOV     ?V0 + 0,A
   2664            }
   2665          
   2666            return match;
   \                     ??ZDSecMgrTCExtAddrCheck_0:
   \   000039   A9..         MOV     R1,?V0 + 0
   \   00003B   7408         MOV     A,#0x8
   \   00003D   80..         SJMP    ??Subroutine146_0
   2667          }
   2668          
   2669          /******************************************************************************
   2670           * @fn          ZDSecMgrTCDataLoad
   2671           *
   2672           * @brief       Stores the address of TC into address manager and stores the
   2673           *              preconfigured ZDSecMgrTCMasterKey to NV if zgPreConfigKeys
   2674           *              is set to TRUE.
   2675           *
   2676           * @param       extAddr - Extended address to be verified.
   2677           *
   2678           * @return      none
   2679           */

   \                                 In  segment BANKED_CODE, align 1, keep-with-next
   2680          void ZDSecMgrTCDataLoad( uint8* extAddr )
   \                     ZDSecMgrTCDataLoad:
   2681          {
   \   000000   74F5         MOV     A,#-0xb
   \   000002   12....       LCALL   ?BANKED_ENTER_XDATA
   \   000005                ; Saved register size: 11
   \   000005                ; Auto size: 33
   \   000005   74DF         MOV     A,#-0x21
   \   000007   12....       LCALL   ?ALLOC_XSTACK8
   \   00000A   EA           MOV     A,R2
   \   00000B   FE           MOV     R6,A
   \   00000C   EB           MOV     A,R3
   \   00000D   FF           MOV     R7,A
   2682            uint16 ami;
   2683            uint16 keyNvId;
   2684            uint8 masterKey[SEC_KEY_LEN];
   2685            AddrMgrEntry_t entry;
   2686          
   2687            // lookup using TC short address
   2688            entry.user    = ADDRMGR_USER_DEFAULT;
   \   00000E   7404         MOV     A,#0x4
   \   000010   12....       LCALL   ?XSTACK_DISP0_8
   \   000013   E4           CLR     A
   \   000014   F0           MOVX    @DPTR,A
   2689            entry.nwkAddr = zgTrustCenterAddr;
   \   000015   90....       MOV     DPTR,#zgTrustCenterAddr
   \   000018   12....       LCALL   ??Subroutine160_0 & 0xFFFF
   \                     ??CrossCallReturnLabel_359:
   \   00001B   7405         MOV     A,#0x5
   \   00001D   12....       LCALL   ?XSTACK_DISP0_8
   \   000020   12....       LCALL   ??Subroutine130_0 & 0xFFFF
   2690          
   2691            // Verify if TC address has been added to Address Manager
   2692            if ( AddrMgrEntryLookupNwk( &entry ) != TRUE )
   \                     ??CrossCallReturnLabel_236:
   \   000023                ; Setup parameters for call to function AddrMgrEntryLookupNwk
   \   000023   7404         MOV     A,#0x4
   \   000025   12....       LCALL   ?XSTACK_DISP0_8
   \   000028   12....       LCALL   ?Subroutine89 & 0xFFFF
   \                     ??CrossCallReturnLabel_298:
   \   00002B   6073         JZ      ??ZDSecMgrTCDataLoad_0
   2693            {
   2694              if ( ZDSecMgrAddrStore( zgTrustCenterAddr, extAddr, &ami ) == ZSuccess )
   \   00002D                ; Setup parameters for call to function ZDSecMgrAddrStore
   \   00002D   85..82       MOV     DPL,?XSP + 0
   \   000030   85..83       MOV     DPH,?XSP + 1
   \   000033   8582..       MOV     ?V0 + 0,DPL
   \   000036   8583..       MOV     ?V0 + 1,DPH
   \   000039   78..         MOV     R0,#?V0 + 0
   \   00003B   12....       LCALL   ?PUSH_XSTACK_I_TWO
   \   00003E   EE           MOV     A,R6
   \   00003F   FC           MOV     R4,A
   \   000040   EF           MOV     A,R7
   \   000041   FD           MOV     R5,A
   \   000042   90....       MOV     DPTR,#zgTrustCenterAddr
   \   000045   12....       LCALL   ??Subroutine150_0 & 0xFFFF
   \                     ??CrossCallReturnLabel_306:
   \   000048   12....       LCALL   ??ZDSecMgrAddrStore?relay
   \   00004B   7402         MOV     A,#0x2
   \   00004D   12....       LCALL   ?DEALLOC_XSTACK8
   \   000050   E9           MOV     A,R1
   \   000051   704D         JNZ     ??ZDSecMgrTCDataLoad_0
   2695              {
   2696                // if preconfigured load key
   2697                if ( zgPreConfigKeys == TRUE )
   \   000053   90....       MOV     DPTR,#zgPreConfigKeys
   \   000056   E0           MOVX    A,@DPTR
   \   000057   6401         XRL     A,#0x1
   \   000059   7045         JNZ     ??ZDSecMgrTCDataLoad_0
   2698                {
   2699                  if ( ZDSecMgrMasterKeyLookup( ami, &keyNvId ) != ZSuccess )
   \   00005B                ; Setup parameters for call to function ZDSecMgrMasterKeyLookup
   \   00005B   7402         MOV     A,#0x2
   \   00005D   12....       LCALL   ?XSTACK_DISP0_8
   \   000060   12....       LCALL   ?Subroutine53 & 0xFFFF
   \                     ??CrossCallReturnLabel_263:
   \   000063   603B         JZ      ??ZDSecMgrTCDataLoad_0
   2700                  {
   2701                    // temporary copy
   2702                    osal_memcpy( masterKey, ZDSecMgrTCMasterKey, SEC_KEY_LEN);
   \   000065                ; Setup parameters for call to function osal_memcpy
   \   000065   75....       MOV     ?V0 + 0,#ZDSecMgrTCMasterKey & 0xff
   \   000068   75....       MOV     ?V0 + 1,#(ZDSecMgrTCMasterKey >> 8) & 0xff
   \   00006B   75..80       MOV     ?V0 + 2,#-0x80
   \   00006E   78..         MOV     R0,#?V0 + 0
   \   000070   12....       LCALL   ?PUSH_XSTACK_I_THREE
   \   000073   7C10         MOV     R4,#0x10
   \   000075   7D00         MOV     R5,#0x0
   \   000077   7414         MOV     A,#0x14
   \   000079   12....       LCALL   ?XSTACK_DISP0_8
   \   00007C   12....       LCALL   ?Subroutine84 & 0xFFFF
   \                     ??CrossCallReturnLabel_267:
   \   00007F   12....       LCALL   ?DEALLOC_XSTACK8
   2703          
   2704                    ZDSecMgrMasterKeyStore( ami, masterKey );
   \   000082                ; Setup parameters for call to function ZDSecMgrMasterKeyStore
   \   000082   7411         MOV     A,#0x11
   \   000084   12....       LCALL   ?XSTACK_DISP0_8
   \   000087   AC82         MOV     R4,DPL
   \   000089   AD83         MOV     R5,DPH
   \   00008B   12....       LCALL   ?Subroutine74 & 0xFFFF
   2705          
   2706                    // remove copy of key in RAM
   2707                    osal_memset( masterKey, 0x00, SEC_KEY_LEN );
   \                     ??CrossCallReturnLabel_116:
   \   00008E                ; Setup parameters for call to function osal_memset
   \   00008E   7C10         MOV     R4,#0x10
   \   000090   7D00         MOV     R5,#0x0
   \   000092   7900         MOV     R1,#0x0
   \   000094   7411         MOV     A,#0x11
   \   000096   12....       LCALL   ?XSTACK_DISP0_8
   \   000099   AA82         MOV     R2,DPL
   \   00009B   AB83         MOV     R3,DPH
   \   00009D   12....       LCALL   ??osal_memset?relay
   2708                  }
   2709                }
   2710              }
   2711            }
   2712          }
   \                     ??ZDSecMgrTCDataLoad_0:
   \   0000A0   7421         MOV     A,#0x21
   \   0000A2   02....       LJMP    ?Subroutine5 & 0xFFFF

   \                                 In  segment BANKED_CODE, align 1, keep-with-next
   \                     ?Subroutine89:
   \   000000   AA82         MOV     R2,DPL
   \   000002   AB83         MOV     R3,DPH
   \   000004                REQUIRE ??Subroutine148_0
   \   000004                ; // Fall through to label ??Subroutine148_0
   2713          
   2714          /******************************************************************************
   2715           * @fn          ZDSecMgrEstablishKeyInd
   2716           *
   2717           * @brief       Process the ZDO_EstablishKeyInd_t message.
   2718           *
   2719           * @param       ind - [in] ZDO_EstablishKeyInd_t indication
   2720           *
   2721           * @return      none
   2722           */

   \                                 In  segment BANKED_CODE, align 1, keep-with-next
   2723          void ZDSecMgrEstablishKeyInd( ZDO_EstablishKeyInd_t* ind )
   \                     ZDSecMgrEstablishKeyInd:
   2724          {
   \   000000   74F6         MOV     A,#-0xa
   \   000002   12....       LCALL   ?BANKED_ENTER_XDATA
   \   000005                ; Saved register size: 10
   \   000005                ; Auto size: 17
   \   000005   74EF         MOV     A,#-0x11
   \   000007   12....       LCALL   ?ALLOC_XSTACK8
   \   00000A   EA           MOV     A,R2
   \   00000B   FE           MOV     R6,A
   \   00000C   EB           MOV     A,R3
   \   00000D   FF           MOV     R7,A
   2725            ZDSecMgrDevice_t        device;
   2726            APSME_EstablishKeyRsp_t rsp;
   2727          
   2728          
   2729            // load Trust Center data if needed
   2730            ZDSecMgrTCDataLoad( ind->initExtAddr );
   \   00000E   EE           MOV     A,R6
   \   00000F   2404         ADD     A,#0x4
   \   000011   F5..         MOV     ?V0 + 0,A
   \   000013   EF           MOV     A,R7
   \   000014   3400         ADDC    A,#0x0
   \   000016   F5..         MOV     ?V0 + 1,A
   \   000018                ; Setup parameters for call to function ZDSecMgrTCDataLoad
   \   000018   AA..         MOV     R2,?V0 + 0
   \   00001A   FB           MOV     R3,A
   \   00001B   12....       LCALL   ??ZDSecMgrTCDataLoad?relay
   2731          
   2732            if ( ZDSecMgrTCExtAddrCheck( ind->initExtAddr ) )
   \   00001E                ; Setup parameters for call to function ZDSecMgrTCExtAddrCheck
   \   00001E   AA..         MOV     R2,?V0 + 0
   \   000020   AB..         MOV     R3,?V0 + 1
   \   000022   12....       LCALL   ??ZDSecMgrTCExtAddrCheck?relay
   \   000025   E9           MOV     A,R1
   \   000026   6013         JZ      ??ZDSecMgrEstablishKeyInd_0
   2733            {
   2734              //IF (ind->srcAddr == APSME_TRUSTCENTER_NWKADDR)
   2735              //OR
   2736              //!ZDSecMgrTCAuthenticated
   2737              //devtag.0604.critical
   2738                  //how is the parentAddr used here
   2739          
   2740              // initial SKKE from Trust Center via parent
   2741              device.nwkAddr    = APSME_TRUSTCENTER_NWKADDR;
   \   000028   7407         MOV     A,#0x7
   \   00002A   12....       LCALL   ?XSTACK_DISP0_8
   \   00002D   12....       LCALL   ?Subroutine22 & 0xFFFF
   2742              device.parentAddr = ind->srcAddr;
   2743            }
   \                     ??CrossCallReturnLabel_20:
   \   000030   740B         MOV     A,#0xb
   \   000032   12....       LCALL   ?XSTACK_DISP0_8
   \   000035   E8           MOV     A,R0
   \   000036   F0           MOVX    @DPTR,A
   \   000037   A3           INC     DPTR
   \   000038   E9           MOV     A,R1
   \   000039   8015         SJMP    ??ZDSecMgrEstablishKeyInd_1
   2744            else
   2745            {
   2746              // Trust Center direct or E2E SKKE
   2747              device.nwkAddr    = ind->srcAddr;
   \                     ??ZDSecMgrEstablishKeyInd_0:
   \   00003B   12....       LCALL   ?Subroutine73 & 0xFFFF
   \                     ??CrossCallReturnLabel_363:
   \   00003E   7407         MOV     A,#0x7
   \   000040   12....       LCALL   ?XSTACK_DISP0_8
   \   000043   12....       LCALL   ??Subroutine130_0 & 0xFFFF
   2748              device.parentAddr = INVALID_NODE_ADDR;
   \                     ??CrossCallReturnLabel_237:
   \   000046   740B         MOV     A,#0xb
   \   000048   12....       LCALL   ?XSTACK_DISP0_8
   \   00004B   74FE         MOV     A,#-0x2
   \   00004D   F0           MOVX    @DPTR,A
   \   00004E   A3           INC     DPTR
   \   00004F   04           INC     A
   2749            }
   \                     ??ZDSecMgrEstablishKeyInd_1:
   \   000050   12....       LCALL   ?Subroutine96 & 0xFFFF
   2750          
   2751            device.extAddr = ind->initExtAddr;
   \                     ??CrossCallReturnLabel_314:
   \   000053   7409         MOV     A,#0x9
   \   000055   12....       LCALL   ?XSTACK_DISP0_8
   \   000058   E8           MOV     A,R0
   \   000059   F0           MOVX    @DPTR,A
   \   00005A   A3           INC     DPTR
   \   00005B   E9           MOV     A,R1
   \   00005C   12....       LCALL   ?Subroutine26 & 0xFFFF
   2752            //devtag.pro.security.0724.todo - verify usage
   2753            device.secure  = ind->nwkSecure;
   \                     ??CrossCallReturnLabel_27:
   \   00005F   C0E0         PUSH    A
   \   000061   740D         MOV     A,#0xd
   \   000063   12....       LCALL   ?XSTACK_DISP0_8
   \   000066   D0E0         POP     A
   \   000068   F0           MOVX    @DPTR,A
   2754          
   2755            // validate device for SKKE
   2756            if ( ZDSecMgrDeviceValidateSKKE( &device ) == ZSuccess )
   \   000069                ; Setup parameters for call to function ZDSecMgrDeviceValidateSKKE
   \   000069   7407         MOV     A,#0x7
   \   00006B   12....       LCALL   ?XSTACK_DISP0_8
   \   00006E   AA82         MOV     R2,DPL
   \   000070   AB83         MOV     R3,DPH
   \   000072   12....       LCALL   ??ZDSecMgrDeviceValidateSKKE?relay
   \   000075   E9           MOV     A,R1
   \   000076   7009         JNZ     ??ZDSecMgrEstablishKeyInd_2
   2757            {
   2758              rsp.accept = TRUE;
   \   000078   7404         MOV     A,#0x4
   \   00007A   12....       LCALL   ?XSTACK_DISP0_8
   \   00007D   7401         MOV     A,#0x1
   \   00007F   8006         SJMP    ??ZDSecMgrEstablishKeyInd_3
   2759            }
   2760            else
   2761            {
   2762              rsp.accept = FALSE;
   \                     ??ZDSecMgrEstablishKeyInd_2:
   \   000081   7404         MOV     A,#0x4
   \   000083   12....       LCALL   ?XSTACK_DISP0_8
   \   000086   E4           CLR     A
   \                     ??ZDSecMgrEstablishKeyInd_3:
   \   000087   F0           MOVX    @DPTR,A
   2763            }
   2764          
   2765            rsp.dstAddr     = ind->srcAddr;
   \   000088   12....       LCALL   ?Subroutine14 & 0xFFFF
   2766            rsp.initExtAddr = &ind->initExtAddr[0];
   \                     ??CrossCallReturnLabel_311:
   \   00008B   12....       LCALL   ?XSTACK_DISP0_8
   \   00008E   12....       LCALL   ??Subroutine130_0 & 0xFFFF
   2767            //devtag.0604.todo - remove obsolete
   2768            rsp.apsSecure   = ind->apsSecure;
   \                     ??CrossCallReturnLabel_238:
   \   000091   EE           MOV     A,R6
   \   000092   240D         ADD     A,#0xd
   \   000094   12....       LCALL   ??Subroutine164_0 & 0xFFFF
   \                     ??CrossCallReturnLabel_394:
   \   000097   E0           MOVX    A,@DPTR
   \   000098   C0E0         PUSH    A
   \   00009A   7405         MOV     A,#0x5
   \   00009C   12....       LCALL   ?XSTACK_DISP0_8
   \   00009F   D0E0         POP     A
   \   0000A1   12....       LCALL   ?Subroutine26 & 0xFFFF
   2769            rsp.nwkSecure   = ind->nwkSecure;
   \                     ??CrossCallReturnLabel_28:
   \   0000A4   C0E0         PUSH    A
   \   0000A6   7406         MOV     A,#0x6
   \   0000A8   12....       LCALL   ?XSTACK_DISP0_8
   \   0000AB   D0E0         POP     A
   \   0000AD   12....       LCALL   ??Subroutine141_0 & 0xFFFF
   2770          
   2771            APSME_EstablishKeyRsp( &rsp );
   \                     ??CrossCallReturnLabel_292:
   \   0000B0   12....       LCALL   ??APSME_EstablishKeyRsp?relay
   2772          }
   \   0000B3   7411         MOV     A,#0x11
   \   0000B5   02....       LJMP    ??Subroutine134_0 & 0xFFFF

   \                                 In  segment BANKED_CODE, align 1, keep-with-next
   \                     ?Subroutine26:
   \   000000   F0           MOVX    @DPTR,A
   \   000001   EE           MOV     A,R6
   \   000002   240E         ADD     A,#0xe
   \   000004   F582         MOV     DPL,A
   \   000006   EF           MOV     A,R7
   \   000007   3400         ADDC    A,#0x0
   \   000009   F583         MOV     DPH,A
   \   00000B   E0           MOVX    A,@DPTR
   \   00000C   22           RET

   \                                 In  segment BANKED_CODE, align 1, keep-with-next
   \                     ?Subroutine14:
   \   000000   8E82         MOV     DPL,R6
   \   000002   8F83         MOV     DPH,R7
   \   000004   A3           INC     DPTR
   \   000005   A3           INC     DPTR
   \   000006   12....       LCALL   ?Subroutine100 & 0xFFFF
   \                     ??CrossCallReturnLabel_154:
   \   000009   E8           MOV     A,R0
   \   00000A   F0           MOVX    @DPTR,A
   \   00000B   A3           INC     DPTR
   \   00000C   E9           MOV     A,R1
   \   00000D                REQUIRE ??Subroutine151_0
   \   00000D                ; // Fall through to label ??Subroutine151_0

   \                                 In  segment BANKED_CODE, align 1, keep-with-next
   \                     ??Subroutine151_0:
   \   000000   12....       LCALL   ?Subroutine96 & 0xFFFF
   \                     ??CrossCallReturnLabel_315:
   \   000003   7402         MOV     A,#0x2
   \   000005   22           RET

   \                                 In  segment BANKED_CODE, align 1, keep-with-next
   \                     ?Subroutine96:
   \   000000   F0           MOVX    @DPTR,A
   \   000001   EE           MOV     A,R6
   \   000002   2404         ADD     A,#0x4
   \   000004   F8           MOV     R0,A
   \   000005   EF           MOV     A,R7
   \   000006   3400         ADDC    A,#0x0
   \   000008   F9           MOV     R1,A
   \   000009   22           RET

   \                                 In  segment BANKED_CODE, align 1, keep-with-next
   \                     ??Subroutine164_0:
   \   000000   F582         MOV     DPL,A
   \   000002   EF           MOV     A,R7
   \   000003                REQUIRE ??Subroutine165_0
   \   000003                ; // Fall through to label ??Subroutine165_0

   \                                 In  segment BANKED_CODE, align 1, keep-with-next
   \                     ??Subroutine165_0:
   \   000000   3400         ADDC    A,#0x0
   \   000002   F583         MOV     DPH,A
   \   000004   22           RET
   2773          
   2774          //devtag.pro.security
   2775          #if 0
   2776          void ZDSecMgrEstablishKeyInd( ZDO_EstablishKeyInd_t* ind )
   2777          {
   2778            ZDSecMgrDevice_t        device;
   2779            APSME_EstablishKeyRsp_t rsp;
   2780          
   2781          
   2782            device.extAddr = ind->initExtAddr;
   2783            device.secure  = ind->secure;
   2784          
   2785            if ( ind->secure == FALSE )
   2786            {
   2787              // SKKE from Trust Center is not secured between child and parent
   2788              device.nwkAddr    = APSME_TRUSTCENTER_NWKADDR;
   2789              device.parentAddr = ind->srcAddr;
   2790            }
   2791            else
   2792            {
   2793              // SKKE from initiator should be secured
   2794              device.nwkAddr    = ind->srcAddr;
   2795              device.parentAddr = INVALID_NODE_ADDR;
   2796            }
   2797          
   2798            rsp.dstAddr     = ind->srcAddr;
   2799            rsp.initExtAddr = &ind->initExtAddr[0];
   2800            rsp.secure      = ind->secure;
   2801          
   2802            // validate device for SKKE
   2803            if ( ZDSecMgrDeviceValidateSKKE( &device ) == ZSuccess )
   2804            {
   2805              rsp.accept = TRUE;
   2806            }
   2807            else
   2808            {
   2809              rsp.accept = FALSE;
   2810            }
   2811          
   2812            APSME_EstablishKeyRsp( &rsp );
   2813          }
   2814          #endif
   2815          
   2816          /******************************************************************************
   2817           * @fn          ZDSecMgrTransportKeyInd
   2818           *
   2819           * @brief       Process the ZDO_TransportKeyInd_t message.
   2820           *
   2821           * @param       ind - [in] ZDO_TransportKeyInd_t indication
   2822           *
   2823           * @return      none
   2824           */

   \                                 In  segment BANKED_CODE, align 1, keep-with-next
   2825          void ZDSecMgrTransportKeyInd( ZDO_TransportKeyInd_t* ind )
   \                     ZDSecMgrTransportKeyInd:
   2826          {
   \   000000   74F6         MOV     A,#-0xa
   \   000002   12....       LCALL   ?BANKED_ENTER_XDATA
   \   000005                ; Saved register size: 10
   \   000005                ; Auto size: 16
   \   000005   74F0         MOV     A,#-0x10
   \   000007   12....       LCALL   ?ALLOC_XSTACK8
   \   00000A   EA           MOV     A,R2
   \   00000B   FE           MOV     R6,A
   \   00000C   EB           MOV     A,R3
   \   00000D   FF           MOV     R7,A
   2827            uint8 index;
   2828            uint8 zgPreConfigKey[SEC_KEY_LEN];
   2829          
   2830            // load Trust Center data if needed
   2831            ZDSecMgrTCDataLoad( ind->srcExtAddr );
   \   00000E                ; Setup parameters for call to function ZDSecMgrTCDataLoad
   \   00000E   EE           MOV     A,R6
   \   00000F   2416         ADD     A,#0x16
   \   000011   FA           MOV     R2,A
   \   000012   EF           MOV     A,R7
   \   000013   3400         ADDC    A,#0x0
   \   000015   FB           MOV     R3,A
   \   000016   12....       LCALL   ??ZDSecMgrTCDataLoad?relay
   2832          
   2833            if ( ind->keyType == KEY_TYPE_TC_MASTER )
   \   000019   8E82         MOV     DPL,R6
   \   00001B   8F83         MOV     DPH,R7
   \   00001D   A3           INC     DPTR
   \   00001E   A3           INC     DPTR
   \   00001F   A3           INC     DPTR
   \   000020   A3           INC     DPTR
   \   000021   E0           MOVX    A,@DPTR
   \   000022   7003         JNZ     $+5
   \   000024   02....       LJMP    ??ZDSecMgrTransportKeyInd_0 & 0xFFFF
   2834            {
   2835              if ( ZG_CHECK_SECURITY_MODE == ZG_SECURITY_PRO_HIGH )
   2836              //ZDSecMgrTCMasterKey( ind );
   2837              {
   2838                if ( zgPreConfigKeys != TRUE )
   2839                {
   2840                  // devtag.pro.security.todo - check if Trust Center address is configured and correct
   2841                  ZDSecMgrMasterKeyLoad( ind->srcExtAddr, ind->key );
   2842                }
   2843                else
   2844                {
   2845                  // error condition - reject key
   2846                }
   2847              }
   2848            }
   2849            else if ( ( ind->keyType == KEY_TYPE_NWK      ) ||
   2850                      ( ind->keyType == 6                 ) ||
   2851                      ( ind->keyType == KEY_TYPE_NWK_HIGH )    )
   \   000027   6401         XRL     A,#0x1
   \   000029   601D         JZ      ??ZDSecMgrTransportKeyInd_1
   \   00002B   8E82         MOV     DPL,R6
   \   00002D   8F83         MOV     DPH,R7
   \   00002F   A3           INC     DPTR
   \   000030   A3           INC     DPTR
   \   000031   A3           INC     DPTR
   \   000032   A3           INC     DPTR
   \   000033   E0           MOVX    A,@DPTR
   \   000034   6406         XRL     A,#0x6
   \   000036   6010         JZ      ??ZDSecMgrTransportKeyInd_1
   \   000038   8E82         MOV     DPL,R6
   \   00003A   8F83         MOV     DPH,R7
   \   00003C   A3           INC     DPTR
   \   00003D   A3           INC     DPTR
   \   00003E   A3           INC     DPTR
   \   00003F   A3           INC     DPTR
   \   000040   E0           MOVX    A,@DPTR
   \   000041   6405         XRL     A,#0x5
   \   000043   6003         JZ      $+5
   \   000045   02....       LJMP    ??ZDSecMgrTransportKeyInd_0 & 0xFFFF
   2852            {
   2853              // check for dummy NWK key (all zeros)
   2854              for ( index = 0;
   \                     ??ZDSecMgrTransportKeyInd_1:
   \   000048   7800         MOV     R0,#0x0
   \                     ??ZDSecMgrTransportKeyInd_2:
   \   00004A   88..         MOV     ?V0 + 0,R0
   \   00004C   EE           MOV     A,R6
   \   00004D   25..         ADD     A,?V0 + 0
   \   00004F   12....       LCALL   ??Subroutine164_0 & 0xFFFF
   \                     ??CrossCallReturnLabel_395:
   \   000052   A3           INC     DPTR
   \   000053   A3           INC     DPTR
   \   000054   A3           INC     DPTR
   \   000055   A3           INC     DPTR
   \   000056   A3           INC     DPTR
   \   000057   A3           INC     DPTR
   \   000058   E0           MOVX    A,@DPTR
   \   000059   7007         JNZ     ??ZDSecMgrTransportKeyInd_3
   2855                    ( (index < SEC_KEY_LEN) && (ind->key[index] == 0) );
   2856                    index++ );
   \   00005B   08           INC     R0
   \   00005C   E8           MOV     A,R0
   \   00005D   C3           CLR     C
   \   00005E   9410         SUBB    A,#0x10
   \   000060   40E8         JC      ??ZDSecMgrTransportKeyInd_2
   2857          
   2858              if ( index == SEC_KEY_LEN )
   \                     ??ZDSecMgrTransportKeyInd_3:
   \   000062   7410         MOV     A,#0x10
   \   000064   68           XRL     A,R0
   \   000065   7040         JNZ     ??ZDSecMgrTransportKeyInd_4
   2859              {
   2860                // load preconfigured key - once!!
   2861                if ( !_NIB.nwkKeyLoaded )
   \   000067   90....       MOV     DPTR,#_NIB + 61
   \   00006A   E0           MOVX    A,@DPTR
   \   00006B   705F         JNZ     ??ZDSecMgrTransportKeyInd_5
   2862                {
   2863                  ZDSecMgrReadKeyFromNv(ZCD_NV_PRECFGKEY, zgPreConfigKey);
   \   00006D                ; Setup parameters for call to function ZDSecMgrReadKeyFromNv
   \   00006D   85..82       MOV     DPL,?XSP + 0
   \   000070   85..83       MOV     DPH,?XSP + 1
   \   000073   AC82         MOV     R4,DPL
   \   000075   AD83         MOV     R5,DPH
   \   000077   7A62         MOV     R2,#0x62
   \   000079   7B00         MOV     R3,#0x0
   \   00007B   12....       LCALL   ??ZDSecMgrReadKeyFromNv?relay
   2864                  SSP_UpdateNwkKey( zgPreConfigKey, 0 );
   \   00007E                ; Setup parameters for call to function SSP_UpdateNwkKey
   \   00007E   7900         MOV     R1,#0x0
   \   000080   85..82       MOV     DPL,?XSP + 0
   \   000083   85..83       MOV     DPH,?XSP + 1
   \   000086   AA82         MOV     R2,DPL
   \   000088   AB83         MOV     R3,DPH
   \   00008A   12....       LCALL   ??SSP_UpdateNwkKey?relay
   2865                  SSP_SwitchNwkKey( 0 );
   \   00008D                ; Setup parameters for call to function SSP_SwitchNwkKey
   \   00008D   7900         MOV     R1,#0x0
   \   00008F   12....       LCALL   ??SSP_SwitchNwkKey?relay
   2866          
   2867                  // clear local copy of key
   2868                  osal_memset(zgPreConfigKey, 0x00, SEC_KEY_LEN);
   \   000092                ; Setup parameters for call to function osal_memset
   \   000092   7C10         MOV     R4,#0x10
   \   000094   7D00         MOV     R5,#0x0
   \   000096   7900         MOV     R1,#0x0
   \   000098   85..82       MOV     DPL,?XSP + 0
   \   00009B   85..83       MOV     DPH,?XSP + 1
   \   00009E   AA82         MOV     R2,DPL
   \   0000A0   AB83         MOV     R3,DPH
   \   0000A2   12....       LCALL   ??osal_memset?relay
   \   0000A5   8025         SJMP    ??ZDSecMgrTransportKeyInd_5
   2869                }
   2870              }
   2871              else
   2872              {
   2873                SSP_UpdateNwkKey( ind->key, ind->keySeqNum );
   \                     ??ZDSecMgrTransportKeyInd_4:
   \   0000A7                ; Setup parameters for call to function SSP_UpdateNwkKey
   \   0000A7   8E82         MOV     DPL,R6
   \   0000A9   8F83         MOV     DPH,R7
   \   0000AB   A3           INC     DPTR
   \   0000AC   A3           INC     DPTR
   \   0000AD   A3           INC     DPTR
   \   0000AE   A3           INC     DPTR
   \   0000AF   A3           INC     DPTR
   \   0000B0   E0           MOVX    A,@DPTR
   \   0000B1   F9           MOV     R1,A
   \   0000B2   12....       LCALL   ?Subroutine114 & 0xFFFF
   \                     ??CrossCallReturnLabel_173:
   \   0000B5   12....       LCALL   ??SSP_UpdateNwkKey?relay
   2874                if ( !_NIB.nwkKeyLoaded )
   \   0000B8   90....       MOV     DPTR,#_NIB + 61
   \   0000BB   E0           MOVX    A,@DPTR
   \   0000BC   700E         JNZ     ??ZDSecMgrTransportKeyInd_5
   2875                {
   2876                  SSP_SwitchNwkKey( ind->keySeqNum );
   \   0000BE                ; Setup parameters for call to function SSP_SwitchNwkKey
   \   0000BE   8E82         MOV     DPL,R6
   \   0000C0   8F83         MOV     DPH,R7
   \   0000C2   A3           INC     DPTR
   \   0000C3   A3           INC     DPTR
   \   0000C4   A3           INC     DPTR
   \   0000C5   A3           INC     DPTR
   \   0000C6   A3           INC     DPTR
   \   0000C7   E0           MOVX    A,@DPTR
   \   0000C8   F9           MOV     R1,A
   \   0000C9   12....       LCALL   ??SSP_SwitchNwkKey?relay
   2877                }
   2878              }
   2879          
   2880              // handle next step in authentication process
   2881              ZDSecMgrAuthNwkKey();
   \                     ??ZDSecMgrTransportKeyInd_5:
   \   0000CC                ; Setup parameters for call to function ZDSecMgrAuthNwkKey
   \   0000CC   12....       LCALL   ??ZDSecMgrAuthNwkKey?relay
   2882            }
   2883            else if ( ind->keyType == KEY_TYPE_TC_LINK )
   2884            {
   2885              if ( ZG_CHECK_SECURITY_MODE == ZG_SECURITY_PRO_HIGH )
   2886              {
   2887                // This should not happen because TCLK should not be Tx
   2888              }
   2889            }
   2890            else if ( ind->keyType == KEY_TYPE_APP_MASTER )
   2891            {
   2892              if ( ZG_CHECK_SECURITY_MODE == ZG_SECURITY_PRO_HIGH )
   2893              {
   2894                uint16           ami;
   2895                AddrMgrEntry_t   entry;
   2896                ZDSecMgrEntry_t* entryZD;
   2897          
   2898                ZDSecMgrExtAddrLookup( ind->srcExtAddr, &ami );
   2899          
   2900                if ( ind->initiator == TRUE )
   2901                {
   2902                  // get the ami data
   2903                  entry.user  = ADDRMGR_USER_SECURITY;
   2904                  entry.index = ami;
   2905                  AddrMgrEntryGet( &entry );
   2906          
   2907                  if ( entry.nwkAddr != INVALID_NODE_ADDR )
   2908                  {
   2909                    APSME_EstablishKeyReq_t req;
   2910                    ZDSecMgrMasterKeyLoad( ind->srcExtAddr, ind->key );
   2911          
   2912                    ZDSecMgrEntryLookupAMI( ami, &entryZD );
   2913          
   2914                    if ( entryZD == NULL )
   2915                    {
   2916                      // get new entry
   2917                      if ( ZDSecMgrEntryNew( &entryZD ) == ZSuccess )
   2918                      {
   2919                        // finish setting up entry
   2920                        entryZD->ami = ami;
   2921                      }
   2922                    }
   2923          
   2924                    req.respExtAddr = ind->srcExtAddr;
   2925                    req.method      = APSME_SKKE_METHOD;
   2926                    req.dstAddr     = entry.nwkAddr;
   2927                    req.apsSecure   = FALSE;
   2928                    req.nwkSecure   = TRUE;
   2929                    APSME_EstablishKeyReq( &req );
   2930                  }
   2931                }
   2932                else
   2933                {
   2934                  if ( ami == INVALID_NODE_ADDR )
   2935                  {
   2936                    // store new EXT address
   2937                    ZDSecMgrAddrStore( INVALID_NODE_ADDR, ind->srcExtAddr, &ami );
   2938                  }
   2939          
   2940                  ZDSecMgrMasterKeyLoad( ind->srcExtAddr, ind->key );
   2941                }
   2942              }
   2943            }
   2944            else if ( ind->keyType == KEY_TYPE_APP_LINK )
   2945            {
   2946              if ( ( ZG_CHECK_SECURITY_MODE == ZG_SECURITY_PRO_HIGH ) ||
   2947                   ( ZG_CHECK_SECURITY_MODE == ZG_SECURITY_SE_STANDARD ) )
   2948              {
   2949                uint16           ami;
   2950                ZDSecMgrEntry_t* entry;
   2951          
   2952                // get the address index
   2953                if ( ZDSecMgrExtAddrLookup( ind->srcExtAddr, &ami ) != ZSuccess )
   2954                {
   2955                  // store new EXT address
   2956                  ZDSecMgrAddrStore( INVALID_NODE_ADDR, ind->srcExtAddr, &ami );
   2957                  ZDP_NwkAddrReq( ind->srcExtAddr, ZDP_ADDR_REQTYPE_SINGLE, 0, 0 );
   2958                }
   2959          
   2960                ZDSecMgrEntryLookupAMI( ami, &entry );
   2961          
   2962                if ( entry == NULL )
   2963                {
   2964                  // get new entry
   2965                  if ( ZDSecMgrEntryNew( &entry ) == ZSuccess )
   2966                  {
   2967                    // finish setting up entry
   2968                    entry->ami = ami;
   2969                  }
   2970                }
   2971          
   2972                ZDSecMgrLinkKeySet( ind->srcExtAddr, ind->key );
   2973          
   2974          #if defined NV_RESTORE
   2975                ZDSecMgrWriteNV();  // Write the control record for the new established link key to NV.
   2976          #endif
   2977              }
   2978            }
   2979          }
   \                     ??ZDSecMgrTransportKeyInd_0:
   \   0000CF   7410         MOV     A,#0x10
   \   0000D1   02....       LJMP    ??Subroutine134_0 & 0xFFFF

   \                                 In  segment BANKED_CODE, align 1, keep-with-next
   \                     ?Subroutine114:
   \   000000   EE           MOV     A,R6
   \   000001   2406         ADD     A,#0x6
   \   000003   FA           MOV     R2,A
   \   000004   EF           MOV     A,R7
   \   000005   3400         ADDC    A,#0x0
   \   000007   FB           MOV     R3,A
   \   000008   22           RET
   2980          
   2981          /******************************************************************************
   2982           * @fn          ZDSecMgrUpdateDeviceInd
   2983           *
   2984           * @brief       Process the ZDO_UpdateDeviceInd_t message.
   2985           *
   2986           * @param       ind - [in] ZDO_UpdateDeviceInd_t indication
   2987           *
   2988           * @return      none
   2989           */

   \                                 In  segment BANKED_CODE, align 1, keep-with-next
   \                     ?Subroutine9:
   \   000000   740A         MOV     A,#0xa
   \   000002                REQUIRE ??Subroutine128_0
   \   000002                ; // Fall through to label ??Subroutine128_0

   \                                 In  segment BANKED_CODE, align 1, keep-with-next
   2990          void ZDSecMgrUpdateDeviceInd( ZDO_UpdateDeviceInd_t* ind )
   \                     ZDSecMgrUpdateDeviceInd:
   2991          {
   \   000000   C082         PUSH    DPL
   \   000002   C083         PUSH    DPH
   \   000004                ; Saved register size: 2
   \   000004                ; Auto size: 10
   \   000004   74F6         MOV     A,#-0xa
   \   000006   12....       LCALL   ?ALLOC_XSTACK8
   2992            ZDSecMgrDevice_t device;
   2993          
   2994            device.nwkAddr    = ind->devAddr;
   \   000009   EA           MOV     A,R2
   \   00000A   240C         ADD     A,#0xc
   \   00000C   F582         MOV     DPL,A
   \   00000E   EB           MOV     A,R3
   \   00000F   12....       LCALL   ??Subroutine165_0 & 0xFFFF
   \                     ??CrossCallReturnLabel_386:
   \   000012   12....       LCALL   ?Subroutine35 & 0xFFFF
   2995            device.extAddr    = ind->devExtAddr;
   \                     ??CrossCallReturnLabel_244:
   \   000015   EA           MOV     A,R2
   \   000016   2404         ADD     A,#0x4
   \   000018   F8           MOV     R0,A
   \   000019   EB           MOV     A,R3
   \   00001A   3400         ADDC    A,#0x0
   \   00001C   F9           MOV     R1,A
   \   00001D   7402         MOV     A,#0x2
   \   00001F   12....       LCALL   ?XSTACK_DISP0_8
   \   000022   12....       LCALL   ?Subroutine18 & 0xFFFF
   2996            device.parentAddr = ind->srcAddr;
   \                     ??CrossCallReturnLabel_9:
   \   000025   12....       LCALL   ?XSTACK_DISP0_8
   \   000028   12....       LCALL   ?Subroutine16 & 0xFFFF
   2997          
   2998            //if ( ( ind->status == APSME_UD_SECURED_JOIN   ) ||
   2999            //     ( ind->status == APSME_UD_UNSECURED_JOIN )   )
   3000            //{
   3001            //  if ( ind->status == APSME_UD_SECURED_JOIN )
   3002            //  {
   3003            //    device.secure = TRUE;
   3004            //  }
   3005            //  else
   3006            //  {
   3007            //    device.secure = FALSE;
   3008            //  }
   3009          
   3010              // try to join this device
   3011              ZDSecMgrDeviceJoin( &device );
   \                     ??CrossCallReturnLabel_6:
   \   00002B   12....       LCALL   ??ZDSecMgrDeviceJoin?relay
   3012            //}
   3013          }
   \   00002E   02....       LJMP    ?Subroutine9 & 0xFFFF
   3014          
   3015          /******************************************************************************
   3016           * @fn          ZDSecMgrRemoveDeviceInd
   3017           *
   3018           * @brief       Process the ZDO_RemoveDeviceInd_t message.
   3019           *
   3020           * @param       ind - [in] ZDO_RemoveDeviceInd_t indication
   3021           *
   3022           * @return      none
   3023           */

   \                                 In  segment BANKED_CODE, align 1, keep-with-next
   3024          void ZDSecMgrRemoveDeviceInd( ZDO_RemoveDeviceInd_t* ind )
   \                     ZDSecMgrRemoveDeviceInd:
   3025          {
   \   000000   74F7         MOV     A,#-0x9
   \   000002   12....       LCALL   ?BANKED_ENTER_XDATA
   \   000005                ; Saved register size: 9
   \   000005                ; Auto size: 10
   \   000005   74F6         MOV     A,#-0xa
   \   000007   12....       LCALL   ?ALLOC_XSTACK8
   \   00000A   EA           MOV     A,R2
   \   00000B   FE           MOV     R6,A
   \   00000C   EB           MOV     A,R3
   \   00000D   FF           MOV     R7,A
   3026            ZDSecMgrDevice_t device;
   3027          
   3028            // only accept from Trust Center
   3029            if ( ind->srcAddr == APSME_TRUSTCENTER_NWKADDR )
   \   00000E   8E82         MOV     DPL,R6
   \   000010   8F83         MOV     DPH,R7
   \   000012   A3           INC     DPTR
   \   000013   A3           INC     DPTR
   \   000014   12....       LCALL   ??Subroutine155_0 & 0xFFFF
   \                     ??CrossCallReturnLabel_330:
   \   000017   7027         JNZ     ??CrossCallReturnLabel_3
   3030            {
   3031              // look up NWK address
   3032              if ( APSME_LookupNwkAddr( ind->childExtAddr, &device.nwkAddr ) == TRUE )
   \   000019                ; Setup parameters for call to function APSME_LookupNwkAddr
   \   000019   85..82       MOV     DPL,?XSP + 0
   \   00001C   85..83       MOV     DPH,?XSP + 1
   \   00001F   AC82         MOV     R4,DPL
   \   000021   AD83         MOV     R5,DPH
   \   000023   EE           MOV     A,R6
   \   000024   2404         ADD     A,#0x4
   \   000026   12....       LCALL   ?Subroutine50 & 0xFFFF
   \                     ??CrossCallReturnLabel_77:
   \   000029   7015         JNZ     ??CrossCallReturnLabel_3
   3033              {
   3034                device.parentAddr = NLME_GetShortAddr();
   \   00002B                ; Setup parameters for call to function NLME_GetShortAddr
   \   00002B   12....       LCALL   ??NLME_GetShortAddr?relay
   \   00002E   7404         MOV     A,#0x4
   \   000030   12....       LCALL   ?XSTACK_DISP0_8
   \   000033   EA           MOV     A,R2
   \   000034   F0           MOVX    @DPTR,A
   \   000035   A3           INC     DPTR
   \   000036   EB           MOV     A,R3
   \   000037   12....       LCALL   ??Subroutine151_0 & 0xFFFF
   3035                device.extAddr    = ind->childExtAddr;
   3036          
   3037                // remove device
   3038                ZDSecMgrDeviceRemove( &device );
   3039              }
   3040            }
   \                     ??CrossCallReturnLabel_313:
   \   00003A   12....       LCALL   ?XSTACK_DISP0_8
   \   00003D   12....       LCALL   ?Subroutine15 & 0xFFFF
   3041          }
   \                     ??CrossCallReturnLabel_3:
   \   000040   740A         MOV     A,#0xa
   \   000042   02....       LJMP    ??Subroutine146_0 & 0xFFFF

   \                                 In  segment BANKED_CODE, align 1, keep-with-next
   \                     ?Subroutine15:
   \   000000   12....       LCALL   ?Subroutine91 & 0xFFFF
   \                     ??CrossCallReturnLabel_317:
   \   000003   12....       LCALL   ??ZDSecMgrDeviceRemove?relay
   \   000006   22           RET
   3042          
   3043          /******************************************************************************
   3044           * @fn          ZDSecMgrRequestKeyInd
   3045           *
   3046           * @brief       Process the ZDO_RequestKeyInd_t message.
   3047           *
   3048           * @param       ind - [in] ZDO_RequestKeyInd_t indication
   3049           *
   3050           * @return      none
   3051           */

   \                                 In  segment BANKED_CODE, align 1, keep-with-next
   3052          void ZDSecMgrRequestKeyInd( ZDO_RequestKeyInd_t* ind )
   \                     ZDSecMgrRequestKeyInd:
   3053          {
   \   000000   C082         PUSH    DPL
   \   000002   C083         PUSH    DPH
   \   000004                ; Saved register size: 2
   \   000004                ; Auto size: 0
   3054            if ( ind->keyType == KEY_TYPE_NWK )
   \   000004   8A82         MOV     DPL,R2
   \   000006   8B83         MOV     DPH,R3
   \   000008   A3           INC     DPTR
   \   000009   A3           INC     DPTR
   \   00000A   A3           INC     DPTR
   \   00000B   A3           INC     DPTR
   \   00000C   E0           MOVX    A,@DPTR
   \   00000D   6401         XRL     A,#0x1
   \   00000F   6010         JZ      ??ZDSecMgrRequestKeyInd_0
   3055            {
   3056            }
   3057            else if ( ind->keyType == KEY_TYPE_APP_MASTER )
   \   000011   8A82         MOV     DPL,R2
   \   000013   8B83         MOV     DPH,R3
   \   000015   A3           INC     DPTR
   \   000016   A3           INC     DPTR
   \   000017   A3           INC     DPTR
   \   000018   A3           INC     DPTR
   \   000019   E0           MOVX    A,@DPTR
   \   00001A   6402         XRL     A,#0x2
   \   00001C   7003         JNZ     ??ZDSecMgrRequestKeyInd_0
   3058            {
   3059              ZDSecMgrAppKeyReq( ind );
   \   00001E                ; Setup parameters for call to function ZDSecMgrAppKeyReq
   \   00001E   12....       LCALL   ??ZDSecMgrAppKeyReq?relay
   3060            }
   3061            else if ( ind->keyType == KEY_TYPE_TC_LINK )
   3062            {
   3063            }
   3064            //else ignore
   3065          }
   \                     ??ZDSecMgrRequestKeyInd_0:
   \   000021   02....       LJMP    ??Subroutine139_0 & 0xFFFF
   3066          
   3067          /******************************************************************************
   3068           * @fn          ZDSecMgrSwitchKeyInd
   3069           *
   3070           * @brief       Process the ZDO_SwitchKeyInd_t message.
   3071           *
   3072           * @param       ind - [in] ZDO_SwitchKeyInd_t indication
   3073           *
   3074           * @return      none
   3075           */

   \                                 In  segment BANKED_CODE, align 1, keep-with-next
   3076          void ZDSecMgrSwitchKeyInd( ZDO_SwitchKeyInd_t* ind )
   \                     ZDSecMgrSwitchKeyInd:
   3077          {
   \   000000   C082         PUSH    DPL
   \   000002   C083         PUSH    DPH
   \   000004                ; Saved register size: 2
   \   000004                ; Auto size: 0
   3078            SSP_SwitchNwkKey( ind->keySeqNum );
   \   000004                ; Setup parameters for call to function SSP_SwitchNwkKey
   \   000004   8A82         MOV     DPL,R2
   \   000006   8B83         MOV     DPH,R3
   \   000008   A3           INC     DPTR
   \   000009   A3           INC     DPTR
   \   00000A   A3           INC     DPTR
   \   00000B   A3           INC     DPTR
   \   00000C   E0           MOVX    A,@DPTR
   \   00000D   F9           MOV     R1,A
   \   00000E   12....       LCALL   ??SSP_SwitchNwkKey?relay
   3079          
   3080            // Save if nv
   3081            ZDApp_NVUpdate();
   \   000011                ; Setup parameters for call to function ZDApp_NVUpdate
   \   000011   12....       LCALL   ??ZDApp_NVUpdate?relay
   3082          }
   \   000014   02....       LJMP    ??Subroutine139_0 & 0xFFFF
   3083          
   3084          /******************************************************************************
   3085           * @fn          ZDSecMgrAuthenticateInd
   3086           *
   3087           * @brief       Process the ZDO_AuthenticateInd_t message.
   3088           *
   3089           * @param       ind - [in] ZDO_AuthenticateInd_t indication
   3090           *
   3091           * @return      none
   3092           */

   \                                 In  segment BANKED_CODE, align 1, keep-with-next
   3093          void ZDSecMgrAuthenticateInd( ZDO_AuthenticateInd_t* ind )
   \                     ZDSecMgrAuthenticateInd:
   3094          {
   \   000000   74F7         MOV     A,#-0x9
   \   000002   12....       LCALL   ?BANKED_ENTER_XDATA
   \   000005                ; Saved register size: 9
   \   000005                ; Auto size: 20
   \   000005   74EC         MOV     A,#-0x14
   \   000007   12....       LCALL   ?ALLOC_XSTACK8
   \   00000A   EA           MOV     A,R2
   \   00000B   FE           MOV     R6,A
   \   00000C   EB           MOV     A,R3
   \   00000D   FF           MOV     R7,A
   3095            APSME_AuthenticateReq_t req;
   3096            AddrMgrEntry_t          entry;
   3097          
   3098            // update the address manager
   3099            //---------------------------------------------------------------------------
   3100            // note:
   3101            // required for EA processing, but ultimately EA logic could also use the
   3102            // neighbor table to look up addresses -- also(IF using EA) the neighbor
   3103            // table is supposed to have authentication states for neighbors
   3104            //---------------------------------------------------------------------------
   3105            entry.user    = ADDRMGR_USER_SECURITY;
   \   00000E   7407         MOV     A,#0x7
   \   000010   12....       LCALL   ?XSTACK_DISP0_8
   \   000013   7402         MOV     A,#0x2
   \   000015   12....       LCALL   ?Subroutine23 & 0xFFFF
   3106            entry.nwkAddr = ind->aps.initNwkAddr;
   \                     ??CrossCallReturnLabel_22:
   \   000018   12....       LCALL   ?XSTACK_DISP0_8
   \   00001B   12....       LCALL   ??Subroutine130_0 & 0xFFFF
   3107            AddrMgrExtAddrSet( entry.extAddr, ind->aps.initExtAddr );
   \                     ??CrossCallReturnLabel_239:
   \   00001E                ; Setup parameters for call to function AddrMgrExtAddrSet
   \   00001E   EE           MOV     A,R6
   \   00001F   2404         ADD     A,#0x4
   \   000021   FC           MOV     R4,A
   \   000022   EF           MOV     A,R7
   \   000023   3400         ADDC    A,#0x0
   \   000025   FD           MOV     R5,A
   \   000026   740A         MOV     A,#0xa
   \   000028   12....       LCALL   ?XSTACK_DISP0_8
   \   00002B   AA82         MOV     R2,DPL
   \   00002D   AB83         MOV     R3,DPH
   \   00002F   12....       LCALL   ??AddrMgrExtAddrSet?relay
   3108          
   3109            if ( AddrMgrEntryUpdate( &entry ) == TRUE )
   \   000032                ; Setup parameters for call to function AddrMgrEntryUpdate
   \   000032   7407         MOV     A,#0x7
   \   000034   12....       LCALL   ?XSTACK_DISP0_8
   \   000037   AA82         MOV     R2,DPL
   \   000039   AB83         MOV     R3,DPH
   \   00003B   12....       LCALL   ??AddrMgrEntryUpdate?relay
   \   00003E   E9           MOV     A,R1
   \   00003F   6401         XRL     A,#0x1
   \   000041   7024         JNZ     ??ZDSecMgrAuthenticateInd_0
   3110            {
   3111              // set request fields
   3112              req.nwkAddr   = ind->aps.initNwkAddr;
   \   000043   12....       LCALL   ?Subroutine14 & 0xFFFF
   3113              req.extAddr   = ind->aps.initExtAddr;
   \                     ??CrossCallReturnLabel_312:
   \   000046   12....       LCALL   ?XSTACK_DISP0_8
   \   000049   12....       LCALL   ??Subroutine130_0 & 0xFFFF
   3114              req.action    = APSME_EA_ACCEPT;
   \                     ??CrossCallReturnLabel_240:
   \   00004C   7406         MOV     A,#0x6
   \   00004E   12....       LCALL   ?XSTACK_DISP0_8
   \   000051   7401         MOV     A,#0x1
   \   000053   F0           MOVX    @DPTR,A
   3115              req.challenge = ind->aps.challenge;
   \   000054   EE           MOV     A,R6
   \   000055   240C         ADD     A,#0xc
   \   000057   F8           MOV     R0,A
   \   000058   EF           MOV     A,R7
   \   000059   3400         ADDC    A,#0x0
   \   00005B   F9           MOV     R1,A
   \   00005C   7404         MOV     A,#0x4
   \   00005E   12....       LCALL   ?XSTACK_DISP0_8
   \   000061   12....       LCALL   ?Subroutine16 & 0xFFFF
   3116          
   3117              // start EA processing
   3118              APSME_AuthenticateReq( &req );
   3119            }
   \                     ??CrossCallReturnLabel_7:
   \   000064   12....       LCALL   ??APSME_AuthenticateReq?relay
   3120          }
   \                     ??ZDSecMgrAuthenticateInd_0:
   \   000067   7414         MOV     A,#0x14
   \   000069   02....       LJMP    ??Subroutine146_0 & 0xFFFF
   3121          
   3122          /******************************************************************************
   3123           * @fn          ZDSecMgrAuthenticateCfm
   3124           *
   3125           * @brief       Process the ZDO_AuthenticateCfm_t message.
   3126           *
   3127           * @param       cfm - [in] ZDO_AuthenticateCfm_t confirmation
   3128           *
   3129           * @return      none
   3130           */

   \                                 In  segment BANKED_CODE, align 1, keep-with-next
   3131          void ZDSecMgrAuthenticateCfm( ZDO_AuthenticateCfm_t* cfm )
   \                     ZDSecMgrAuthenticateCfm:
   3132          {
   \   000000   C082         PUSH    DPL
   \   000002   C083         PUSH    DPH
   \   000004                ; Saved register size: 2
   \   000004                ; Auto size: 0
   3133            if ( cfm->aps.status == ZSuccess )
   \   000004   EA           MOV     A,R2
   \   000005   240B         ADD     A,#0xb
   \   000007   F582         MOV     DPL,A
   \   000009   EB           MOV     A,R3
   \   00000A   12....       LCALL   ??Subroutine165_0 & 0xFFFF
   \                     ??CrossCallReturnLabel_387:
   \   00000D   E0           MOVX    A,@DPTR
   \   00000E   701F         JNZ     ??ZDSecMgrAuthenticateCfm_0
   3134            {
   3135              if ( ( cfm->aps.initiator == TRUE ) && ( devState == DEV_END_DEVICE_UNAUTH ) )
   \   000010   8A82         MOV     DPL,R2
   \   000012   8B83         MOV     DPH,R3
   \   000014   A3           INC     DPTR
   \   000015   A3           INC     DPTR
   \   000016   E0           MOVX    A,@DPTR
   \   000017   6401         XRL     A,#0x1
   \   000019   7014         JNZ     ??ZDSecMgrAuthenticateCfm_0
   \   00001B   90....       MOV     DPTR,#devState
   \   00001E   E0           MOVX    A,@DPTR
   \   00001F   6405         XRL     A,#0x5
   \   000021   700C         JNZ     ??ZDSecMgrAuthenticateCfm_0
   3136              {
   3137                // inform ZDO that device has been authenticated
   3138                osal_set_event ( ZDAppTaskID, ZDO_DEVICE_AUTH );
   \   000023                ; Setup parameters for call to function osal_set_event
   \   000023   7A80         MOV     R2,#-0x80
   \   000025   7B00         MOV     R3,#0x0
   \   000027   90....       MOV     DPTR,#ZDAppTaskID
   \   00002A   E0           MOVX    A,@DPTR
   \   00002B   F9           MOV     R1,A
   \   00002C   12....       LCALL   ??osal_set_event?relay
   3139              }
   3140            }
   3141          }
   \                     ??ZDSecMgrAuthenticateCfm_0:
   \   00002F   02....       LJMP    ??Subroutine139_0 & 0xFFFF
   3142          
   3143          #if ( ZG_BUILD_COORDINATOR_TYPE )
   3144          /******************************************************************************
   3145           * @fn          ZDSecMgrUpdateNwkKey
   3146           *
   3147           * @brief       Load a new NWK key and trigger a network wide update.
   3148           *
   3149           * @param       key       - [in] new NWK key
   3150           * @param       keySeqNum - [in] new NWK key sequence number
   3151           *
   3152           * @return      ZStatus_t
   3153           */

   \                                 In  segment BANKED_CODE, align 1, keep-with-next
   3154          ZStatus_t ZDSecMgrUpdateNwkKey( uint8* key, uint8 keySeqNum, uint16 dstAddr )
   \                     ZDSecMgrUpdateNwkKey:
   3155          {
   \   000000   74F6         MOV     A,#-0xa
   \   000002   12....       LCALL   ?BANKED_ENTER_XDATA
   \   000005                ; Saved register size: 10
   \   000005                ; Auto size: 13
   \   000005   74F3         MOV     A,#-0xd
   \   000007   12....       LCALL   ?ALLOC_XSTACK8
   \   00000A   EA           MOV     A,R2
   \   00000B   FE           MOV     R6,A
   \   00000C   EB           MOV     A,R3
   \   00000D   FF           MOV     R7,A
   \   00000E   89..         MOV     ?V0 + 0,R1
   3156            ZStatus_t               status;
   3157            APSME_TransportKeyReq_t req;
   3158          
   3159            // initialize common elements of local variables
   3160            if ( ZG_CHECK_SECURITY_MODE == ZG_SECURITY_PRO_HIGH )
   3161            {
   3162              req.keyType   = KEY_TYPE_NWK_HIGH;
   3163            }
   3164            else
   3165            {
   3166              req.keyType   = KEY_TYPE_NWK;
   \   000010   7402         MOV     A,#0x2
   \   000012   12....       LCALL   ?XSTACK_DISP0_8
   \   000015   7401         MOV     A,#0x1
   \   000017   12....       LCALL   ??Subroutine132_0 & 0xFFFF
   3167            }
   3168          
   3169            req.dstAddr   = dstAddr;
   \                     ??CrossCallReturnLabel_254:
   \   00001A   EC           MOV     A,R4
   \   00001B   F0           MOVX    @DPTR,A
   \   00001C   A3           INC     DPTR
   \   00001D   ED           MOV     A,R5
   \   00001E   F0           MOVX    @DPTR,A
   3170            req.keySeqNum = keySeqNum;
   \   00001F   7403         MOV     A,#0x3
   \   000021   12....       LCALL   ?XSTACK_DISP0_8
   \   000024   E9           MOV     A,R1
   \   000025   F0           MOVX    @DPTR,A
   3171            req.key       = key;
   \   000026   7404         MOV     A,#0x4
   \   000028   12....       LCALL   ?XSTACK_DISP0_8
   \   00002B   EE           MOV     A,R6
   \   00002C   F0           MOVX    @DPTR,A
   \   00002D   A3           INC     DPTR
   \   00002E   EF           MOV     A,R7
   \   00002F   F0           MOVX    @DPTR,A
   3172            req.extAddr   = NULL;
   \   000030   7406         MOV     A,#0x6
   \   000032   12....       LCALL   ?XSTACK_DISP0_8
   \   000035   E4           CLR     A
   \   000036   F0           MOVX    @DPTR,A
   \   000037   A3           INC     DPTR
   \   000038   F0           MOVX    @DPTR,A
   3173            req.nwkSecure = TRUE;
   \   000039   740A         MOV     A,#0xa
   \   00003B   12....       LCALL   ?XSTACK_DISP0_8
   \   00003E   7401         MOV     A,#0x1
   \   000040   F0           MOVX    @DPTR,A
   3174            req.apsSecure = TRUE;
   \   000041   7409         MOV     A,#0x9
   \   000043   12....       LCALL   ?XSTACK_DISP0_8
   \   000046   7401         MOV     A,#0x1
   \   000048   F0           MOVX    @DPTR,A
   3175            req.tunnel    = NULL;
   \   000049   740B         MOV     A,#0xb
   \   00004B   12....       LCALL   ?XSTACK_DISP0_8
   \   00004E   12....       LCALL   ?Subroutine17 & 0xFFFF
   3176          
   3177            if (( ZG_CHECK_SECURITY_MODE == ZG_SECURITY_PRO_HIGH ) ||
   3178                ( ZG_CHECK_SECURITY_MODE == ZG_SECURITY_SE_STANDARD ))
   3179            {
   3180              ZDSecMgrEntry_t*        entry;
   3181              uint16                  index;
   3182              AddrMgrEntry_t          addrEntry;
   3183          
   3184              addrEntry.user = ADDRMGR_USER_SECURITY;
   3185          
   3186              status = ZFailure;
   3187          
   3188              // verify data is available
   3189              if ( ZDSecMgrEntries != NULL )
   3190              {
   3191                // find available entry
   3192                for ( index = 0; index < ZDSECMGR_ENTRY_MAX ; index++ )
   3193                {
   3194                  if ( ZDSecMgrEntries[index].ami != INVALID_NODE_ADDR )
   3195                  {
   3196                    // return successful result
   3197                    entry = &ZDSecMgrEntries[index];
   3198          
   3199                    // get NWK address
   3200                    addrEntry.index = entry->ami;
   3201                    if ( AddrMgrEntryGet( &addrEntry ) == TRUE )
   3202                    {
   3203                      req.dstAddr = addrEntry.nwkAddr;
   3204                      req.extAddr = addrEntry.extAddr;
   3205                      status = APSME_TransportKeyReq( &req );
   3206                    }
   3207                  }
   3208                }
   3209              }
   3210            }
   3211            else // ( ZG_CHECK_SECURITY_MODE == ZG_SECURITY_RESIDENTIAL )
   3212            {
   3213              status = APSME_TransportKeyReq( &req );
   \                     ??CrossCallReturnLabel_286:
   \   000051   12....       LCALL   ??APSME_TransportKeyReq?relay
   \   000054   E9           MOV     A,R1
   \   000055   F5..         MOV     ?V0 + 1,A
   3214            }
   3215          
   3216            SSP_UpdateNwkKey( key, keySeqNum );
   \   000057                ; Setup parameters for call to function SSP_UpdateNwkKey
   \   000057   A9..         MOV     R1,?V0 + 0
   \   000059   EE           MOV     A,R6
   \   00005A   FA           MOV     R2,A
   \   00005B   EF           MOV     A,R7
   \   00005C   FB           MOV     R3,A
   \   00005D   12....       LCALL   ??SSP_UpdateNwkKey?relay
   3217          
   3218            // Save if nv
   3219            ZDApp_NVUpdate();
   \   000060                ; Setup parameters for call to function ZDApp_NVUpdate
   \   000060   12....       LCALL   ??ZDApp_NVUpdate?relay
   3220          
   3221            return status;
   \   000063   A9..         MOV     R1,?V0 + 1
   \   000065   740D         MOV     A,#0xd
   \   000067   02....       LJMP    ??Subroutine134_0 & 0xFFFF
   3222          }
   3223          #endif // ( ZG_BUILD_COORDINATOR_TYPE )
   3224          
   3225          #if ( ZG_BUILD_COORDINATOR_TYPE )
   3226          /******************************************************************************
   3227           * @fn          ZDSecMgrSwitchNwkKey
   3228           *
   3229           * @brief       Causes the NWK key to switch via a network wide command.
   3230           *
   3231           * @param       keySeqNum - [in] new NWK key sequence number
   3232           *
   3233           * @return      ZStatus_t
   3234           */

   \                                 In  segment BANKED_CODE, align 1, keep-with-next
   3235          ZStatus_t ZDSecMgrSwitchNwkKey( uint8 keySeqNum, uint16 dstAddr )
   \                     ZDSecMgrSwitchNwkKey:
   3236          {
   \   000000   74F7         MOV     A,#-0x9
   \   000002   12....       LCALL   ?BANKED_ENTER_XDATA
   \   000005                ; Saved register size: 9
   \   000005                ; Auto size: 3
   \   000005   74FD         MOV     A,#-0x3
   \   000007   12....       LCALL   ?ALLOC_XSTACK8
   \   00000A   E9           MOV     A,R1
   \   00000B   FE           MOV     R6,A
   3237            ZStatus_t            status;
   3238            APSME_SwitchKeyReq_t req;
   3239          
   3240            // initialize common elements of local variables
   3241            req.dstAddr = dstAddr;
   \   00000C   12....       LCALL   ?Subroutine31 & 0xFFFF
   3242            req.keySeqNum = keySeqNum;
   \                     ??CrossCallReturnLabel_38:
   \   00000F   12....       LCALL   ?XSTACK_DISP0_8
   \   000012   E9           MOV     A,R1
   \   000013   12....       LCALL   ??Subroutine141_0 & 0xFFFF
   3243          
   3244            if (( ZG_CHECK_SECURITY_MODE == ZG_SECURITY_PRO_HIGH ) ||
   3245                ( ZG_CHECK_SECURITY_MODE == ZG_SECURITY_SE_STANDARD ))
   3246            {
   3247              ZDSecMgrEntry_t*     entry;
   3248              uint16               index;
   3249              AddrMgrEntry_t       addrEntry;
   3250          
   3251              addrEntry.user = ADDRMGR_USER_SECURITY;
   3252          
   3253              status = ZFailure;
   3254          
   3255              // verify data is available
   3256              if ( ZDSecMgrEntries != NULL )
   3257              {
   3258                // find available entry
   3259                for ( index = 0; index < ZDSECMGR_ENTRY_MAX ; index++ )
   3260                {
   3261                  if ( ZDSecMgrEntries[index].ami != INVALID_NODE_ADDR )
   3262                  {
   3263                    // return successful result
   3264                    entry = &ZDSecMgrEntries[index];
   3265          
   3266                    // get NWK address
   3267                    addrEntry.index = entry->ami;
   3268          
   3269                    if ( AddrMgrEntryGet( &addrEntry ) == TRUE )
   3270                    {
   3271                      req.dstAddr = addrEntry.nwkAddr;
   3272                      status = APSME_SwitchKeyReq( &req );
   3273                    }
   3274                  }
   3275                }
   3276              }
   3277            }
   3278            else // ( ZG_CHECK_SECURITY_MODE == ZG_SECURITY_RESIDENTIAL )
   3279            {
   3280              status = APSME_SwitchKeyReq( &req );
   \                     ??CrossCallReturnLabel_293:
   \   000016   12....       LCALL   ??APSME_SwitchKeyReq?relay
   \   000019   E9           MOV     A,R1
   \   00001A   FF           MOV     R7,A
   3281            }
   3282          
   3283            SSP_SwitchNwkKey( keySeqNum );
   \   00001B                ; Setup parameters for call to function SSP_SwitchNwkKey
   \   00001B   EE           MOV     A,R6
   \   00001C   F9           MOV     R1,A
   \   00001D   12....       LCALL   ??SSP_SwitchNwkKey?relay
   3284          
   3285            // Save if nv
   3286            ZDApp_NVUpdate();
   \   000020                ; Setup parameters for call to function ZDApp_NVUpdate
   \   000020   12....       LCALL   ??ZDApp_NVUpdate?relay
   3287          
   3288            return status;
   \   000023   EF           MOV     A,R7
   \   000024   F9           MOV     R1,A
   \   000025   7403         MOV     A,#0x3
   \   000027   02....       LJMP    ??Subroutine146_0 & 0xFFFF
   3289          }
   3290          #endif // ( ZG_BUILD_COORDINATOR_TYPE )
   3291          
   3292          /******************************************************************************
   3293           * @fn          ZDSecMgrRequestAppKey
   3294           *
   3295           * @brief       Request an application key with partner.
   3296           *
   3297           * @param       partExtAddr - [in] partner extended address
   3298           *
   3299           * @return      ZStatus_t
   3300           */

   \                                 In  segment BANKED_CODE, align 1, keep-with-next
   3301          ZStatus_t ZDSecMgrRequestAppKey( uint8 *partExtAddr )
   \                     ZDSecMgrRequestAppKey:
   3302          {
   \   000000   C082         PUSH    DPL
   \   000002   C083         PUSH    DPH
   \   000004                ; Saved register size: 2
   \   000004                ; Auto size: 4
   \   000004   74FC         MOV     A,#-0x4
   \   000006   12....       LCALL   ?ALLOC_XSTACK8
   3303            ZStatus_t status;
   3304            APSME_RequestKeyReq_t req;
   3305          
   3306            req.dstAddr = 0;
   \   000009   85..82       MOV     DPL,?XSP + 0
   \   00000C   85..83       MOV     DPH,?XSP + 1
   \   00000F   E4           CLR     A
   \   000010   F0           MOVX    @DPTR,A
   3307            req.keyType = KEY_TYPE_APP_MASTER;
   \   000011   04           INC     A
   \   000012   12....       LCALL   ?XSTACK_DISP0_8
   \   000015   7402         MOV     A,#0x2
   \   000017   F0           MOVX    @DPTR,A
   3308          
   3309            req.partExtAddr = partExtAddr;
   \   000018   12....       LCALL   ?XSTACK_DISP0_8
   \   00001B   12....       LCALL   ?Subroutine12 & 0xFFFF
   3310            status = APSME_RequestKeyReq( &req );
   3311          
   3312            return status;
   \                     ??CrossCallReturnLabel_2:
   \   00001E   12....       LCALL   ??APSME_RequestKeyReq?relay
   \   000021   7404         MOV     A,#0x4
   \   000023   02....       LJMP    ??Subroutine128_0 & 0xFFFF
   3313          }
   3314          
   3315          #if ( ZG_BUILD_JOINING_TYPE )
   3316          /******************************************************************************
   3317           * @fn          ZDSecMgrSetupPartner
   3318           *
   3319           * @brief       Setup for application key partner.
   3320           *
   3321           * @param       partNwkAddr - [in] partner network address
   3322           *
   3323           * @return      ZStatus_t
   3324           */
   3325          ZStatus_t ZDSecMgrSetupPartner( uint16 partNwkAddr, uint8* partExtAddr )
   3326          {
   3327            AddrMgrEntry_t entry;
   3328            ZStatus_t      status;
   3329          
   3330            status = ZFailure;
   3331          
   3332            // update the address manager
   3333            entry.user    = ADDRMGR_USER_SECURITY;
   3334            entry.nwkAddr = partNwkAddr;
   3335            AddrMgrExtAddrSet( entry.extAddr, partExtAddr );
   3336          
   3337            if ( AddrMgrEntryUpdate( &entry ) == TRUE )
   3338            {
   3339              status = ZSuccess;
   3340          
   3341              // check for address discovery
   3342              if ( partNwkAddr == INVALID_NODE_ADDR )
   3343              {
   3344                status = ZDP_NwkAddrReq( partExtAddr, ZDP_ADDR_REQTYPE_SINGLE, 0, 0 );
   3345              }
   3346              else if ( !AddrMgrExtAddrValid( partExtAddr ) )
   3347              {
   3348                status = ZDP_IEEEAddrReq( partNwkAddr, ZDP_ADDR_REQTYPE_SINGLE, 0, 0 );
   3349              }
   3350            }
   3351          
   3352            return status;
   3353          }
   3354          #endif // ( ZG_BUILD_JOINING_TYPE )
   3355          
   3356          #if ( ZG_BUILD_COORDINATOR_TYPE )
   3357          /******************************************************************************
   3358           * @fn          ZDSecMgrAppKeyTypeSet
   3359           *
   3360           * @brief       Set application key type.
   3361           *
   3362           * @param       keyType - [in] application key type (KEY_TYPE_APP_MASTER@2 or
   3363           *                                                   KEY_TYPE_APP_LINK@3
   3364           *
   3365           * @return      ZStatus_t
   3366           */

   \                                 In  segment BANKED_CODE, align 1, keep-with-next
   3367          ZStatus_t ZDSecMgrAppKeyTypeSet( uint8 keyType )
   \                     ZDSecMgrAppKeyTypeSet:
   3368          {
   \   000000   C082         PUSH    DPL
   \   000002   C083         PUSH    DPH
   \   000004                ; Saved register size: 2
   \   000004                ; Auto size: 0
   \   000004   E9           MOV     A,R1
   \   000005   F8           MOV     R0,A
   3369            if ( keyType == KEY_TYPE_APP_LINK )
   \   000006   7403         MOV     A,#0x3
   \   000008   68           XRL     A,R0
   \   000009   90....       MOV     DPTR,#ZDSecMgrAppKeyType
   \   00000C   7004         JNZ     ??ZDSecMgrAppKeyTypeSet_0
   3370            {
   3371              ZDSecMgrAppKeyType = KEY_TYPE_APP_LINK;
   \   00000E   7403         MOV     A,#0x3
   \   000010   8002         SJMP    ??ZDSecMgrAppKeyTypeSet_1
   3372            }
   3373            else
   3374            {
   3375              ZDSecMgrAppKeyType = KEY_TYPE_APP_MASTER;
   \                     ??ZDSecMgrAppKeyTypeSet_0:
   \   000012   7402         MOV     A,#0x2
   \                     ??ZDSecMgrAppKeyTypeSet_1:
   \   000014   F0           MOVX    @DPTR,A
   3376            }
   3377          
   3378            return ZSuccess;
   \   000015   7900         MOV     R1,#0x0
   \   000017   02....       LJMP    ??Subroutine139_0 & 0xFFFF
   3379          }
   3380          #endif
   3381          
   3382          /******************************************************************************
   3383           * ZigBee Device Security Manager - Stub Implementations
   3384           */
   3385          /******************************************************************************
   3386           * @fn          ZDSecMgrMasterKeyGet (stubs APSME_MasterKeyGet)
   3387           *
   3388           * @brief       Get MASTER key for specified EXT address.
   3389           *
   3390           * @param       extAddr - [in] EXT address
   3391           * @param       pKeyNvId - [out] MASTER key NV ID
   3392           *
   3393           * @return      ZStatus_t
   3394           */

   \                                 In  segment BANKED_CODE, align 1, keep-with-next
   3395          ZStatus_t ZDSecMgrMasterKeyGet( uint8* extAddr, uint16* pKeyNvId )
   \                     APSME_MasterKeyGet:
   3396          {
   \   000000   74F7         MOV     A,#-0x9
   \   000002   12....       LCALL   ?BANKED_ENTER_XDATA
   \   000005                ; Saved register size: 9
   \   000005                ; Auto size: 2
   \   000005   74FE         MOV     A,#-0x2
   \   000007   12....       LCALL   ?ALLOC_XSTACK8
   \   00000A   EC           MOV     A,R4
   \   00000B   FE           MOV     R6,A
   \   00000C   ED           MOV     A,R5
   \   00000D   FF           MOV     R7,A
   3397            ZStatus_t status;
   3398            uint16 ami;
   3399          
   3400            // lookup entry for specified EXT address
   3401            status = ZDSecMgrExtAddrLookup( extAddr, &ami );
   \   00000E                ; Setup parameters for call to function ZDSecMgrExtAddrLookup
   \   00000E   12....       LCALL   ?Subroutine86 & 0xFFFF
   \                     ??CrossCallReturnLabel_213:
   \   000011   F5..         MOV     ?V0 + 0,A
   3402          
   3403            if ( status == ZSuccess )
   \   000013   7012         JNZ     ??APSME_MasterKeyGet_0
   3404            {
   3405              ZDSecMgrMasterKeyLookup( ami, pKeyNvId );
   \   000015                ; Setup parameters for call to function ZDSecMgrMasterKeyLookup
   \   000015   EE           MOV     A,R6
   \   000016   FC           MOV     R4,A
   \   000017   EF           MOV     A,R7
   \   000018   FD           MOV     R5,A
   \   000019   85..82       MOV     DPL,?XSP + 0
   \   00001C   85..83       MOV     DPH,?XSP + 1
   \   00001F   12....       LCALL   ??Subroutine150_0 & 0xFFFF
   3406            }
   \                     ??CrossCallReturnLabel_307:
   \   000022   12....       LCALL   ??ZDSecMgrMasterKeyLookup?relay
   \   000025   8008         SJMP    ??APSME_MasterKeyGet_1
   3407            else
   3408            {
   3409              *pKeyNvId = SEC_NO_KEY_NV_ID;
   \                     ??APSME_MasterKeyGet_0:
   \   000027   8E82         MOV     DPL,R6
   \   000029   8F83         MOV     DPH,R7
   \   00002B   E4           CLR     A
   \   00002C   F0           MOVX    @DPTR,A
   \   00002D   A3           INC     DPTR
   \   00002E   F0           MOVX    @DPTR,A
   3410            }
   3411          
   3412            return status;
   \                     ??APSME_MasterKeyGet_1:
   \   00002F   02....       LJMP    ?Subroutine1 & 0xFFFF
   3413          }
   3414          
   3415          /******************************************************************************
   3416           * @fn          ZDSecMgrLinkKeySet (stubs APSME_LinkKeySet)
   3417           *
   3418           * @brief       Set <APSME_LinkKeyData_t> for specified NWK address.
   3419           *
   3420           * @param       extAddr - [in] EXT address
   3421           * @param       data    - [in] APSME_LinkKeyData_t
   3422           *
   3423           * @return      ZStatus_t
   3424           */

   \                                 In  segment BANKED_CODE, align 1, keep-with-next
   3425          ZStatus_t ZDSecMgrLinkKeySet( uint8* extAddr, uint8* key )
   \                     APSME_LinkKeySet:
   3426          {
   \   000000   74F1         MOV     A,#-0xf
   \   000002   12....       LCALL   ?BANKED_ENTER_XDATA
   \   000005                ; Saved register size: 15
   \   000005                ; Auto size: 4
   \   000005   74FC         MOV     A,#-0x4
   \   000007   12....       LCALL   ?ALLOC_XSTACK8
   \   00000A   EC           MOV     A,R4
   \   00000B   FE           MOV     R6,A
   \   00000C   ED           MOV     A,R5
   \   00000D   FF           MOV     R7,A
   3427            ZStatus_t status;
   3428            ZDSecMgrEntry_t* entry;
   3429            APSME_LinkKeyData_t *pApsLinkKey = NULL;
   3430            uint16 Index;
   3431          
   3432            // lookup entry index for specified EXT address
   3433            status = ZDSecMgrEntryLookupExtGetIndex( extAddr, &entry, &Index );
   \   00000E                ; Setup parameters for call to function ZDSecMgrEntryLookupExtGetIndex
   \   00000E   7402         MOV     A,#0x2
   \   000010   12....       LCALL   ?XSTACK_DISP0_8
   \   000013   8582..       MOV     ?V0 + 0,DPL
   \   000016   8583..       MOV     ?V0 + 1,DPH
   \   000019   78..         MOV     R0,#?V0 + 0
   \   00001B   12....       LCALL   ?PUSH_XSTACK_I_TWO
   \   00001E   7402         MOV     A,#0x2
   \   000020   12....       LCALL   ?XSTACK_DISP0_8
   \   000023   AC82         MOV     R4,DPL
   \   000025   AD83         MOV     R5,DPH
   \   000027   12....       LCALL   ??ZDSecMgrEntryLookupExtGetIndex?relay
   \   00002A   7402         MOV     A,#0x2
   \   00002C   12....       LCALL   ?DEALLOC_XSTACK8
   \   00002F   E9           MOV     A,R1
   \   000030   F5..         MOV     ?V0 + 0,A
   3434          
   3435            if ( status == ZSuccess )
   \   000032   6003         JZ      $+5
   \   000034   02....       LJMP    ??APSME_LinkKeySet_0 & 0xFFFF
   3436            {
   3437              // point to NV item
   3438              entry->keyNvId = ZCD_NV_APS_LINK_KEY_DATA_START + Index;
   \   000037   7402         MOV     A,#0x2
   \   000039   12....       LCALL   ?XSTACK_DISP0_8
   \   00003C   E0           MOVX    A,@DPTR
   \   00003D   2401         ADD     A,#0x1
   \   00003F   F8           MOV     R0,A
   \   000040   A3           INC     DPTR
   \   000041   E0           MOVX    A,@DPTR
   \   000042   3402         ADDC    A,#0x2
   \   000044   F9           MOV     R1,A
   \   000045   85..82       MOV     DPL,?XSP + 0
   \   000048   85..83       MOV     DPH,?XSP + 1
   \   00004B   12....       LCALL   ?Subroutine79 & 0xFFFF
   \                     ??CrossCallReturnLabel_123:
   \   00004E   A3           INC     DPTR
   \   00004F   A3           INC     DPTR
   \   000050   12....       LCALL   ??Subroutine130_0 & 0xFFFF
   3439          
   3440              pApsLinkKey = (APSME_LinkKeyData_t *)osal_mem_alloc(sizeof(APSME_LinkKeyData_t));
   \                     ??CrossCallReturnLabel_241:
   \   000053                ; Setup parameters for call to function osal_mem_alloc
   \   000053   12....       LCALL   ?Subroutine80 & 0xFFFF
   3441          
   3442              if (pApsLinkKey != NULL)
   \                     ??CrossCallReturnLabel_126:
   \   000056   7003         JNZ     $+5
   \   000058   02....       LJMP    ??APSME_LinkKeySet_0 & 0xFFFF
   3443              {
   3444                // read the key form NV, keyNvId must be ZCD_NV_APS_LINK_KEY_DATA_START based
   3445                osal_nv_read( entry->keyNvId, 0,
   3446                             sizeof(APSME_LinkKeyData_t), pApsLinkKey );
   \   00005B                ; Setup parameters for call to function osal_nv_read
   \   00005B   78..         MOV     R0,#?V0 + 2
   \   00005D   12....       LCALL   ?PUSH_XSTACK_I_TWO
   \   000060   75..18       MOV     ?V0 + 4,#0x18
   \   000063   75..00       MOV     ?V0 + 5,#0x0
   \   000066   78..         MOV     R0,#?V0 + 4
   \   000068   12....       LCALL   ?PUSH_XSTACK_I_TWO
   \   00006B   7C00         MOV     R4,#0x0
   \   00006D   7D00         MOV     R5,#0x0
   \   00006F   7404         MOV     A,#0x4
   \   000071   12....       LCALL   ?XSTACK_DISP0_8
   \   000074   12....       LCALL   ??Subroutine156_0 & 0xFFFF
   \                     ??CrossCallReturnLabel_338:
   \   000077   12....       LCALL   ?Subroutine57 & 0xFFFF
   \                     ??CrossCallReturnLabel_86:
   \   00007A   12....       LCALL   ?DEALLOC_XSTACK8
   3447          
   3448                // set new values of the key
   3449                osal_memcpy( pApsLinkKey->key, key, SEC_KEY_LEN );
   \   00007D                ; Setup parameters for call to function osal_memcpy
   \   00007D   8E..         MOV     ?V0 + 4,R6
   \   00007F   8F..         MOV     ?V0 + 5,R7
   \   000081   75..00       MOV     ?V0 + 6,#0x0
   \   000084   78..         MOV     R0,#?V0 + 4
   \   000086   12....       LCALL   ?PUSH_XSTACK_I_THREE
   \   000089   7C10         MOV     R4,#0x10
   \   00008B   7D00         MOV     R5,#0x0
   \   00008D   AA..         MOV     R2,?V0 + 2
   \   00008F   AB..         MOV     R3,?V0 + 3
   \   000091   12....       LCALL   ??Subroutine137_0 & 0xFFFF
   \                     ??CrossCallReturnLabel_269:
   \   000094   12....       LCALL   ?DEALLOC_XSTACK8
   3450                pApsLinkKey->rxFrmCntr = 0;
   \   000097   90....       MOV     DPTR,#__Constant_0
   \   00009A   12....       LCALL   ?XLOAD_R2345
   \   00009D   E5..         MOV     A,?V0 + 2
   \   00009F   2414         ADD     A,#0x14
   \   0000A1   F582         MOV     DPL,A
   \   0000A3   E5..         MOV     A,?V0 + 3
   \   0000A5   12....       LCALL   ??Subroutine165_0 & 0xFFFF
   \                     ??CrossCallReturnLabel_388:
   \   0000A8   12....       LCALL   ?XSTORE_R2345
   3451                pApsLinkKey->txFrmCntr = 0;
   \   0000AB   90....       MOV     DPTR,#__Constant_0
   \   0000AE   12....       LCALL   ?XLOAD_R2345
   \   0000B1   E5..         MOV     A,?V0 + 2
   \   0000B3   2410         ADD     A,#0x10
   \   0000B5   F582         MOV     DPL,A
   \   0000B7   E5..         MOV     A,?V0 + 3
   \   0000B9   12....       LCALL   ??Subroutine165_0 & 0xFFFF
   \                     ??CrossCallReturnLabel_389:
   \   0000BC   12....       LCALL   ?XSTORE_R2345
   3452          
   3453                osal_nv_write( entry->keyNvId, 0,
   3454                              sizeof(APSME_LinkKeyData_t), pApsLinkKey );
   \   0000BF                ; Setup parameters for call to function osal_nv_write
   \   0000BF   78..         MOV     R0,#?V0 + 2
   \   0000C1   12....       LCALL   ?PUSH_XSTACK_I_TWO
   \   0000C4   75..18       MOV     ?V0 + 4,#0x18
   \   0000C7   75..00       MOV     ?V0 + 5,#0x0
   \   0000CA   78..         MOV     R0,#?V0 + 4
   \   0000CC   12....       LCALL   ?PUSH_XSTACK_I_TWO
   \   0000CF   7C00         MOV     R4,#0x0
   \   0000D1   7D00         MOV     R5,#0x0
   \   0000D3   7404         MOV     A,#0x4
   \   0000D5   12....       LCALL   ?XSTACK_DISP0_8
   \   0000D8   12....       LCALL   ?Subroutine60 & 0xFFFF
   \                     ??CrossCallReturnLabel_92:
   \   0000DB   12....       LCALL   ??Subroutine121_0 & 0xFFFF
   \                     ??CrossCallReturnLabel_190:
   \   0000DE   12....       LCALL   ?DEALLOC_XSTACK8
   3455          
   3456                // clear copy of key in RAM
   3457                osal_memset(pApsLinkKey, 0x00, sizeof(APSME_LinkKeyData_t));
   \   0000E1                ; Setup parameters for call to function osal_memset
   \   0000E1   12....       LCALL   ?Subroutine42 & 0xFFFF
   3458          
   3459                osal_mem_free(pApsLinkKey);
   \                     ??CrossCallReturnLabel_65:
   \   0000E4   12....       LCALL   ?Subroutine66 & 0xFFFF
   \                     ??CrossCallReturnLabel_339:
   \   0000E7   12....       LCALL   ?Subroutine72 & 0xFFFF
   \                     ??CrossCallReturnLabel_114:
   \   0000EA   12....       LCALL   ?Subroutine88 & 0xFFFF
   \                     ??CrossCallReturnLabel_137:
   \   0000ED   90....       MOV     DPTR,#__Constant_0
   \   0000F0   12....       LCALL   ?XLOAD_R2345
   \   0000F3   E8           MOV     A,R0
   \   0000F4   24F7         ADD     A,#-0x9
   \   0000F6   F582         MOV     DPL,A
   \   0000F8   E9           MOV     A,R1
   \   0000F9   34ED         ADDC    A,#-0x13
   \   0000FB   F583         MOV     DPH,A
   \   0000FD   12....       LCALL   ?XSTORE_R2345
   3460          
   3461                // set initial values for counters in RAM
   3462                ApsLinkKeyFrmCntr[entry->keyNvId - ZCD_NV_APS_LINK_KEY_DATA_START].txFrmCntr = 0;
   3463                ApsLinkKeyFrmCntr[entry->keyNvId - ZCD_NV_APS_LINK_KEY_DATA_START].rxFrmCntr = 0;
   \   000100   90....       MOV     DPTR,#__Constant_0
   \   000103   12....       LCALL   ?XLOAD_R2345
   \   000106   E8           MOV     A,R0
   \   000107   24FB         ADD     A,#-0x5
   \   000109   F582         MOV     DPL,A
   \   00010B   E9           MOV     A,R1
   \   00010C   34ED         ADDC    A,#-0x13
   \   00010E   F583         MOV     DPH,A
   \   000110   12....       LCALL   ?XSTORE_R2345
   3464              }
   3465            }
   3466          
   3467            return status;
   \                     ??APSME_LinkKeySet_0:
   \   000113   A9..         MOV     R1,?V0 + 0
   \   000115   7404         MOV     A,#0x4
   \   000117   02....       LJMP    ??Subroutine119_0 & 0xFFFF
   3468          }

   \                                 In  segment BANKED_CODE, align 1, keep-with-next
   \                     ?Subroutine66:
   \   000000   85..82       MOV     DPL,?XSP + 0
   \   000003   85..83       MOV     DPH,?XSP + 1
   \   000006                REQUIRE ??Subroutine156_0
   \   000006                ; // Fall through to label ??Subroutine156_0

   \                                 In  segment BANKED_CODE, align 1, keep-with-next
   \                     ??Subroutine156_0:
   \   000000   12....       LCALL   ?Subroutine101 & 0xFFFF
   \                     ??CrossCallReturnLabel_343:
   \   000003   22           RET

   \                                 In  segment BANKED_CODE, align 1, keep-with-next
   \                     ?Subroutine60:
   \   000000   12....       LCALL   ?Subroutine101 & 0xFFFF
   \                     ??CrossCallReturnLabel_341:
   \   000003   12....       LCALL   ??Subroutine133_0 & 0xFFFF
   \                     ??CrossCallReturnLabel_257:
   \   000006   22           RET

   \                                 In  segment BANKED_CODE, align 1, keep-with-next
   \                     ?Subroutine42:
   \   000000   7C18         MOV     R4,#0x18
   \   000002   7D00         MOV     R5,#0x0
   \   000004   7900         MOV     R1,#0x0
   \   000006   AA..         MOV     R2,?V0 + 2
   \   000008   AB..         MOV     R3,?V0 + 3
   \   00000A   12....       LCALL   ??osal_memset?relay
   \   00000D                ; Setup parameters for call to function osal_mem_free
   \   00000D                ; Setup parameters for call to function osal_mem_free
   \   00000D                ; Setup parameters for call to function osal_mem_free
   \   00000D   AA..         MOV     R2,?V0 + 2
   \   00000F   AB..         MOV     R3,?V0 + 3
   \   000011   12....       LCALL   ??osal_mem_free?relay
   \   000014   22           RET

   \                                 In  segment BANKED_CODE, align 1, keep-with-next
   \                     ?Subroutine79:
   \   000000   12....       LCALL   ??Subroutine133_0 & 0xFFFF
   \                     ??CrossCallReturnLabel_258:
   \   000003   F583         MOV     DPH,A
   \   000005   8A82         MOV     DPL,R2
   \   000007   22           RET

   \                                 In  segment BANKED_CODE, align 1, keep-with-next
   \                     ?Subroutine88:
   \   000000   75F009       MOV     B,#0x9
   \   000003   A4           MUL     AB
   \   000004   F8           MOV     R0,A
   \   000005   AAF0         MOV     R2,B
   \   000007   75F009       MOV     B,#0x9
   \   00000A   E9           MOV     A,R1
   \   00000B   A4           MUL     AB
   \   00000C   2A           ADD     A,R2
   \   00000D   F9           MOV     R1,A
   \   00000E   74..         MOV     A,#ApsLinkKeyFrmCntr & 0xff
   \   000010   28           ADD     A,R0
   \   000011   F8           MOV     R0,A
   \   000012   74..         MOV     A,#(ApsLinkKeyFrmCntr >> 8) & 0xff
   \   000014   39           ADDC    A,R1
   \   000015   F9           MOV     R1,A
   \   000016   22           RET
   3469          
   3470          /******************************************************************************
   3471           * @fn          ZDSecMgrAuthenticationSet
   3472           *
   3473           * @brief       Mark the specific device as authenticated or not
   3474           *
   3475           * @param       extAddr - [in] EXT address
   3476           * @param       option  - [in] authenticated or not
   3477           *
   3478           * @return      ZStatus_t
   3479           */

   \                                 In  segment BANKED_CODE, align 1, keep-with-next
   3480          ZStatus_t ZDSecMgrAuthenticationSet( uint8* extAddr, ZDSecMgr_Authentication_Option option )
   \                     ZDSecMgrAuthenticationSet:
   3481          {
   \   000000   74F7         MOV     A,#-0x9
   \   000002   12....       LCALL   ?BANKED_ENTER_XDATA
   \   000005                ; Saved register size: 9
   \   000005                ; Auto size: 2
   \   000005   74FE         MOV     A,#-0x2
   \   000007   12....       LCALL   ?ALLOC_XSTACK8
   \   00000A   E9           MOV     A,R1
   \   00000B   FE           MOV     R6,A
   3482            ZStatus_t        status;
   3483            ZDSecMgrEntry_t* entry;
   3484          
   3485          
   3486            // lookup entry index for specified EXT address
   3487            status = ZDSecMgrEntryLookupExt( extAddr, &entry );
   \   00000C                ; Setup parameters for call to function ZDSecMgrEntryLookupExt
   \   00000C   85..82       MOV     DPL,?XSP + 0
   \   00000F   85..83       MOV     DPH,?XSP + 1
   \   000012   AC82         MOV     R4,DPL
   \   000014   AD83         MOV     R5,DPH
   \   000016   12....       LCALL   ??ZDSecMgrEntryLookupExt?relay
   \   000019   E9           MOV     A,R1
   3488          
   3489            if ( status == ZSuccess )
   \   00001A   7007         JNZ     ??ZDSecMgrAuthenticationSet_0
   3490            {
   3491              entry->authenticateOption = option;
   \   00001C   12....       LCALL   ?Subroutine66 & 0xFFFF
   3492            }
   \                     ??CrossCallReturnLabel_340:
   \   00001F   A3           INC     DPTR
   \   000020   A3           INC     DPTR
   \   000021   EE           MOV     A,R6
   \   000022   F0           MOVX    @DPTR,A
   3493          
   3494            return status;
   \                     ??ZDSecMgrAuthenticationSet_0:
   \   000023   02....       LJMP    ??Subroutine145_0 & 0xFFFF
   3495          }
   3496          
   3497          /******************************************************************************
   3498           * @fn          ZDSecMgrAuthenticationCheck
   3499           *
   3500           * @brief       Check if the specific device has been authenticated or not
   3501           *              For non-trust center device, always return TRUE
   3502           *
   3503           * @param       shortAddr - [in] short address
   3504           *
   3505           * @return      TRUE @ authenticated with CBKE
   3506           *              FALSE @ not authenticated
   3507           */
   3508          

   \                                 In  segment BANKED_CODE, align 1, keep-with-next
   3509          uint8 ZDSecMgrAuthenticationCheck( uint16 shortAddr )
   \                     ZDSecMgrAuthenticationCheck:
   3510          {
   \   000000                ; Saved register size: 0
   \   000000                ; Auto size: 0
   3511          #if defined (TC_LINKKEY_JOIN)
   3512          
   3513            ZDSecMgrEntry_t* entry;
   3514            uint8 extAddr[Z_EXTADDR_LEN];
   3515          
   3516            // If the local device is not the trust center, always return TRUE
   3517            if ( NLME_GetShortAddr() != zgTrustCenterAddr )
   3518            {
   3519              return TRUE;
   3520            }
   3521            // Otherwise, check the authentication option
   3522            else if ( AddrMgrExtAddrLookup( shortAddr, extAddr ) )
   3523            {
   3524              // lookup entry index for specified EXT address
   3525              if ( ZDSecMgrEntryLookupExt( extAddr, &entry ) == ZSuccess )
   3526              {
   3527                if ( entry->authenticateOption != ZDSecMgr_Not_Authenticated )
   3528                {
   3529                  return TRUE;
   3530                }
   3531                else
   3532                {
   3533                  return FALSE;
   3534                }
   3535              }
   3536            }
   3537            return FALSE;
   3538          
   3539          #else
   3540            (void)shortAddr;  // Intentionally unreferenced parameter
   3541          
   3542            // For non AMI/SE Profile, perform no check and always return TRUE.
   3543            return TRUE;
   \   000000   7901         MOV     R1,#0x1
   \   000002   02....       LJMP    ?BRET
   3544          
   3545          #endif // TC_LINKKEY_JOIN
   3546          }
   3547          
   3548          /******************************************************************************
   3549           * @fn          ZDSecMgrLinkKeyNVIdGet (stubs APSME_LinkKeyNVIdGet)
   3550           *
   3551           * @brief       Get Key NV ID for specified NWK address.
   3552           *
   3553           * @param       extAddr - [in] EXT address
   3554           * @param       keyNvId - [out] NV ID
   3555           *
   3556           * @return      ZStatus_t
   3557           */

   \                                 In  segment BANKED_CODE, align 1, keep-with-next
   3558          ZStatus_t ZDSecMgrLinkKeyNVIdGet(uint8* extAddr, uint16 *pKeyNvId)
   \                     APSME_LinkKeyNVIdGet:
   3559          {
   \   000000   74F7         MOV     A,#-0x9
   \   000002   12....       LCALL   ?BANKED_ENTER_XDATA
   \   000005                ; Saved register size: 9
   \   000005                ; Auto size: 2
   \   000005   74FE         MOV     A,#-0x2
   \   000007   12....       LCALL   ?ALLOC_XSTACK8
   \   00000A   EC           MOV     A,R4
   \   00000B   FE           MOV     R6,A
   \   00000C   ED           MOV     A,R5
   \   00000D   FF           MOV     R7,A
   3560            ZStatus_t status;
   3561            ZDSecMgrEntry_t* entry;
   3562          
   3563            // lookup entry index for specified NWK address
   3564            status = ZDSecMgrEntryLookupExt( extAddr, &entry );
   \   00000E                ; Setup parameters for call to function ZDSecMgrEntryLookupExt
   \   00000E   85..82       MOV     DPL,?XSP + 0
   \   000011   85..83       MOV     DPH,?XSP + 1
   \   000014   AC82         MOV     R4,DPL
   \   000016   AD83         MOV     R5,DPH
   \   000018   12....       LCALL   ??ZDSecMgrEntryLookupExt?relay
   \   00001B   E9           MOV     A,R1
   3565          
   3566            if ( status == ZSuccess )
   \   00001C   7014         JNZ     ??APSME_LinkKeyNVIdGet_0
   3567            {
   3568              // return the index to the NV table
   3569              *pKeyNvId = entry->keyNvId;
   \   00001E   85..82       MOV     DPL,?XSP + 0
   \   000021   85..83       MOV     DPH,?XSP + 1
   \   000024   12....       LCALL   ?Subroutine60 & 0xFFFF
   3570            }
   \                     ??CrossCallReturnLabel_93:
   \   000027   FB           MOV     R3,A
   \   000028   8E82         MOV     DPL,R6
   \   00002A   8F83         MOV     DPH,R7
   \   00002C   EA           MOV     A,R2
   \   00002D   F0           MOVX    @DPTR,A
   \   00002E   A3           INC     DPTR
   \   00002F   EB           MOV     A,R3
   \   000030   8007         SJMP    ??APSME_LinkKeyNVIdGet_1
   3571            else
   3572            {
   3573              *pKeyNvId = SEC_NO_KEY_NV_ID;
   \                     ??APSME_LinkKeyNVIdGet_0:
   \   000032   8E82         MOV     DPL,R6
   \   000034   8F83         MOV     DPH,R7
   \   000036   E4           CLR     A
   \   000037   F0           MOVX    @DPTR,A
   \   000038   A3           INC     DPTR
   \                     ??APSME_LinkKeyNVIdGet_1:
   \   000039   F0           MOVX    @DPTR,A
   3574            }
   3575          
   3576            return status;
   \   00003A   02....       LJMP    ??Subroutine145_0 & 0xFFFF
   3577          }
   3578          
   3579          /******************************************************************************
   3580           * @fn          ZDSecMgrIsLinkKeyValid (stubs APSME_IsLinkKeyValid)
   3581           *
   3582           * @brief       Verifies if Link Key in NV has been set.
   3583           *
   3584           * @param       extAddr - [in] EXT address
   3585           *
   3586           * @return      TRUE - Link Key has been established
   3587           *              FALSE - Link Key in NV has default value.
   3588           */

   \                                 In  segment BANKED_CODE, align 1, keep-with-next
   3589          uint8 ZDSecMgrIsLinkKeyValid(uint8* extAddr)
   \                     APSME_IsLinkKeyValid:
   3590          {
   \   000000   74F1         MOV     A,#-0xf
   \   000002   12....       LCALL   ?BANKED_ENTER_XDATA
   \   000005                ; Saved register size: 15
   \   000005                ; Auto size: 18
   \   000005   74EE         MOV     A,#-0x12
   \   000007   12....       LCALL   ?ALLOC_XSTACK8
   \   00000A   EA           MOV     A,R2
   \   00000B   FE           MOV     R6,A
   \   00000C   EB           MOV     A,R3
   \   00000D   FF           MOV     R7,A
   3591            APSME_LinkKeyData_t *pKeyData;
   3592            uint16 apsLinkKeyNvId;
   3593            uint8 nullKey[SEC_KEY_LEN];
   3594            uint8 status = FALSE;
   \   00000E   75..00       MOV     ?V0 + 0,#0x0
   3595          
   3596            // initialize default vealue to compare to
   3597            osal_memset(nullKey, 0x00, SEC_KEY_LEN);
   \   000011                ; Setup parameters for call to function osal_memset
   \   000011   7C10         MOV     R4,#0x10
   \   000013   7D00         MOV     R5,#0x0
   \   000015   7900         MOV     R1,#0x0
   \   000017   7402         MOV     A,#0x2
   \   000019   12....       LCALL   ?XSTACK_DISP0_8
   \   00001C   12....       LCALL   ?Subroutine46 & 0xFFFF
   3598          
   3599            // check for APS link NV ID
   3600            APSME_LinkKeyNVIdGet( extAddr, &apsLinkKeyNvId );
   \                     ??CrossCallReturnLabel_70:
   \   00001F   AC82         MOV     R4,DPL
   \   000021   AD83         MOV     R5,DPH
   \   000023   EE           MOV     A,R6
   \   000024   FA           MOV     R2,A
   \   000025   EF           MOV     A,R7
   \   000026   FB           MOV     R3,A
   \   000027   12....       LCALL   ??APSME_LinkKeyNVIdGet?relay
   3601          
   3602            if (apsLinkKeyNvId != SEC_NO_KEY_NV_ID )
   \   00002A   12....       LCALL   ??Subroutine154_0 & 0xFFFF
   \                     ??CrossCallReturnLabel_333:
   \   00002D   605D         JZ      ??CrossCallReturnLabel_66
   3603            {
   3604              pKeyData = (APSME_LinkKeyData_t *)osal_mem_alloc(sizeof(APSME_LinkKeyData_t));
   \   00002F                ; Setup parameters for call to function osal_mem_alloc
   \   00002F   12....       LCALL   ?Subroutine80 & 0xFFFF
   3605          
   3606              if (pKeyData != NULL)
   \                     ??CrossCallReturnLabel_127:
   \   000032   6058         JZ      ??CrossCallReturnLabel_66
   3607              {
   3608                // retrieve key from NV
   3609                if ( osal_nv_read( apsLinkKeyNvId, 0,
   3610                                  sizeof(APSME_LinkKeyData_t), pKeyData) == ZSUCCESS)
   \   000034                ; Setup parameters for call to function osal_nv_read
   \   000034   78..         MOV     R0,#?V0 + 2
   \   000036   12....       LCALL   ?PUSH_XSTACK_I_TWO
   \   000039   75..18       MOV     ?V0 + 4,#0x18
   \   00003C   75..00       MOV     ?V0 + 5,#0x0
   \   00003F   78..         MOV     R0,#?V0 + 4
   \   000041   12....       LCALL   ?PUSH_XSTACK_I_TWO
   \   000044   7C00         MOV     R4,#0x0
   \   000046   7D00         MOV     R5,#0x0
   \   000048   7404         MOV     A,#0x4
   \   00004A   12....       LCALL   ?XSTACK_DISP0_8
   \   00004D   12....       LCALL   ?Subroutine57 & 0xFFFF
   \                     ??CrossCallReturnLabel_87:
   \   000050   12....       LCALL   ?DEALLOC_XSTACK8
   \   000053   E9           MOV     A,R1
   \   000054   7033         JNZ     ??APSME_IsLinkKeyValid_0
   3611                {
   3612                  // if stored key is different than default value, then a key has been established
   3613                  if (!osal_memcmp(pKeyData, nullKey, SEC_KEY_LEN))
   \   000056                ; Setup parameters for call to function osal_memcmp
   \   000056   7402         MOV     A,#0x2
   \   000058   12....       LCALL   ?XSTACK_DISP0_8
   \   00005B   A982         MOV     R1,DPL
   \   00005D   AA83         MOV     R2,DPH
   \   00005F   89..         MOV     ?V0 + 4,R1
   \   000061   8A..         MOV     ?V0 + 5,R2
   \   000063   75..00       MOV     ?V0 + 6,#0x0
   \   000066   78..         MOV     R0,#?V0 + 4
   \   000068   12....       LCALL   ?PUSH_XSTACK_I_THREE
   \   00006B   7C10         MOV     R4,#0x10
   \   00006D   7D00         MOV     R5,#0x0
   \   00006F   85..82       MOV     DPL,?V0 + 2
   \   000072   85..83       MOV     DPH,?V0 + 3
   \   000075   A982         MOV     R1,DPL
   \   000077   AA83         MOV     R2,DPH
   \   000079   7B00         MOV     R3,#0x0
   \   00007B   12....       LCALL   ??osal_memcmp?relay
   \   00007E   7403         MOV     A,#0x3
   \   000080   12....       LCALL   ?DEALLOC_XSTACK8
   \   000083   E9           MOV     A,R1
   \   000084   7003         JNZ     ??APSME_IsLinkKeyValid_0
   3614                  {
   3615                    status = TRUE;
   \   000086   75..01       MOV     ?V0 + 0,#0x1
   3616                  }
   3617                }
   3618          
   3619                // clear copy of key in RAM
   3620                osal_memset(pKeyData, 0x00, sizeof(APSME_LinkKeyData_t));
   \                     ??APSME_IsLinkKeyValid_0:
   \   000089                ; Setup parameters for call to function osal_memset
   \   000089   12....       LCALL   ?Subroutine42 & 0xFFFF
   3621          
   3622                osal_mem_free(pKeyData);
   3623              }
   3624            }
   3625          
   3626            return status;
   \                     ??CrossCallReturnLabel_66:
   \   00008C   A9..         MOV     R1,?V0 + 0
   \   00008E   02....       LJMP    ?Subroutine3 & 0xFFFF
   3627          }

   \                                 In  segment BANKED_CODE, align 1, keep-with-next
   \                     ?Subroutine46:
   \   000000   AA82         MOV     R2,DPL
   \   000002   AB83         MOV     R3,DPH
   \   000004   12....       LCALL   ??osal_memset?relay
   \   000007                ; Setup parameters for call to function APSME_LinkKeyNVIdGet
   \   000007                ; Setup parameters for call to function osal_nv_item_init
   \   000007   85..82       MOV     DPL,?XSP + 0
   \   00000A   85..83       MOV     DPH,?XSP + 1
   \   00000D   22           RET
   3628          
   3629          /******************************************************************************
   3630           * @fn          ZDSecMgrKeyFwdToChild (stubs APSME_KeyFwdToChild)
   3631           *
   3632           * @brief       Verify and process key transportation to child.
   3633           *
   3634           * @param       ind - [in] APSME_TransportKeyInd_t
   3635           *
   3636           * @return      uint8 - success(TRUE:FALSE)
   3637           */

   \                                 In  segment BANKED_CODE, align 1, keep-with-next
   3638          uint8 ZDSecMgrKeyFwdToChild( APSME_TransportKeyInd_t* ind )
   \                     APSME_KeyFwdToChild:
   3639          {
   \   000000   C082         PUSH    DPL
   \   000002   C083         PUSH    DPH
   \   000004                ; Saved register size: 2
   \   000004                ; Auto size: 0
   3640            // verify from Trust Center
   3641            if ( ind->srcAddr == APSME_TRUSTCENTER_NWKADDR )
   \   000004   8A82         MOV     DPL,R2
   \   000006   8B83         MOV     DPH,R3
   \   000008   12....       LCALL   ??Subroutine155_0 & 0xFFFF
   \                     ??CrossCallReturnLabel_331:
   \   00000B   7035         JNZ     ??APSME_KeyFwdToChild_0
   3642            {
   3643              // check for initial NWK key
   3644              if ( ( ind->keyType == KEY_TYPE_NWK      ) ||
   3645                   ( ind->keyType == 6                 ) ||
   3646                   ( ind->keyType == KEY_TYPE_NWK_HIGH )    )
   \   00000D   8A82         MOV     DPL,R2
   \   00000F   8B83         MOV     DPH,R3
   \   000011   A3           INC     DPTR
   \   000012   A3           INC     DPTR
   \   000013   E0           MOVX    A,@DPTR
   \   000014   6401         XRL     A,#0x1
   \   000016   6016         JZ      ??APSME_KeyFwdToChild_1
   \   000018   8A82         MOV     DPL,R2
   \   00001A   8B83         MOV     DPH,R3
   \   00001C   A3           INC     DPTR
   \   00001D   A3           INC     DPTR
   \   00001E   E0           MOVX    A,@DPTR
   \   00001F   6406         XRL     A,#0x6
   \   000021   600B         JZ      ??APSME_KeyFwdToChild_1
   \   000023   8A82         MOV     DPL,R2
   \   000025   8B83         MOV     DPH,R3
   \   000027   A3           INC     DPTR
   \   000028   A3           INC     DPTR
   \   000029   E0           MOVX    A,@DPTR
   \   00002A   6405         XRL     A,#0x5
   \   00002C   7010         JNZ     ??APSME_KeyFwdToChild_2
   3647              {
   3648                // set association status to authenticated
   3649                ZDSecMgrAssocDeviceAuth( AssocGetWithExt( ind->dstExtAddr ) );
   \                     ??APSME_KeyFwdToChild_1:
   \   00002E                ; Setup parameters for call to function ZDSecMgrAssocDeviceAuth
   \   00002E                ; Setup parameters for call to function AssocGetWithExt
   \   00002E   8A82         MOV     DPL,R2
   \   000030   8B83         MOV     DPH,R3
   \   000032   A3           INC     DPTR
   \   000033   A3           INC     DPTR
   \   000034   A3           INC     DPTR
   \   000035   A3           INC     DPTR
   \   000036   A3           INC     DPTR
   \   000037   A3           INC     DPTR
   \   000038   12....       LCALL   ?Subroutine76 & 0xFFFF
   3650              }
   \                     ??CrossCallReturnLabel_120:
   \   00003B   12....       LCALL   ??ZDSecMgrAssocDeviceAuth?relay
   3651          
   3652              return TRUE;
   \                     ??APSME_KeyFwdToChild_2:
   \   00003E   7901         MOV     R1,#0x1
   \   000040   8002         SJMP    ??APSME_KeyFwdToChild_3
   3653            }
   3654          
   3655            return FALSE;
   \                     ??APSME_KeyFwdToChild_0:
   \   000042   7900         MOV     R1,#0x0
   \                     ??APSME_KeyFwdToChild_3:
   \   000044   02....       LJMP    ??Subroutine139_0 & 0xFFFF
   3656          }
   3657          
   3658          /******************************************************************************
   3659           * @fn          ZDSecMgrAddLinkKey
   3660           *
   3661           * @brief       Add the application link key to ZDSecMgr. Also mark the device
   3662           *              as authenticated in the authenticateOption. Note that this function
   3663           *              is hardwared to CBKE right now.
   3664           *
   3665           * @param       shortAddr - short address of the partner device
   3666           * @param       extAddr - extended address of the partner device
   3667           * @param       key - link key
   3668           *
   3669           * @return      ZStatus_t
   3670           */

   \                                 In  segment BANKED_CODE, align 1, keep-with-next
   3671          ZStatus_t ZDSecMgrAddLinkKey( uint16 shortAddr, uint8 *extAddr, uint8 *key)
   \                     ZDSecMgrAddLinkKey:
   3672          {
   \   000000   74F4         MOV     A,#-0xc
   \   000002   12....       LCALL   ?BANKED_ENTER_XDATA
   \   000005                ; Saved register size: 12
   \   000005                ; Auto size: 4
   \   000005   74FC         MOV     A,#-0x4
   \   000007   12....       LCALL   ?ALLOC_XSTACK8
   \   00000A   EC           MOV     A,R4
   \   00000B   FE           MOV     R6,A
   \   00000C   ED           MOV     A,R5
   \   00000D   FF           MOV     R7,A
   \   00000E   7410         MOV     A,#0x10
   \   000010   12....       LCALL   ?XSTACK_DISP0_8
   \   000013   E0           MOVX    A,@DPTR
   \   000014   F5..         MOV     ?V0 + 0,A
   \   000016   A3           INC     DPTR
   \   000017   E0           MOVX    A,@DPTR
   \   000018   F5..         MOV     ?V0 + 1,A
   3673            uint16           ami;
   3674            ZDSecMgrEntry_t* entry;
   3675          
   3676            /* Store the device address in the addr manager */
   3677            if( ZDSecMgrAddrStore( shortAddr, extAddr, &ami ) != ZSuccess )
   \   00001A                ; Setup parameters for call to function ZDSecMgrAddrStore
   \   00001A   7402         MOV     A,#0x2
   \   00001C   12....       LCALL   ?XSTACK_DISP0_8
   \   00001F   8582..       MOV     ?V0 + 2,DPL
   \   000022   8583..       MOV     ?V0 + 3,DPH
   \   000025   78..         MOV     R0,#?V0 + 2
   \   000027   12....       LCALL   ?PUSH_XSTACK_I_TWO
   \   00002A   12....       LCALL   ??ZDSecMgrAddrStore?relay
   \   00002D   7402         MOV     A,#0x2
   \   00002F   12....       LCALL   ?DEALLOC_XSTACK8
   \   000032   E9           MOV     A,R1
   \   000033   6004         JZ      ??ZDSecMgrAddLinkKey_0
   3678            {
   3679              /* Adding to Addr Manager fails */
   3680              return ZFailure;
   \   000035   7901         MOV     R1,#0x1
   \   000037   8042         SJMP    ??ZDSecMgrAddLinkKey_1
   3681            }
   3682          
   3683            /* Lookup entry using specified address index */
   3684            ZDSecMgrEntryLookupAMI( ami, &entry );
   \                     ??ZDSecMgrAddLinkKey_0:
   \   000039                ; Setup parameters for call to function ZDSecMgrEntryLookupAMI
   \   000039   85..82       MOV     DPL,?XSP + 0
   \   00003C   85..83       MOV     DPH,?XSP + 1
   \   00003F   AC82         MOV     R4,DPL
   \   000041   AD83         MOV     R5,DPH
   \   000043   7402         MOV     A,#0x2
   \   000045   12....       LCALL   ?XSTACK_DISP0_8
   \   000048   12....       LCALL   ?Subroutine71 & 0xFFFF
   3685          
   3686            // If no existing entry, create one
   3687            if ( entry == NULL )
   \                     ??CrossCallReturnLabel_111:
   \   00004B   12....       LCALL   ??Subroutine154_0 & 0xFFFF
   \                     ??CrossCallReturnLabel_334:
   \   00004E   701E         JNZ     ??CrossCallReturnLabel_242
   3688            {
   3689              if ( ZDSecMgrEntryNew( &entry ) == ZSuccess )
   \   000050                ; Setup parameters for call to function ZDSecMgrEntryNew
   \   000050   85..82       MOV     DPL,?XSP + 0
   \   000053   85..83       MOV     DPH,?XSP + 1
   \   000056   AA82         MOV     R2,DPL
   \   000058   AB83         MOV     R3,DPH
   \   00005A   12....       LCALL   ??ZDSecMgrEntryNew?relay
   \   00005D   E9           MOV     A,R1
   \   00005E   7020         JNZ     ??ZDSecMgrAddLinkKey_2
   3690              {
   3691                entry->ami = ami;
   \   000060   7402         MOV     A,#0x2
   \   000062   12....       LCALL   ?XSTACK_DISP0_8
   \   000065   12....       LCALL   ?Subroutine68 & 0xFFFF
   3692              }
   \                     ??CrossCallReturnLabel_105:
   \   000068   12....       LCALL   ?Subroutine79 & 0xFFFF
   \                     ??CrossCallReturnLabel_124:
   \   00006B   12....       LCALL   ??Subroutine130_0 & 0xFFFF
   3693              else
   3694              {
   3695                /* Security Manager full */
   3696                return ZBufferFull;
   3697              }
   3698            }
   3699            // Write the link key
   3700            APSME_LinkKeySet( extAddr, key );
   \                     ??CrossCallReturnLabel_242:
   \   00006E                ; Setup parameters for call to function APSME_LinkKeySet
   \   00006E   AC..         MOV     R4,?V0 + 0
   \   000070   AD..         MOV     R5,?V0 + 1
   \   000072   EE           MOV     A,R6
   \   000073   FA           MOV     R2,A
   \   000074   EF           MOV     A,R7
   \   000075   FB           MOV     R3,A
   \   000076   12....       LCALL   ??APSME_LinkKeySet?relay
   3701          
   3702          #if defined (TC_LINKKEY_JOIN)
   3703            // Mark the device as authenticated.
   3704            ZDSecMgrAuthenticationSet( extAddr, ZDSecMgr_Authenticated_CBCK );
   3705          #endif
   3706          
   3707          #if defined NV_RESTORE
   3708            ZDSecMgrWriteNV();  // Write the new established link key to NV.
   3709          #endif
   3710          
   3711            return ZSuccess;
   \   000079   7900         MOV     R1,#0x0
   \                     ??ZDSecMgrAddLinkKey_1:
   \   00007B   7404         MOV     A,#0x4
   \   00007D   02....       LJMP    ?Subroutine6 & 0xFFFF
   \                     ??ZDSecMgrAddLinkKey_2:
   \   000080   7911         MOV     R1,#0x11
   \   000082   80F7         SJMP    ??ZDSecMgrAddLinkKey_1
   3712          }
   3713          
   3714          #if defined ( NV_RESTORE )
   3715          /******************************************************************************
   3716           * @fn          ZDSecMgrInitNV
   3717           *
   3718           * @brief       Initialize the SecMgr entry data in NV with all values set to 0
   3719           *
   3720           * @param       none
   3721           *
   3722           * @return      uint8 - <osal_nv_item_init> return codes
   3723           */
   3724          uint8 ZDSecMgrInitNV(void)
   3725          {
   3726          
   3727            uint8 rtrn = osal_nv_item_init(ZCD_NV_APS_LINK_KEY_TABLE,
   3728                          (sizeof(nvDeviceListHdr_t) + (sizeof(ZDSecMgrEntry_t) * ZDSECMGR_ENTRY_MAX)), NULL);
   3729          
   3730            // If the item does not already exist, set all values to 0
   3731            if (rtrn != SUCCESS)
   3732            {
   3733              nvDeviceListHdr_t hdr;
   3734              hdr.numRecs = 0;
   3735              osal_nv_write(ZCD_NV_APS_LINK_KEY_TABLE, 0, sizeof(nvDeviceListHdr_t), &hdr);
   3736            }
   3737          
   3738            return rtrn;
   3739          }
   3740          #endif // NV_RESTORE
   3741          
   3742          #if defined ( NV_RESTORE )
   3743          /*********************************************************************
   3744           * @fn      ZDSecMgrWriteNV()
   3745           *
   3746           * @brief   Save off the APS link key list to NV
   3747           *
   3748           * @param   none
   3749           *
   3750           * @return  none
   3751           */
   3752          static void ZDSecMgrWriteNV( void )
   3753          {
   3754            uint16 i;
   3755            nvDeviceListHdr_t hdr;
   3756          
   3757            hdr.numRecs = 0;
   3758          
   3759            if (ZDSecMgrEntries != NULL)
   3760            {
   3761              for ( i = 0; i < ZDSECMGR_ENTRY_MAX; i++ )
   3762              {
   3763                // Save off the record
   3764                osal_nv_write( ZCD_NV_APS_LINK_KEY_TABLE,
   3765                              (uint16)((sizeof(nvDeviceListHdr_t)) + (i * sizeof(ZDSecMgrEntry_t))),
   3766                              sizeof(ZDSecMgrEntry_t), &ZDSecMgrEntries[i] );
   3767          
   3768                if ( ZDSecMgrEntries[i].ami != INVALID_NODE_ADDR )
   3769                {
   3770                  hdr.numRecs++;
   3771                }
   3772              }
   3773            }
   3774          
   3775            // Save off the header
   3776            osal_nv_write( ZCD_NV_APS_LINK_KEY_TABLE, 0, sizeof( nvDeviceListHdr_t ), &hdr );
   3777          }
   3778          #endif // NV_RESTORE
   3779          
   3780          #if defined ( NV_RESTORE )
   3781          /******************************************************************************
   3782           * @fn          ZDSecMgrRestoreFromNV
   3783           *
   3784           * @brief       Restore the APS Link Key entry data from NV. It does not restore
   3785           *              the key data itself as they remain in NV until they are used.
   3786           *              Only list data is restored.
   3787           *
   3788           * @param       none
   3789           *
   3790           * @return      None.
   3791           */
   3792          static void ZDSecMgrRestoreFromNV( void )
   3793          {
   3794            nvDeviceListHdr_t hdr;
   3795            APSME_LinkKeyData_t *pApsLinkKey = NULL;
   3796          
   3797            if ((osal_nv_read(ZCD_NV_APS_LINK_KEY_TABLE, 0, sizeof(nvDeviceListHdr_t), &hdr) == ZSUCCESS) &&
   3798                ((hdr.numRecs > 0) && (hdr.numRecs <= ZDSECMGR_ENTRY_MAX)))
   3799            {
   3800              uint8 x;
   3801          
   3802              pApsLinkKey = (APSME_LinkKeyData_t *)osal_mem_alloc(sizeof(APSME_LinkKeyData_t));
   3803          
   3804              for (x = 0; x < ZDSECMGR_ENTRY_MAX; x++)
   3805              {
   3806                if ( osal_nv_read( ZCD_NV_APS_LINK_KEY_TABLE,
   3807                                  (uint16)(sizeof(nvDeviceListHdr_t) + (x * sizeof(ZDSecMgrEntry_t))),
   3808                                  sizeof(ZDSecMgrEntry_t), &ZDSecMgrEntries[x] ) == SUCCESS )
   3809                {
   3810                  // update data only for valid entries
   3811                  if ( ZDSecMgrEntries[x].ami != INVALID_NODE_ADDR )
   3812                  {
   3813                    if (pApsLinkKey != NULL)
   3814                    {
   3815                      // read the key form NV, keyNvId must be ZCD_NV_APS_LINK_KEY_DATA_START based
   3816                      osal_nv_read( ZDSecMgrEntries[x].keyNvId, 0,
   3817                                   sizeof(APSME_LinkKeyData_t), pApsLinkKey );
   3818          
   3819                      // set new values for the counter
   3820                      pApsLinkKey->txFrmCntr += ( MAX_APS_FRAMECOUNTER_CHANGES + 1 );
   3821          
   3822                      // restore values for counters in RAM
   3823                      ApsLinkKeyFrmCntr[ZDSecMgrEntries[x].keyNvId - ZCD_NV_APS_LINK_KEY_DATA_START].txFrmCntr =
   3824                                                      pApsLinkKey->txFrmCntr;
   3825          
   3826                      ApsLinkKeyFrmCntr[ZDSecMgrEntries[x].keyNvId - ZCD_NV_APS_LINK_KEY_DATA_START].rxFrmCntr =
   3827                                                      pApsLinkKey->rxFrmCntr;
   3828          
   3829                      osal_nv_write( ZDSecMgrEntries[x].keyNvId, 0,
   3830                                    sizeof(APSME_LinkKeyData_t), pApsLinkKey );
   3831          
   3832                      // clear copy of key in RAM
   3833                      osal_memset(pApsLinkKey, 0x00, sizeof(APSME_LinkKeyData_t));
   3834                    }
   3835                  }
   3836                }
   3837              }
   3838          
   3839              if (pApsLinkKey != NULL)
   3840              {
   3841                osal_mem_free(pApsLinkKey);
   3842              }
   3843            }
   3844          }
   3845          #endif // NV_RESTORE
   3846          
   3847          /*********************************************************************
   3848           * @fn          ZDSecMgrSetDefaultNV
   3849           *
   3850           * @brief       Write the defaults to NV for Entry table and for APS key data table
   3851           *
   3852           * @param       none
   3853           *
   3854           * @return      none
   3855           */

   \                                 In  segment BANKED_CODE, align 1, keep-with-next
   \                     ?Subroutine40:
   \   000000   7C00         MOV     R4,#0x0
   \   000002   7D00         MOV     R5,#0x0
   \   000004   EE           MOV     A,R6
   \   000005   2401         ADD     A,#0x1
   \   000007   FA           MOV     R2,A
   \   000008   EF           MOV     A,R7
   \   000009                REQUIRE ??Subroutine120_0
   \   000009                ; // Fall through to label ??Subroutine120_0

   \                                 In  segment BANKED_CODE, align 1, keep-with-next
   \                     ??Subroutine120_0:
   \   000000   3402         ADDC    A,#0x2
   \   000002                REQUIRE ??Subroutine121_0
   \   000002                ; // Fall through to label ??Subroutine121_0

   \                                 In  segment BANKED_CODE, align 1, keep-with-next
   3856          void ZDSecMgrSetDefaultNV( void )
   \                     ZDSecMgrSetDefaultNV:
   3857          {
   \   000000   74F4         MOV     A,#-0xc
   \   000002   12....       LCALL   ?BANKED_ENTER_XDATA
   \   000005                ; Saved register size: 12
   \   000005                ; Auto size: 7
   \   000005   74F9         MOV     A,#-0x7
   \   000007   12....       LCALL   ?ALLOC_XSTACK8
   3858            uint16 i;
   3859            nvDeviceListHdr_t hdr;
   3860            ZDSecMgrEntry_t secMgrEntry;
   3861            APSME_LinkKeyData_t *pApsLinkKey = NULL;
   3862          
   3863            // Initialize the header
   3864            hdr.numRecs = 0;
   \   00000A   85..82       MOV     DPL,?XSP + 0
   \   00000D   85..83       MOV     DPH,?XSP + 1
   \   000010   12....       LCALL   ?Subroutine93 & 0xFFFF
   3865          
   3866            // clear the header
   3867            osal_nv_write(ZCD_NV_APS_LINK_KEY_TABLE, 0, sizeof(nvDeviceListHdr_t), &hdr);
   \                     ??CrossCallReturnLabel_252:
   \   000013   8582..       MOV     ?V0 + 0,DPL
   \   000016   8583..       MOV     ?V0 + 1,DPH
   \   000019   78..         MOV     R0,#?V0 + 0
   \   00001B   12....       LCALL   ?PUSH_XSTACK_I_TWO
   \   00001E   75..02       MOV     ?V0 + 0,#0x2
   \   000021   75..00       MOV     ?V0 + 1,#0x0
   \   000024   78..         MOV     R0,#?V0 + 0
   \   000026   12....       LCALL   ?PUSH_XSTACK_I_TWO
   \   000029   7C00         MOV     R4,#0x0
   \   00002B   7D00         MOV     R5,#0x0
   \   00002D   7A4C         MOV     R2,#0x4c
   \   00002F   7B00         MOV     R3,#0x0
   \   000031   12....       LCALL   ??Subroutine122_0 & 0xFFFF
   \                     ??CrossCallReturnLabel_191:
   \   000034   12....       LCALL   ?DEALLOC_XSTACK8
   3868          
   3869            osal_memset( &secMgrEntry, 0x00, sizeof(ZDSecMgrEntry_t) );
   \   000037                ; Setup parameters for call to function osal_memset
   \   000037   7C05         MOV     R4,#0x5
   \   000039   7D00         MOV     R5,#0x0
   \   00003B   7900         MOV     R1,#0x0
   \   00003D   7402         MOV     A,#0x2
   \   00003F   12....       LCALL   ?XSTACK_DISP0_8
   \   000042   12....       LCALL   ?Subroutine45 & 0xFFFF
   3870          
   3871            for ( i = 0; i < ZDSECMGR_ENTRY_MAX; i++ )
   3872            {
   3873              // Clear the record
   3874              osal_nv_write( ZCD_NV_APS_LINK_KEY_TABLE,
   3875                          (uint16)((sizeof(nvDeviceListHdr_t)) + (i * sizeof(ZDSecMgrEntry_t))),
   3876                                  sizeof(ZDSecMgrEntry_t), &secMgrEntry );
   \                     ??CrossCallReturnLabel_181:
   \   000045                ; Setup parameters for call to function osal_nv_write
   \   000045   7402         MOV     A,#0x2
   \   000047   12....       LCALL   ?XSTACK_DISP0_8
   \   00004A   8582..       MOV     ?V0 + 0,DPL
   \   00004D   8583..       MOV     ?V0 + 1,DPH
   \   000050   78..         MOV     R0,#?V0 + 0
   \   000052   12....       LCALL   ?PUSH_XSTACK_I_TWO
   \   000055   75..05       MOV     ?V0 + 0,#0x5
   \   000058   75..00       MOV     ?V0 + 1,#0x0
   \   00005B   78..         MOV     R0,#?V0 + 0
   \   00005D   12....       LCALL   ?PUSH_XSTACK_I_TWO
   \   000060   EE           MOV     A,R6
   \   000061   F8           MOV     R0,A
   \   000062   EF           MOV     A,R7
   \   000063   F9           MOV     R1,A
   \   000064   E8           MOV     A,R0
   \   000065   75F005       MOV     B,#0x5
   \   000068   A4           MUL     AB
   \   000069   F8           MOV     R0,A
   \   00006A   AAF0         MOV     R2,B
   \   00006C   75F005       MOV     B,#0x5
   \   00006F   E9           MOV     A,R1
   \   000070   A4           MUL     AB
   \   000071   2A           ADD     A,R2
   \   000072   F9           MOV     R1,A
   \   000073   E8           MOV     A,R0
   \   000074   2402         ADD     A,#0x2
   \   000076   FC           MOV     R4,A
   \   000077   E9           MOV     A,R1
   \   000078   3400         ADDC    A,#0x0
   \   00007A   FD           MOV     R5,A
   \   00007B   7A4C         MOV     R2,#0x4c
   \   00007D   7B00         MOV     R3,#0x0
   \   00007F   12....       LCALL   ??Subroutine122_0 & 0xFFFF
   3877            }
   \                     ??CrossCallReturnLabel_192:
   \   000082   12....       LCALL   ?DEALLOC_XSTACK8
   \   000085   12....       LCALL   ?Subroutine39 & 0xFFFF
   \                     ??CrossCallReturnLabel_60:
   \   000088   40BB         JC      ??CrossCallReturnLabel_181
   3878          
   3879            pApsLinkKey = (APSME_LinkKeyData_t *)osal_mem_alloc(sizeof(APSME_LinkKeyData_t));
   \   00008A                ; Setup parameters for call to function osal_mem_alloc
   \   00008A   7A18         MOV     R2,#0x18
   \   00008C   12....       LCALL   ?Subroutine85 & 0xFFFF
   3880          
   3881            if (pApsLinkKey != NULL)
   \                     ??CrossCallReturnLabel_133:
   \   00008F   602B         JZ      ??ZDSecMgrSetDefaultNV_0
   3882            {
   3883              osal_memset( pApsLinkKey, 0x00, sizeof(APSME_LinkKeyData_t) );
   \   000091                ; Setup parameters for call to function osal_memset
   \   000091   7C18         MOV     R4,#0x18
   \   000093   7D00         MOV     R5,#0x0
   \   000095   7900         MOV     R1,#0x0
   \   000097   12....       LCALL   ??Subroutine118_0 & 0xFFFF
   3884          
   3885              for ( i = 0; i < ZDSECMGR_ENTRY_MAX; i++ )
   3886              {
   3887                // Clear the record
   3888                osal_nv_write( (ZCD_NV_APS_LINK_KEY_DATA_START + i), 0,
   3889                              sizeof(APSME_LinkKeyData_t), pApsLinkKey);
   \                     ??CrossCallReturnLabel_182:
   \   00009A                ; Setup parameters for call to function osal_nv_write
   \   00009A   78..         MOV     R0,#?V0 + 0
   \   00009C   12....       LCALL   ?PUSH_XSTACK_I_TWO
   \   00009F   75..18       MOV     ?V0 + 2,#0x18
   \   0000A2   75..00       MOV     ?V0 + 3,#0x0
   \   0000A5   78..         MOV     R0,#?V0 + 2
   \   0000A7   12....       LCALL   ?PUSH_XSTACK_I_TWO
   \   0000AA   12....       LCALL   ?Subroutine40 & 0xFFFF
   3890              }
   \                     ??CrossCallReturnLabel_183:
   \   0000AD   12....       LCALL   ?DEALLOC_XSTACK8
   \   0000B0   12....       LCALL   ?Subroutine39 & 0xFFFF
   \                     ??CrossCallReturnLabel_61:
   \   0000B3   40E5         JC      ??CrossCallReturnLabel_182
   3891          
   3892              osal_mem_free(pApsLinkKey);
   \   0000B5                ; Setup parameters for call to function osal_mem_free
   \   0000B5   AA..         MOV     R2,?V0 + 0
   \   0000B7   AB..         MOV     R3,?V0 + 1
   \   0000B9   12....       LCALL   ??osal_mem_free?relay
   3893            }
   3894          }
   \                     ??ZDSecMgrSetDefaultNV_0:
   \   0000BC   7407         MOV     A,#0x7
   \   0000BE                REQUIRE ?Subroutine6
   \   0000BE                ; // Fall through to label ?Subroutine6

   \                                 In  segment BANKED_CODE, align 1, keep-with-next
   \                     ?Subroutine85:
   \   000000   7B00         MOV     R3,#0x0
   \   000002   12....       LCALL   ??osal_mem_alloc?relay
   \   000005   8A..         MOV     ?V0 + 0,R2
   \   000007   8B..         MOV     ?V0 + 1,R3
   \   000009   EA           MOV     A,R2
   \   00000A   45..         ORL     A,?V0 + 1
   \   00000C   22           RET
   3895          
   3896          #if defined ( NV_RESTORE )
   3897          /*********************************************************************
   3898           * @fn      ZDSecMgrUpdateNV()
   3899           *
   3900           * @brief   Updates one entry of the APS link key table to NV
   3901           *
   3902           * @param   index - to the entry in security manager table
   3903           *
   3904           * @return  none
   3905           */
   3906          static void ZDSecMgrUpdateNV( uint16 index )
   3907          {
   3908            nvDeviceListHdr_t hdr;
   3909          
   3910            if (ZDSecMgrEntries != NULL)
   3911            {
   3912              // Save off the record
   3913              osal_nv_write( ZCD_NV_APS_LINK_KEY_TABLE,
   3914                             (uint16)((sizeof(nvDeviceListHdr_t)) + (index * sizeof(ZDSecMgrEntry_t))),
   3915                             sizeof(ZDSecMgrEntry_t), &ZDSecMgrEntries[index] );
   3916            }
   3917          
   3918            if (osal_nv_read(ZCD_NV_APS_LINK_KEY_TABLE, 0, sizeof(nvDeviceListHdr_t), &hdr) == ZSUCCESS)
   3919            {
   3920              if ( ZDSecMgrEntries[index].ami == INVALID_NODE_ADDR )
   3921              {
   3922                if (hdr.numRecs > 0)
   3923                {
   3924                  hdr.numRecs--;
   3925                }
   3926              }
   3927              else
   3928              {
   3929                hdr.numRecs++;
   3930              }
   3931          
   3932              // Save off the header
   3933              osal_nv_write( ZCD_NV_APS_LINK_KEY_TABLE, 0, sizeof( nvDeviceListHdr_t ), &hdr );
   3934            }
   3935          }
   3936          #endif // NV_RESTORE
   3937          
   3938          /******************************************************************************
   3939           * @fn          ZDSecMgrAPSRemove
   3940           *
   3941           * @brief       Remove device from network.
   3942           *
   3943           * @param       nwkAddr - device's NWK address
   3944           * @param       extAddr - device's Extended address
   3945           * @param       parentAddr - parent's NWK address
   3946           *
   3947           * @return      ZStatus_t
   3948           */

   \                                 In  segment BANKED_CODE, align 1, keep-with-next
   3949          ZStatus_t ZDSecMgrAPSRemove( uint16 nwkAddr, uint8 *extAddr, uint16 parentAddr )
   \                     ZDSecMgrAPSRemove:
   3950          {
   \   000000   C082         PUSH    DPL
   \   000002   C083         PUSH    DPH
   \   000004                ; Saved register size: 2
   \   000004                ; Auto size: 10
   \   000004   74F6         MOV     A,#-0xa
   \   000006   12....       LCALL   ?ALLOC_XSTACK8
   \   000009   740A         MOV     A,#0xa
   \   00000B   12....       LCALL   ?XSTACK_DISP0_8
   \   00000E   12....       LCALL   ??Subroutine160_0 & 0xFFFF
   3951            ZDSecMgrDevice_t device;
   3952          
   3953            if ( ( nwkAddr == INVALID_NODE_ADDR ) ||
   3954                 ( extAddr == NULL )              ||
   3955                 ( parentAddr == INVALID_NODE_ADDR ) )
   \                     ??CrossCallReturnLabel_360:
   \   000011   74FE         MOV     A,#-0x2
   \   000013   6A           XRL     A,R2
   \   000014   7003         JNZ     ??ZDSecMgrAPSRemove_0
   \   000016   74FF         MOV     A,#-0x1
   \   000018   6B           XRL     A,R3
   \                     ??ZDSecMgrAPSRemove_0:
   \   000019   600E         JZ      ??ZDSecMgrAPSRemove_1
   \   00001B   EC           MOV     A,R4
   \   00001C   4D           ORL     A,R5
   \   00001D   600A         JZ      ??ZDSecMgrAPSRemove_1
   \   00001F   74FE         MOV     A,#-0x2
   \   000021   68           XRL     A,R0
   \   000022   7003         JNZ     ??ZDSecMgrAPSRemove_2
   \   000024   74FF         MOV     A,#-0x1
   \   000026   69           XRL     A,R1
   \                     ??ZDSecMgrAPSRemove_2:
   \   000027   7004         JNZ     ??ZDSecMgrAPSRemove_3
   3956            {
   3957              return ( ZFailure );
   \                     ??ZDSecMgrAPSRemove_1:
   \   000029   7901         MOV     R1,#0x1
   \   00002B   8015         SJMP    ??ZDSecMgrAPSRemove_4
   3958            }
   3959          
   3960            device.nwkAddr = nwkAddr;
   \                     ??ZDSecMgrAPSRemove_3:
   \   00002D   12....       LCALL   ?Subroutine31 & 0xFFFF
   3961            device.extAddr = extAddr;
   \                     ??CrossCallReturnLabel_39:
   \   000030   12....       LCALL   ?XSTACK_DISP0_8
   \   000033   EC           MOV     A,R4
   \   000034   F0           MOVX    @DPTR,A
   \   000035   A3           INC     DPTR
   \   000036   ED           MOV     A,R5
   \   000037   F0           MOVX    @DPTR,A
   3962            device.parentAddr = parentAddr;
   \   000038   7404         MOV     A,#0x4
   \   00003A   12....       LCALL   ?XSTACK_DISP0_8
   \   00003D   12....       LCALL   ?Subroutine15 & 0xFFFF
   3963          
   3964            // remove device
   3965            ZDSecMgrDeviceRemove( &device );
   3966          
   3967            return ( ZSuccess );
   \                     ??CrossCallReturnLabel_4:
   \   000040   7900         MOV     R1,#0x0
   \                     ??ZDSecMgrAPSRemove_4:
   \   000042   02....       LJMP    ?Subroutine9 & 0xFFFF
   3968          }
   3969          
   3970          /******************************************************************************
   3971           * @fn          APSME_TCLinkKeyInit
   3972           *
   3973           * @brief       Initialize the NV table for preconfigured TC link key
   3974           *
   3975           *              When zgUseDefaultTCL is set to TRUE, the default preconfig
   3976           *              Trust Center Link Key is written to NV. A single tclk is used
   3977           *              by all devices joining the network.
   3978           *
   3979           * @param       setDefault - TRUE to set default values
   3980           *
   3981           * @return      none
   3982           */

   \                                 In  segment BANKED_CODE, align 1, keep-with-next
   3983          void APSME_TCLinkKeyInit(uint8 setDefault)
   \                     APSME_TCLinkKeyInit:
   3984          {
   \   000000   74F5         MOV     A,#-0xb
   \   000002   12....       LCALL   ?BANKED_ENTER_XDATA
   \   000005                ; Saved register size: 11
   \   000005                ; Auto size: 32
   \   000005   74E0         MOV     A,#-0x20
   \   000007   12....       LCALL   ?ALLOC_XSTACK8
   3985            uint8             i;
   3986            APSME_TCLinkKey_t tcLinkKey;
   3987            uint8             rtrn;
   3988          
   3989            // Initialize all NV items for preconfigured TCLK
   3990            for( i = 0; i < ZDSECMGR_TC_DEVICE_MAX; i++ )
   3991            {
   3992              // Making sure data is cleared for every key all the time
   3993              osal_memset( &tcLinkKey, 0x00, sizeof(APSME_TCLinkKey_t) );
   \   00000A                ; Setup parameters for call to function osal_memset
   \   00000A   7C20         MOV     R4,#0x20
   \   00000C   7D00         MOV     R5,#0x0
   \   00000E   7900         MOV     R1,#0x0
   \   000010   85..82       MOV     DPL,?XSP + 0
   \   000013   85..83       MOV     DPH,?XSP + 1
   \   000016   AA82         MOV     R2,DPL
   \   000018   AB83         MOV     R3,DPH
   \   00001A   12....       LCALL   ??osal_memset?relay
   3994          
   3995              // Initialize first element of the table with the default TCLK
   3996              if((i == 0) && ( zgUseDefaultTCLK == TRUE ))
   \   00001D   90....       MOV     DPTR,#zgUseDefaultTCLK
   \   000020   E0           MOVX    A,@DPTR
   \   000021   6401         XRL     A,#0x1
   \   000023   7030         JNZ     ??APSME_TCLinkKeyInit_0
   3997              {
   3998                osal_memset( tcLinkKey.extAddr, 0xFF, Z_EXTADDR_LEN );
   \   000025                ; Setup parameters for call to function osal_memset
   \   000025   7C08         MOV     R4,#0x8
   \   000027   7D00         MOV     R5,#0x0
   \   000029   79FF         MOV     R1,#-0x1
   \   00002B   85..82       MOV     DPL,?XSP + 0
   \   00002E   85..83       MOV     DPH,?XSP + 1
   \   000031   AA82         MOV     R2,DPL
   \   000033   AB83         MOV     R3,DPH
   \   000035   12....       LCALL   ??osal_memset?relay
   3999                osal_memcpy( tcLinkKey.key, defaultTCLinkKey, SEC_KEY_LEN);
   \   000038                ; Setup parameters for call to function osal_memcpy
   \   000038   75....       MOV     ?V0 + 0,#defaultTCLinkKey & 0xff
   \   00003B   75....       MOV     ?V0 + 1,#(defaultTCLinkKey >> 8) & 0xff
   \   00003E   75..80       MOV     ?V0 + 2,#-0x80
   \   000041   78..         MOV     R0,#?V0 + 0
   \   000043   12....       LCALL   ?PUSH_XSTACK_I_THREE
   \   000046   7C10         MOV     R4,#0x10
   \   000048   7D00         MOV     R5,#0x0
   \   00004A   740B         MOV     A,#0xb
   \   00004C   12....       LCALL   ?XSTACK_DISP0_8
   \   00004F   12....       LCALL   ?Subroutine84 & 0xFFFF
   4000              }
   \                     ??CrossCallReturnLabel_268:
   \   000052   12....       LCALL   ?DEALLOC_XSTACK8
   4001          
   4002              // If the item doesn't exist in NV memory, create and initialize
   4003              // it with the default value passed in, either defaultTCLK or 0
   4004              rtrn = osal_nv_item_init( (ZCD_NV_TCLK_TABLE_START + i),
   4005                                         sizeof(APSME_TCLinkKey_t), &tcLinkKey);
   4006          
   4007              if (rtrn == SUCCESS)
   \                     ??APSME_TCLinkKeyInit_0:
   \   000055                ; Setup parameters for call to function osal_nv_item_init
   \   000055   85..82       MOV     DPL,?XSP + 0
   \   000058   85..83       MOV     DPH,?XSP + 1
   \   00005B   8582..       MOV     ?V0 + 0,DPL
   \   00005E   8583..       MOV     ?V0 + 1,DPH
   \   000061   78..         MOV     R0,#?V0 + 0
   \   000063   12....       LCALL   ?PUSH_XSTACK_I_TWO
   \   000066   7C20         MOV     R4,#0x20
   \   000068   7D00         MOV     R5,#0x0
   \   00006A   7A01         MOV     R2,#0x1
   \   00006C   7B01         MOV     R3,#0x1
   \   00006E   12....       LCALL   ??Subroutine162_0 & 0xFFFF
   \                     ??CrossCallReturnLabel_384:
   \   000071   12....       LCALL   ?DEALLOC_XSTACK8
   \   000074   E9           MOV     A,R1
   \   000075   7078         JNZ     ??APSME_TCLinkKeyInit_1
   4008              {
   4009                // set the Frame counters to 0 to existing keys in NV
   4010                osal_nv_read( ( ZCD_NV_TCLK_TABLE_START + i), 0,
   4011                               sizeof(APSME_TCLinkKey_t), &tcLinkKey );
   \   000077                ; Setup parameters for call to function osal_nv_read
   \   000077   78..         MOV     R0,#?V0 + 0
   \   000079   12....       LCALL   ?PUSH_XSTACK_I_TWO
   \   00007C   75..20       MOV     ?V0 + 0,#0x20
   \   00007F   75..00       MOV     ?V0 + 1,#0x0
   \   000082   78..         MOV     R0,#?V0 + 0
   \   000084   12....       LCALL   ?PUSH_XSTACK_I_TWO
   \   000087   12....       LCALL   ?Subroutine82 & 0xFFFF
   \                     ??CrossCallReturnLabel_374:
   \   00008A   12....       LCALL   ?DEALLOC_XSTACK8
   4012          
   4013          #if defined ( NV_RESTORE )
   4014                if (setDefault == TRUE)
   4015                {
   4016                  // clear the value stored in NV
   4017                  tcLinkKey.txFrmCntr = 0;
   4018                }
   4019                else
   4020                {
   4021                  // increase the value stored in NV
   4022                  tcLinkKey.txFrmCntr += ( MAX_TCLK_FRAMECOUNTER_CHANGES + 1 );
   4023                }
   4024          #else
   4025                // Clear the counters if NV_RESTORE is not enabled and this NV item
   4026                // already existed in the NV memory
   4027                tcLinkKey.txFrmCntr = 0;
   \   00008D   90....       MOV     DPTR,#__Constant_0
   \   000090   12....       LCALL   ?XLOAD_R2345
   \   000093   7418         MOV     A,#0x18
   \   000095   12....       LCALL   ?XSTACK_DISP0_8
   \   000098   12....       LCALL   ?XSTORE_R2345
   4028                tcLinkKey.rxFrmCntr = 0;
   \   00009B   90....       MOV     DPTR,#__Constant_0
   \   00009E   12....       LCALL   ?XLOAD_R2345
   \   0000A1   741C         MOV     A,#0x1c
   \   0000A3   12....       LCALL   ?XSTACK_DISP0_8
   \   0000A6   12....       LCALL   ?XSTORE_R2345
   4029          #endif  // NV_RESTORE
   4030          
   4031                osal_nv_write( ( ZCD_NV_TCLK_TABLE_START + i), 0,
   4032                                sizeof(APSME_TCLinkKey_t), &tcLinkKey );
   \   0000A9                ; Setup parameters for call to function osal_nv_write
   \   0000A9   85..82       MOV     DPL,?XSP + 0
   \   0000AC   85..83       MOV     DPH,?XSP + 1
   \   0000AF   8582..       MOV     ?V0 + 0,DPL
   \   0000B2   8583..       MOV     ?V0 + 1,DPH
   \   0000B5   78..         MOV     R0,#?V0 + 0
   \   0000B7   12....       LCALL   ?PUSH_XSTACK_I_TWO
   \   0000BA   75..20       MOV     ?V0 + 0,#0x20
   \   0000BD   75..00       MOV     ?V0 + 1,#0x0
   \   0000C0   78..         MOV     R0,#?V0 + 0
   \   0000C2   12....       LCALL   ?PUSH_XSTACK_I_TWO
   \   0000C5   7C00         MOV     R4,#0x0
   \   0000C7   7D00         MOV     R5,#0x0
   \   0000C9   7A01         MOV     R2,#0x1
   \   0000CB   7B01         MOV     R3,#0x1
   \   0000CD   12....       LCALL   ??Subroutine122_0 & 0xFFFF
   \                     ??CrossCallReturnLabel_193:
   \   0000D0   12....       LCALL   ?DEALLOC_XSTACK8
   4033          
   4034                // set initial values for counters in RAM
   4035                TCLinkKeyFrmCntr[i].txFrmCntr = tcLinkKey.txFrmCntr;
   \   0000D3   7418         MOV     A,#0x18
   \   0000D5   12....       LCALL   ?XSTACK_DISP0_8
   \   0000D8   12....       LCALL   ?XLOAD_R2345
   \   0000DB   90....       MOV     DPTR,#TCLinkKeyFrmCntr
   \   0000DE   12....       LCALL   ?XSTORE_R2345
   4036                TCLinkKeyFrmCntr[i].rxFrmCntr = tcLinkKey.rxFrmCntr;
   \   0000E1   741C         MOV     A,#0x1c
   \   0000E3   12....       LCALL   ?XSTACK_DISP0_8
   \   0000E6   12....       LCALL   ?XLOAD_R2345
   \   0000E9   90....       MOV     DPTR,#TCLinkKeyFrmCntr + 4
   \   0000EC   12....       LCALL   ?XSTORE_R2345
   4037              }
   4038            }
   4039          
   4040            // clear copy of key in RAM
   4041            osal_memset( &tcLinkKey, 0x00, sizeof(APSME_TCLinkKey_t) );
   \                     ??APSME_TCLinkKeyInit_1:
   \   0000EF                ; Setup parameters for call to function osal_memset
   \   0000EF   7C20         MOV     R4,#0x20
   \   0000F1   7D00         MOV     R5,#0x0
   \   0000F3   7900         MOV     R1,#0x0
   \   0000F5   85..82       MOV     DPL,?XSP + 0
   \   0000F8   85..83       MOV     DPH,?XSP + 1
   \   0000FB   AA82         MOV     R2,DPL
   \   0000FD   AB83         MOV     R3,DPH
   \   0000FF   12....       LCALL   ??osal_memset?relay
   4042          
   4043          }
   \   000102   7420         MOV     A,#0x20
   \   000104   02....       LJMP    ?Subroutine5 & 0xFFFF

   \                                 In  segment BANKED_CODE, align 1, keep-with-next
   \                     ?Subroutine82:
   \   000000   7C00         MOV     R4,#0x0
   \   000002   7D00         MOV     R5,#0x0
   \   000004   7A01         MOV     R2,#0x1
   \   000006   7B01         MOV     R3,#0x1
   \   000008                REQUIRE ??Subroutine161_0
   \   000008                ; // Fall through to label ??Subroutine161_0

   \                                 In  segment BANKED_CODE, align 1, keep-with-next
   \                     ??Subroutine161_0:
   \   000000   12....       LCALL   ??osal_nv_read?relay
   \   000003   7404         MOV     A,#0x4
   \   000005   22           RET
   4044          
   4045          /******************************************************************************
   4046           * @fn          APSME_TCLinkKeySync
   4047           *
   4048           * @brief       Sync Trust Center LINK key data.
   4049           *
   4050           * @param       srcAddr - [in] srcAddr
   4051           * @param       si      - [in, out] SSP_Info_t
   4052           *
   4053           * @return      ZStatus_t
   4054           */

   \                                 In  segment BANKED_CODE, align 1, keep-with-next
   4055          ZStatus_t APSME_TCLinkKeySync( uint16 srcAddr, SSP_Info_t* si )
   \                     APSME_TCLinkKeySync:
   4056          {
   \   000000   74F4         MOV     A,#-0xc
   \   000002   12....       LCALL   ?BANKED_ENTER_XDATA
   \   000005                ; Saved register size: 12
   \   000005                ; Auto size: 32
   \   000005   74E0         MOV     A,#-0x20
   \   000007   12....       LCALL   ?ALLOC_XSTACK8
   \   00000A   8A..         MOV     ?V0 + 0,R2
   \   00000C   8B..         MOV     ?V0 + 1,R3
   \   00000E   EC           MOV     A,R4
   \   00000F   FE           MOV     R6,A
   \   000010   ED           MOV     A,R5
   \   000011   FF           MOV     R7,A
   4057            uint8 i;
   4058            ZStatus_t status = ZSecNoKey;
   \   000012   75..A1       MOV     ?V0 + 2,#-0x5f
   4059            APSME_TCLinkKey_t tcLinkKey;
   4060            uint32 *tclkRxFrmCntr;
   4061          
   4062            // Look up the IEEE address of the trust center if it's available
   4063            if ( AddrMgrExtAddrValid( si->extAddr ) == FALSE )
   \   000015                ; Setup parameters for call to function AddrMgrExtAddrValid
   \   000015   12....       LCALL   ?Subroutine114 & 0xFFFF
   \                     ??CrossCallReturnLabel_174:
   \   000018   12....       LCALL   ??AddrMgrExtAddrValid?relay
   \   00001B   E9           MOV     A,R1
   \   00001C   700F         JNZ     ??APSME_TCLinkKeySync_0
   4064            {
   4065              APSME_LookupExtAddr( srcAddr, si->extAddr );
   \   00001E                ; Setup parameters for call to function APSME_LookupExtAddr
   \   00001E   EE           MOV     A,R6
   \   00001F   2406         ADD     A,#0x6
   \   000021   FC           MOV     R4,A
   \   000022   EF           MOV     A,R7
   \   000023   3400         ADDC    A,#0x0
   \   000025   FD           MOV     R5,A
   \   000026   AA..         MOV     R2,?V0 + 0
   \   000028   AB..         MOV     R3,?V0 + 1
   \   00002A   12....       LCALL   ??APSME_LookupExtAddr?relay
   4066            }
   4067          
   4068            // Look up the TC link key associated with the device
   4069            // or the default TC link key (extAddr is all FFs), whichever is found
   4070            for( i = 0; i < ZDSECMGR_TC_DEVICE_MAX; i++ )
   4071            {
   4072              // Read entry i of the TC link key table from NV
   4073              osal_nv_read( (ZCD_NV_TCLK_TABLE_START + i), 0,
   4074                           sizeof(APSME_TCLinkKey_t), &tcLinkKey );
   \                     ??APSME_TCLinkKeySync_0:
   \   00002D                ; Setup parameters for call to function osal_nv_read
   \   00002D   85..82       MOV     DPL,?XSP + 0
   \   000030   85..83       MOV     DPH,?XSP + 1
   \   000033   8582..       MOV     ?V0 + 0,DPL
   \   000036   8583..       MOV     ?V0 + 1,DPH
   \   000039   78..         MOV     R0,#?V0 + 0
   \   00003B   12....       LCALL   ?PUSH_XSTACK_I_TWO
   \   00003E   75..20       MOV     ?V0 + 0,#0x20
   \   000041   75..00       MOV     ?V0 + 1,#0x0
   \   000044   78..         MOV     R0,#?V0 + 0
   \   000046   12....       LCALL   ?PUSH_XSTACK_I_TWO
   \   000049   12....       LCALL   ?Subroutine82 & 0xFFFF
   \                     ??CrossCallReturnLabel_375:
   \   00004C   12....       LCALL   ?DEALLOC_XSTACK8
   4075          
   4076              if( AddrMgrExtAddrEqual(si->extAddr, tcLinkKey.extAddr) ||
   4077                  APSME_IsDefaultTCLK(tcLinkKey.extAddr))
   \   00004F                ; Setup parameters for call to function AddrMgrExtAddrEqual
   \   00004F   85..82       MOV     DPL,?XSP + 0
   \   000052   85..83       MOV     DPH,?XSP + 1
   \   000055   12....       LCALL   ?Subroutine90 & 0xFFFF
   \                     ??CrossCallReturnLabel_139:
   \   000058   7010         JNZ     ??APSME_TCLinkKeySync_1
   \   00005A                ; Setup parameters for call to function APSME_IsDefaultTCLK
   \   00005A   85..82       MOV     DPL,?XSP + 0
   \   00005D   85..83       MOV     DPH,?XSP + 1
   \   000060   AA82         MOV     R2,DPL
   \   000062   AB83         MOV     R3,DPH
   \   000064   12....       LCALL   ??APSME_IsDefaultTCLK?relay
   \   000067   E9           MOV     A,R1
   \   000068   603D         JZ      ??APSME_TCLinkKeySync_2
   4078              {
   4079                tclkRxFrmCntr = &TCLinkKeyFrmCntr[i].rxFrmCntr;
   4080          
   4081                // verify that the incoming frame counter is valid
   4082                if ( si->frmCntr >= *tclkRxFrmCntr )
   \                     ??APSME_TCLinkKeySync_1:
   \   00006A   12....       LCALL   ?Subroutine49 & 0xFFFF
   \                     ??CrossCallReturnLabel_398:
   \   00006D   C082         PUSH    DPL
   \   00006F   C083         PUSH    DPH
   \   000071   90....       MOV     DPTR,#TCLinkKeyFrmCntr + 4
   \   000074   78..         MOV     R0,#?V0 + 0
   \   000076   12....       LCALL   ?L_MOV_X
   \   000079   D083         POP     DPH
   \   00007B   D082         POP     DPL
   \   00007D   78..         MOV     R0,#?V0 + 0
   \   00007F   12....       LCALL   ?UL_GT_X
   \   000082   4020         JC      ??APSME_TCLinkKeySync_3
   4083                {
   4084                  // set the keyNvId to use
   4085                  si->keyNvId = (ZCD_NV_TCLK_TABLE_START + i);
   \   000084   12....       LCALL   ?Subroutine48 & 0xFFFF
   4086          
   4087                  // update the rx frame counter
   4088                  *tclkRxFrmCntr = si->frmCntr + 1;
   \                     ??CrossCallReturnLabel_74:
   \   000087   12....       LCALL   ??Subroutine163_0 & 0xFFFF
   \                     ??CrossCallReturnLabel_397:
   \   00008A   78..         MOV     R0,#?V0 + 0
   \   00008C   12....       LCALL   ?L_MOV_X
   \   00008F   90....       MOV     DPTR,#__Constant_1
   \   000092   78..         MOV     R0,#?V0 + 0
   \   000094   12....       LCALL   ?L_ADD_X
   \   000097   90....       MOV     DPTR,#TCLinkKeyFrmCntr + 4
   \   00009A   78..         MOV     R0,#?V0 + 0
   \   00009C   12....       LCALL   ?L_MOV_TO_X
   4089          
   4090                  status = ZSuccess;
   \   00009F   75..00       MOV     ?V0 + 2,#0x0
   \   0000A2   8003         SJMP    ??APSME_TCLinkKeySync_2
   4091                }
   4092                else
   4093                {
   4094                  status = ZSecOldFrmCount;
   \                     ??APSME_TCLinkKeySync_3:
   \   0000A4   75..A2       MOV     ?V0 + 2,#-0x5e
   4095                }
   4096                // break from the loop
   4097                break;
   4098              }
   4099            }
   4100          
   4101            // clear copy of key in RAM
   4102            osal_memset( &tcLinkKey, 0x00, sizeof(APSME_TCLinkKey_t) );
   \                     ??APSME_TCLinkKeySync_2:
   \   0000A7                ; Setup parameters for call to function osal_memset
   \   0000A7   7C20         MOV     R4,#0x20
   \   0000A9   7D00         MOV     R5,#0x0
   \   0000AB   7900         MOV     R1,#0x0
   \   0000AD   85..82       MOV     DPL,?XSP + 0
   \   0000B0   85..83       MOV     DPH,?XSP + 1
   \   0000B3   AA82         MOV     R2,DPL
   \   0000B5   AB83         MOV     R3,DPH
   \   0000B7   12....       LCALL   ??osal_memset?relay
   4103          
   4104            return status;
   \   0000BA   A9..         MOV     R1,?V0 + 2
   \   0000BC   7420         MOV     A,#0x20
   \   0000BE   02....       LJMP    ?Subroutine6 & 0xFFFF
   4105          }

   \                                 In  segment BANKED_CODE, align 1, keep-with-next
   \                     ?Subroutine90:
   \   000000   AC82         MOV     R4,DPL
   \   000002   AD83         MOV     R5,DPH
   \   000004   12....       LCALL   ?Subroutine114 & 0xFFFF
   \                     ??CrossCallReturnLabel_175:
   \   000007   12....       LCALL   ??AddrMgrExtAddrEqual?relay
   \   00000A   E9           MOV     A,R1
   \   00000B   22           RET

   \                                 In  segment BANKED_CODE, align 1, keep-with-next
   \                     ?Subroutine48:
   \   000000   EE           MOV     A,R6
   \   000001   240F         ADD     A,#0xf
   \   000003   F582         MOV     DPL,A
   \   000005   EF           MOV     A,R7
   \   000006   3400         ADDC    A,#0x0
   \   000008   F583         MOV     DPH,A
   \   00000A   7401         MOV     A,#0x1
   \   00000C   F0           MOVX    @DPTR,A
   \   00000D   A3           INC     DPTR
   \   00000E   F0           MOVX    @DPTR,A
   \   00000F   EE           MOV     A,R6
   \   000010   22           RET

   \                                 In  segment BANKED_CODE, align 1, keep-with-next
   \                     ?Subroutine49:
   \   000000   EE           MOV     A,R6
   \   000001                REQUIRE ??Subroutine163_0
   \   000001                ; // Fall through to label ??Subroutine163_0

   \                                 In  segment BANKED_CODE, align 1, keep-with-next
   \                     ??Subroutine163_0:
   \   000000   2412         ADD     A,#0x12
   \   000002                REQUIRE ??Subroutine164_0
   \   000002                ; // Fall through to label ??Subroutine164_0
   4106          
   4107          /******************************************************************************
   4108           * @fn          APSME_TCLinkKeyLoad
   4109           *
   4110           * @brief       Load Trust Center LINK key data.
   4111           *
   4112           * @param       dstAddr - [in] dstAddr
   4113           * @param       si      - [in, out] SSP_Info_t
   4114           *
   4115           * @return      ZStatus_t
   4116           */

   \                                 In  segment BANKED_CODE, align 1, keep-with-next
   4117          ZStatus_t APSME_TCLinkKeyLoad( uint16 dstAddr, SSP_Info_t* si )
   \                     APSME_TCLinkKeyLoad:
   4118          {
   \   000000   74F0         MOV     A,#-0x10
   \   000002   12....       LCALL   ?BANKED_ENTER_XDATA
   \   000005                ; Saved register size: 16
   \   000005                ; Auto size: 45
   \   000005   74D3         MOV     A,#-0x2d
   \   000007   12....       LCALL   ?ALLOC_XSTACK8
   \   00000A   EC           MOV     A,R4
   \   00000B   FE           MOV     R6,A
   \   00000C   ED           MOV     A,R5
   \   00000D   FF           MOV     R7,A
   4119            uint8 i;
   4120            ZStatus_t status = ZSecNoKey;
   \   00000E   75..A1       MOV     ?V0 + 2,#-0x5f
   4121            APSME_TCLinkKey_t tcLinkKey;
   4122            AddrMgrEntry_t addrEntry;
   4123            uint32 *tclkTxFrmCntr;
   4124            uint8 extAddrFound;
   4125            uint8 defaultTCLKIdx = ZDSECMGR_TC_DEVICE_MAX;
   4126          
   4127            // Look up the ami of the srcAddr if available
   4128            addrEntry.user    = ADDRMGR_USER_DEFAULT;
   \   000011   85..82       MOV     DPL,?XSP + 0
   \   000014   85..83       MOV     DPH,?XSP + 1
   \   000017   E4           CLR     A
   \   000018   F0           MOVX    @DPTR,A
   4129            addrEntry.nwkAddr = dstAddr;
   \   000019   04           INC     A
   \   00001A   12....       LCALL   ?XSTACK_DISP0_8
   \   00001D   12....       LCALL   ?Subroutine37 & 0xFFFF
   4130          
   4131            APSME_LookupExtAddr( dstAddr, si->extAddr );
   \                     ??CrossCallReturnLabel_50:
   \   000020   EE           MOV     A,R6
   \   000021   2406         ADD     A,#0x6
   \   000023   F5..         MOV     ?V0 + 0,A
   \   000025   EF           MOV     A,R7
   \   000026   3400         ADDC    A,#0x0
   \   000028   F5..         MOV     ?V0 + 1,A
   \   00002A                ; Setup parameters for call to function APSME_LookupExtAddr
   \   00002A   AC..         MOV     R4,?V0 + 0
   \   00002C   FD           MOV     R5,A
   \   00002D   12....       LCALL   ??APSME_LookupExtAddr?relay
   4132          
   4133            extAddrFound = AddrMgrExtAddrValid( si->extAddr );
   \   000030                ; Setup parameters for call to function AddrMgrExtAddrValid
   \   000030   AA..         MOV     R2,?V0 + 0
   \   000032   AB..         MOV     R3,?V0 + 1
   \   000034   12....       LCALL   ??AddrMgrExtAddrValid?relay
   \   000037   E9           MOV     A,R1
   \   000038   F5..         MOV     ?V0 + 3,A
   4134          
   4135            // Look up the TC link key associated with the device
   4136            // or the master TC link key (ami = 0xFFFF), whichever is found
   4137            for( i = 0; i < ZDSECMGR_TC_DEVICE_MAX; i++ )
   4138            {
   4139              // Read entry i of the TC link key table from NV
   4140              osal_nv_read( (ZCD_NV_TCLK_TABLE_START + i), 0,
   4141                           sizeof(APSME_TCLinkKey_t), &tcLinkKey );
   \   00003A                ; Setup parameters for call to function osal_nv_read
   \   00003A   740D         MOV     A,#0xd
   \   00003C   12....       LCALL   ?XSTACK_DISP0_8
   \   00003F   8582..       MOV     ?V0 + 0,DPL
   \   000042   8583..       MOV     ?V0 + 1,DPH
   \   000045   78..         MOV     R0,#?V0 + 0
   \   000047   12....       LCALL   ?PUSH_XSTACK_I_TWO
   \   00004A   75..20       MOV     ?V0 + 0,#0x20
   \   00004D   75..00       MOV     ?V0 + 1,#0x0
   \   000050   78..         MOV     R0,#?V0 + 0
   \   000052   12....       LCALL   ?PUSH_XSTACK_I_TWO
   \   000055   12....       LCALL   ?Subroutine82 & 0xFFFF
   \                     ??CrossCallReturnLabel_376:
   \   000058   12....       LCALL   ?DEALLOC_XSTACK8
   4142          
   4143              if( extAddrFound && AddrMgrExtAddrEqual(si->extAddr, tcLinkKey.extAddr) )
   \   00005B   E5..         MOV     A,?V0 + 3
   \   00005D   600A         JZ      ??APSME_TCLinkKeyLoad_0
   \   00005F                ; Setup parameters for call to function AddrMgrExtAddrEqual
   \   00005F   740D         MOV     A,#0xd
   \   000061   12....       LCALL   ?XSTACK_DISP0_8
   \   000064   12....       LCALL   ?Subroutine90 & 0xFFFF
   \                     ??CrossCallReturnLabel_140:
   \   000067   7011         JNZ     ??APSME_TCLinkKeyLoad_1
   4144              {
   4145                status = ZSuccess;
   4146          
   4147                break; // break from the loop
   4148              }
   4149          
   4150              if ( APSME_IsDefaultTCLK(tcLinkKey.extAddr) )
   4151              {
   4152                if ( !extAddrFound )
   4153                {
   4154                  status = ZSuccess;
   4155          
   4156                  break; // break from the loop
   4157                }
   4158          
   4159                // Remember the default TCLK index
   4160                defaultTCLKIdx = i;
   4161              }
   4162            }
   4163          
   4164            if ( (status != ZSuccess) && (defaultTCLKIdx < ZDSECMGR_TC_DEVICE_MAX) )
   4165            {
   4166              // Exact match was not found; use the default TC Link Key
   4167              i = defaultTCLKIdx;
   4168              status = ZSuccess;
   4169            }
   4170          
   4171            if ( status == ZSuccess )
   \                     ??APSME_TCLinkKeyLoad_0:
   \   000069                ; Setup parameters for call to function APSME_IsDefaultTCLK
   \   000069   740D         MOV     A,#0xd
   \   00006B   12....       LCALL   ?XSTACK_DISP0_8
   \   00006E   AA82         MOV     R2,DPL
   \   000070   AB83         MOV     R3,DPH
   \   000072   12....       LCALL   ??APSME_IsDefaultTCLK?relay
   \   000075   E9           MOV     A,R1
   \   000076   602D         JZ      ??APSME_TCLinkKeyLoad_2
   \   000078   E5..         MOV     A,?V0 + 3
   \                     ??APSME_TCLinkKeyLoad_1:
   \   00007A   75..00       MOV     ?V0 + 2,#0x0
   4172            {
   4173              tclkTxFrmCntr = &TCLinkKeyFrmCntr[i].txFrmCntr;
   4174          
   4175              // set the keyNvId to use
   4176              si->keyNvId = (ZCD_NV_TCLK_TABLE_START + i);
   \   00007D   12....       LCALL   ?Subroutine48 & 0xFFFF
   4177          
   4178              // update link key related fields
   4179              si->keyID   = SEC_KEYID_LINK;
   \                     ??CrossCallReturnLabel_75:
   \   000080   240E         ADD     A,#0xe
   \   000082   12....       LCALL   ??Subroutine164_0 & 0xFFFF
   \                     ??CrossCallReturnLabel_396:
   \   000085   E4           CLR     A
   \   000086   F0           MOVX    @DPTR,A
   4180              si->frmCntr = *tclkTxFrmCntr;
   \   000087   90....       MOV     DPTR,#TCLinkKeyFrmCntr
   \   00008A   12....       LCALL   ?XLOAD_R2345
   \   00008D   12....       LCALL   ?Subroutine49 & 0xFFFF
   \                     ??CrossCallReturnLabel_399:
   \   000090   12....       LCALL   ?XSTORE_R2345
   4181          
   4182              // update outgoing frame counter
   4183              (*tclkTxFrmCntr)++;
   \   000093   90....       MOV     DPTR,#__Constant_1
   \   000096   78..         MOV     R0,#?V0 + 4
   \   000098   12....       LCALL   ?L_MOV_X
   \   00009B   90....       MOV     DPTR,#TCLinkKeyFrmCntr
   \   00009E   78..         MOV     R0,#?V0 + 4
   \   0000A0   12....       LCALL   ?L_ADD_TO_X
   \   0000A3   8018         SJMP    ??APSME_TCLinkKeyLoad_3
   \                     ??APSME_TCLinkKeyLoad_2:
   \   0000A5                ; Setup parameters for call to function AddrMgrEntryLookupNwk
   4184          
   4185          #if defined ( NV_RESTORE )
   4186              // write periodically to NV
   4187              if ( !(*tclkTxFrmCntr % MAX_TCLK_FRAMECOUNTER_CHANGES) )
   4188              {
   4189                // set the flag to write key to NV
   4190                TCLinkKeyFrmCntr[i].pendingFlag = TRUE;
   4191          
   4192                // Notify the ZDApp that the frame counter has changed.
   4193                osal_set_event( ZDAppTaskID, ZDO_TCLK_FRAMECOUNTER_CHANGE );
   4194              }
   4195          #endif
   4196            }
   \   0000A5   85..82       MOV     DPL,?XSP + 0
   \   0000A8   85..83       MOV     DPH,?XSP + 1
   \   0000AB   12....       LCALL   ?Subroutine89 & 0xFFFF
   \                     ??CrossCallReturnLabel_299:
   \   0000AE   700D         JNZ     ??APSME_TCLinkKeyLoad_3
   4197          
   4198            // If no TC link key found, remove the device from the address manager
   4199            if ( (status != ZSuccess) && (AddrMgrEntryLookupNwk(&addrEntry) == TRUE) )
   4200            {
   4201              AddrMgrEntryRelease( &addrEntry );
   \   0000B0                ; Setup parameters for call to function AddrMgrEntryRelease
   \   0000B0   85..82       MOV     DPL,?XSP + 0
   \   0000B3   85..83       MOV     DPH,?XSP + 1
   \   0000B6   AA82         MOV     R2,DPL
   \   0000B8   AB83         MOV     R3,DPH
   \   0000BA   12....       LCALL   ??AddrMgrEntryRelease?relay
   4202            }
   4203          
   4204              // clear copy of key in RAM
   4205            osal_memset( &tcLinkKey, 0x00, sizeof(APSME_TCLinkKey_t) );
   \                     ??APSME_TCLinkKeyLoad_3:
   \   0000BD                ; Setup parameters for call to function osal_memset
   \   0000BD   7C20         MOV     R4,#0x20
   \   0000BF   7D00         MOV     R5,#0x0
   \   0000C1   7900         MOV     R1,#0x0
   \   0000C3   740D         MOV     A,#0xd
   \   0000C5   12....       LCALL   ?XSTACK_DISP0_8
   \   0000C8   AA82         MOV     R2,DPL
   \   0000CA   AB83         MOV     R3,DPH
   \   0000CC   12....       LCALL   ??osal_memset?relay
   4206          
   4207            return status;
   \   0000CF   A9..         MOV     R1,?V0 + 2
   \   0000D1   742D         MOV     A,#0x2d
   \   0000D3   12....       LCALL   ?DEALLOC_XSTACK8
   \   0000D6   7F08         MOV     R7,#0x8
   \   0000D8   02....       LJMP    ?BANKED_LEAVE_XDATA
   4208          }
   4209          
   4210          /******************************************************************************
   4211           * @fn          APSME_IsDefaultTCLK
   4212           *
   4213           * @brief       Return TRUE or FALSE based on the extended address.  If the
   4214           *              input ext address is all FFs, it means the trust center link
   4215           *              assoiciated with the address is the default trust center link key
   4216           *
   4217           * @param       extAddr - [in] extended address
   4218           *
   4219           * @return      uint8 TRUE/FALSE
   4220           */

   \                                 In  segment BANKED_CODE, align 1, keep-with-next
   4221          uint8 APSME_IsDefaultTCLK( uint8 *extAddr )
   \                     APSME_IsDefaultTCLK:
   4222          {
   \   000000   C082         PUSH    DPL
   \   000002   C083         PUSH    DPH
   \   000004                ; Saved register size: 2
   \   000004                ; Auto size: 0
   4223            uint8 i = 0;
   \   000004   7C00         MOV     R4,#0x0
   4224          
   4225            if( extAddr == NULL )
   \   000006   EA           MOV     A,R2
   \   000007   4B           ORL     A,R3
   \   000008   7019         JNZ     ??APSME_IsDefaultTCLK_0
   4226            {
   4227              return FALSE;
   \                     ??APSME_IsDefaultTCLK_1:
   \   00000A   7900         MOV     R1,#0x0
   \   00000C   801E         SJMP    ??APSME_IsDefaultTCLK_2
   4228            }
   4229          
   4230            while( i++ < Z_EXTADDR_LEN )
   4231            {
   4232              if( *extAddr++ != 0xFF )
   \                     ??APSME_IsDefaultTCLK_3:
   \   00000E   EA           MOV     A,R2
   \   00000F   F8           MOV     R0,A
   \   000010   EB           MOV     A,R3
   \   000011   F9           MOV     R1,A
   \   000012   8882         MOV     DPL,R0
   \   000014   8983         MOV     DPH,R1
   \   000016   A3           INC     DPTR
   \   000017   AA82         MOV     R2,DPL
   \   000019   AB83         MOV     R3,DPH
   \   00001B   8882         MOV     DPL,R0
   \   00001D   8983         MOV     DPH,R1
   \   00001F   E0           MOVX    A,@DPTR
   \   000020   F4           CPL     A
   \   000021   70E7         JNZ     ??APSME_IsDefaultTCLK_1
   4233              {
   4234                return FALSE;
   4235              }
   4236            }
   \                     ??APSME_IsDefaultTCLK_0:
   \   000023   EC           MOV     A,R4
   \   000024   0C           INC     R4
   \   000025   C3           CLR     C
   \   000026   9408         SUBB    A,#0x8
   \   000028   40E4         JC      ??APSME_IsDefaultTCLK_3
   4237          
   4238            return TRUE;
   \   00002A   7901         MOV     R1,#0x1
   \                     ??APSME_IsDefaultTCLK_2:
   \   00002C   02....       LJMP    ??Subroutine139_0 & 0xFFFF
   4239          }
   4240          
   4241          /******************************************************************************
   4242           * @fn          ZDSecMgrNwkKeyInit
   4243           *
   4244           * @brief       Initialize the NV items for
   4245           *                  ZCD_NV_NWKKEY,
   4246           *                  ZCD_NV_NWK_ACTIVE_KEY_INFO and
   4247           *                  ZCD_NV_NWK_ALTERN_KEY_INFO
   4248           *
   4249           * @param       setDefault
   4250           *
   4251           * @return      none
   4252           */

   \                                 In  segment BANKED_CODE, align 1, keep-with-next
   4253          void ZDSecMgrNwkKeyInit(uint8 setDefault)
   \                     ZDSecMgrNwkKeyInit:
   4254          {
   \   000000   74F6         MOV     A,#-0xa
   \   000002   12....       LCALL   ?BANKED_ENTER_XDATA
   \   000005                ; Saved register size: 10
   \   000005                ; Auto size: 38
   \   000005   74DA         MOV     A,#-0x26
   \   000007   12....       LCALL   ?ALLOC_XSTACK8
   4255            uint8 status;
   4256            nwkKeyDesc nwkKey;
   4257          
   4258            // Initialize NV items for NWK key, this structure contains the frame counter
   4259            // and is only used when NV_RESTORE is enabled
   4260            nwkActiveKeyItems keyItems;
   4261          
   4262            osal_memset( &keyItems, 0, sizeof( nwkActiveKeyItems ) );
   \   00000A                ; Setup parameters for call to function osal_memset
   \   00000A   7C15         MOV     R4,#0x15
   \   00000C   7D00         MOV     R5,#0x0
   \   00000E   7900         MOV     R1,#0x0
   \   000010   7411         MOV     A,#0x11
   \   000012   12....       LCALL   ?XSTACK_DISP0_8
   \   000015   AA82         MOV     R2,DPL
   \   000017   AB83         MOV     R3,DPH
   \   000019   12....       LCALL   ??osal_memset?relay
   4263          
   4264            status = osal_nv_item_init( ZCD_NV_NWKKEY, sizeof(nwkActiveKeyItems), (void *)&keyItems );
   4265          
   4266          #if defined ( NV_RESTORE )
   4267            // reset the values of NV items if NV_RESTORE is not enabled
   4268            if ((status == SUCCESS) && (setDefault == TRUE))
   4269            {
   4270              // clear NV data to default values
   4271              osal_nv_write( ZCD_NV_NWKKEY, 0, sizeof(nwkActiveKeyItems), &keyItems );
   4272            }
   4273          #else
   4274            (void)setDefault;   // to eliminate compiler warning
   4275          
   4276            // reset the values of NV items if NV_RESTORE is not enabled
   4277            if (status == SUCCESS)
   \   00001C                ; Setup parameters for call to function osal_nv_item_init
   \   00001C   7411         MOV     A,#0x11
   \   00001E   12....       LCALL   ?XSTACK_DISP0_8
   \   000021   8582..       MOV     ?V0 + 0,DPL
   \   000024   8583..       MOV     ?V0 + 1,DPH
   \   000027   78..         MOV     R0,#?V0 + 0
   \   000029   12....       LCALL   ?PUSH_XSTACK_I_TWO
   \   00002C   7C15         MOV     R4,#0x15
   \   00002E   7D00         MOV     R5,#0x0
   \   000030   7A82         MOV     R2,#-0x7e
   \   000032   12....       LCALL   ?Subroutine44 & 0xFFFF
   \                     ??CrossCallReturnLabel_380:
   \   000035   12....       LCALL   ?DEALLOC_XSTACK8
   \   000038   E9           MOV     A,R1
   \   000039   701E         JNZ     ??ZDSecMgrNwkKeyInit_0
   4278            {
   4279              osal_nv_write( ZCD_NV_NWKKEY, 0, sizeof(nwkActiveKeyItems), &keyItems );
   \   00003B                ; Setup parameters for call to function osal_nv_write
   \   00003B   78..         MOV     R0,#?V0 + 0
   \   00003D   12....       LCALL   ?PUSH_XSTACK_I_TWO
   \   000040   75..15       MOV     ?V0 + 0,#0x15
   \   000043   75..00       MOV     ?V0 + 1,#0x0
   \   000046   78..         MOV     R0,#?V0 + 0
   \   000048   12....       LCALL   ?PUSH_XSTACK_I_TWO
   \   00004B   7C00         MOV     R4,#0x0
   \   00004D   7D00         MOV     R5,#0x0
   \   00004F   7A82         MOV     R2,#-0x7e
   \   000051   7B00         MOV     R3,#0x0
   \   000053   12....       LCALL   ??Subroutine122_0 & 0xFFFF
   4280            }
   \                     ??CrossCallReturnLabel_194:
   \   000056   12....       LCALL   ?DEALLOC_XSTACK8
   4281          #endif // defined (NV_RESTORE)
   4282          
   4283            // Initialize NV items for NWK Active and Alternate keys. These items are used
   4284            // all the time, independently of NV_RESTORE being set or not
   4285            osal_memset( &nwkKey, 0x00, sizeof(nwkKey) );
   \                     ??ZDSecMgrNwkKeyInit_0:
   \   000059                ; Setup parameters for call to function osal_memset
   \   000059   7C11         MOV     R4,#0x11
   \   00005B   7D00         MOV     R5,#0x0
   \   00005D   7900         MOV     R1,#0x0
   \   00005F   85..82       MOV     DPL,?XSP + 0
   \   000062   85..83       MOV     DPH,?XSP + 1
   \   000065   12....       LCALL   ?Subroutine46 & 0xFFFF
   4286          
   4287            status = osal_nv_item_init( ZCD_NV_NWK_ACTIVE_KEY_INFO, sizeof(nwkKey), &nwkKey);
   4288          
   4289          #if defined ( NV_RESTORE )
   4290            // reset the values of NV items if NV_RESTORE is not enabled
   4291            if ((status == SUCCESS) && (setDefault == TRUE))
   4292            {
   4293              // clear NV data to default values
   4294              osal_nv_write( ZCD_NV_NWK_ACTIVE_KEY_INFO, 0, sizeof(nwkKey), &nwkKey );
   4295            }
   4296          #else
   4297            // reset the values of NV items if NV_RESTORE is not enabled
   4298            if (status == SUCCESS)
   \                     ??CrossCallReturnLabel_71:
   \   000068   8582..       MOV     ?V0 + 0,DPL
   \   00006B   8583..       MOV     ?V0 + 1,DPH
   \   00006E   78..         MOV     R0,#?V0 + 0
   \   000070   12....       LCALL   ?PUSH_XSTACK_I_TWO
   \   000073   7C11         MOV     R4,#0x11
   \   000075   7D00         MOV     R5,#0x0
   \   000077   7A3A         MOV     R2,#0x3a
   \   000079   12....       LCALL   ?Subroutine44 & 0xFFFF
   \                     ??CrossCallReturnLabel_381:
   \   00007C   12....       LCALL   ?DEALLOC_XSTACK8
   \   00007F   E9           MOV     A,R1
   \   000080   701E         JNZ     ??ZDSecMgrNwkKeyInit_1
   4299            {
   4300              osal_nv_write( ZCD_NV_NWK_ACTIVE_KEY_INFO, 0, sizeof(nwkKey), &nwkKey );
   \   000082                ; Setup parameters for call to function osal_nv_write
   \   000082   78..         MOV     R0,#?V0 + 0
   \   000084   12....       LCALL   ?PUSH_XSTACK_I_TWO
   \   000087   75..11       MOV     ?V0 + 0,#0x11
   \   00008A   75..00       MOV     ?V0 + 1,#0x0
   \   00008D   78..         MOV     R0,#?V0 + 0
   \   00008F   12....       LCALL   ?PUSH_XSTACK_I_TWO
   \   000092   7C00         MOV     R4,#0x0
   \   000094   7D00         MOV     R5,#0x0
   \   000096   7A3A         MOV     R2,#0x3a
   \   000098   7B00         MOV     R3,#0x0
   \   00009A   12....       LCALL   ??Subroutine122_0 & 0xFFFF
   4301            }
   \                     ??CrossCallReturnLabel_195:
   \   00009D   12....       LCALL   ?DEALLOC_XSTACK8
   4302          #endif // defined (NV_RESTORE)
   4303          
   4304            status = osal_nv_item_init( ZCD_NV_NWK_ALTERN_KEY_INFO, sizeof(nwkKey), &nwkKey );
   4305          
   4306          #if defined ( NV_RESTORE )
   4307            // reset the values of NV items if NV_RESTORE is not enabled
   4308            if ((status == SUCCESS) && (setDefault == TRUE))
   4309            {
   4310              // clear NV data to default values
   4311              osal_nv_write( ZCD_NV_NWK_ALTERN_KEY_INFO, 0, sizeof(nwkKey), &nwkKey );
   4312            }
   4313          #else
   4314            // reset the values of NV items if NV_RESTORE is not enabled
   4315            if (status == SUCCESS)
   \                     ??ZDSecMgrNwkKeyInit_1:
   \   0000A0                ; Setup parameters for call to function osal_nv_item_init
   \   0000A0   85..82       MOV     DPL,?XSP + 0
   \   0000A3   85..83       MOV     DPH,?XSP + 1
   \   0000A6   8582..       MOV     ?V0 + 0,DPL
   \   0000A9   8583..       MOV     ?V0 + 1,DPH
   \   0000AC   78..         MOV     R0,#?V0 + 0
   \   0000AE   12....       LCALL   ?PUSH_XSTACK_I_TWO
   \   0000B1   7C11         MOV     R4,#0x11
   \   0000B3   7D00         MOV     R5,#0x0
   \   0000B5   7A3B         MOV     R2,#0x3b
   \   0000B7   12....       LCALL   ?Subroutine44 & 0xFFFF
   \                     ??CrossCallReturnLabel_382:
   \   0000BA   12....       LCALL   ?DEALLOC_XSTACK8
   \   0000BD   E9           MOV     A,R1
   \   0000BE   701E         JNZ     ??ZDSecMgrNwkKeyInit_2
   4316            {
   4317              osal_nv_write( ZCD_NV_NWK_ALTERN_KEY_INFO, 0, sizeof(nwkKey), &nwkKey );
   \   0000C0                ; Setup parameters for call to function osal_nv_write
   \   0000C0   78..         MOV     R0,#?V0 + 0
   \   0000C2   12....       LCALL   ?PUSH_XSTACK_I_TWO
   \   0000C5   75..11       MOV     ?V0 + 0,#0x11
   \   0000C8   75..00       MOV     ?V0 + 1,#0x0
   \   0000CB   78..         MOV     R0,#?V0 + 0
   \   0000CD   12....       LCALL   ?PUSH_XSTACK_I_TWO
   \   0000D0   7C00         MOV     R4,#0x0
   \   0000D2   7D00         MOV     R5,#0x0
   \   0000D4   7A3B         MOV     R2,#0x3b
   \   0000D6   7B00         MOV     R3,#0x0
   \   0000D8   12....       LCALL   ??Subroutine122_0 & 0xFFFF
   4318            }
   \                     ??CrossCallReturnLabel_196:
   \   0000DB   12....       LCALL   ?DEALLOC_XSTACK8
   4319          #endif // defined (NV_RESTORE)
   4320          
   4321          }
   \                     ??ZDSecMgrNwkKeyInit_2:
   \   0000DE   7426         MOV     A,#0x26
   \   0000E0   02....       LJMP    ??Subroutine134_0 & 0xFFFF

   \                                 In  segment BANKED_CODE, align 1, keep-with-next
   \                     ?Subroutine44:
   \   000000   7B00         MOV     R3,#0x0
   \   000002                REQUIRE ??Subroutine162_0
   \   000002                ; // Fall through to label ??Subroutine162_0
   4322          
   4323          /*********************************************************************
   4324           * @fn          ZDSecMgrReadKeyFromNv
   4325           *
   4326           * @brief       Looks for a specific key in NV based on Index value
   4327           *
   4328           * @param   keyNvId - Index of key to look in NV
   4329           *                    valid values are:
   4330           *                    ZCD_NV_NWK_ACTIVE_KEY_INFO
   4331           *                    ZCD_NV_NWK_ALTERN_KEY_INFO
   4332           *                    ZCD_NV_TCLK_TABLE_START + <offset_in_table>
   4333           *                    ZCD_NV_APS_LINK_KEY_DATA_START + <offset_in_table>
   4334           *                    ZCD_NV_MASTER_KEY_DATA_START + <offset_in_table>
   4335           *                    ZCD_NV_PRECFGKEY
   4336           *
   4337           * @param  *keyinfo - Data is read into this buffer.
   4338           *
   4339           * @return  SUCCESS if NV data was copied to the keyinfo parameter .
   4340           *          Otherwise, NV_OPER_FAILED for failure.
   4341           */

   \                                 In  segment BANKED_CODE, align 1, keep-with-next
   4342          ZStatus_t ZDSecMgrReadKeyFromNv(uint16 keyNvId, void *keyinfo)
   \                     ZDSecMgrReadKeyFromNv:
   4343          {
   \   000000   74F6         MOV     A,#-0xa
   \   000002   12....       LCALL   ?BANKED_ENTER_XDATA
   \   000005                ; Saved register size: 10
   \   000005                ; Auto size: 0
   4344            if ((keyNvId == ZCD_NV_NWK_ACTIVE_KEY_INFO) ||
   4345                (keyNvId == ZCD_NV_NWK_ALTERN_KEY_INFO))
   \   000005   743A         MOV     A,#0x3a
   \   000007   6A           XRL     A,R2
   \   000008   7001         JNZ     ??ZDSecMgrReadKeyFromNv_0
   \   00000A   EB           MOV     A,R3
   \                     ??ZDSecMgrReadKeyFromNv_0:
   \   00000B   6008         JZ      ??ZDSecMgrReadKeyFromNv_1
   \   00000D   743B         MOV     A,#0x3b
   \   00000F   6A           XRL     A,R2
   \   000010   7001         JNZ     ??ZDSecMgrReadKeyFromNv_2
   \   000012   EB           MOV     A,R3
   \                     ??ZDSecMgrReadKeyFromNv_2:
   \   000013   7021         JNZ     ??ZDSecMgrReadKeyFromNv_3
   4346            {
   4347              // get NWK active or alternate key from NV
   4348              return (osal_nv_read(keyNvId,
   4349                                   osal_offsetof(nwkKeyDesc, key),
   4350                                   SEC_KEY_LEN,
   4351                                   keyinfo));
   \                     ??ZDSecMgrReadKeyFromNv_1:
   \   000015                ; Setup parameters for call to function osal_nv_read
   \   000015   8C..         MOV     ?V0 + 0,R4
   \   000017   8D..         MOV     ?V0 + 1,R5
   \   000019   78..         MOV     R0,#?V0 + 0
   \   00001B   12....       LCALL   ?PUSH_XSTACK_I_TWO
   \   00001E   75..10       MOV     ?V0 + 0,#0x10
   \   000021   75..00       MOV     ?V0 + 1,#0x0
   \   000024   78..         MOV     R0,#?V0 + 0
   \   000026   12....       LCALL   ?PUSH_XSTACK_I_TWO
   \   000029   7C01         MOV     R4,#0x1
   \                     ??ZDSecMgrReadKeyFromNv_4:
   \   00002B   7D00         MOV     R5,#0x0
   4352            }
   \                     ??ZDSecMgrReadKeyFromNv_5:
   \   00002D   12....       LCALL   ??Subroutine161_0 & 0xFFFF
   \                     ??CrossCallReturnLabel_378:
   \   000030   12....       LCALL   ?DEALLOC_XSTACK8
   \   000033   02....       LJMP    ??ZDSecMgrReadKeyFromNv_6 & 0xFFFF
   4353            else if ((keyNvId >= ZCD_NV_TCLK_TABLE_START) &&
   4354                     (keyNvId < (ZCD_NV_TCLK_TABLE_START + ZDSECMGR_TC_DEVICE_MAX)))
   \                     ??ZDSecMgrReadKeyFromNv_3:
   \   000036   EA           MOV     A,R2
   \   000037   24FF         ADD     A,#-0x1
   \   000039   F8           MOV     R0,A
   \   00003A   EB           MOV     A,R3
   \   00003B   34FE         ADDC    A,#-0x2
   \   00003D   F9           MOV     R1,A
   \   00003E   E8           MOV     A,R0
   \   00003F   49           ORL     A,R1
   \   000040   7018         JNZ     ??ZDSecMgrReadKeyFromNv_7
   4355            {
   4356              // Read entry keyNvId of the TC link key table from NV. keyNvId should be
   4357              // ZCD_NV_TCLK_TABLE_START + <offset_in_table>
   4358              return (osal_nv_read(keyNvId,
   4359                                   osal_offsetof(APSME_TCLinkKey_t, key),
   4360                                   SEC_KEY_LEN,
   4361                                   keyinfo));
   \   000042                ; Setup parameters for call to function osal_nv_read
   \   000042   8C..         MOV     ?V0 + 0,R4
   \   000044   8D..         MOV     ?V0 + 1,R5
   \   000046   78..         MOV     R0,#?V0 + 0
   \   000048   12....       LCALL   ?PUSH_XSTACK_I_TWO
   \   00004B   75..10       MOV     ?V0 + 0,#0x10
   \   00004E   75..00       MOV     ?V0 + 1,#0x0
   \   000051   78..         MOV     R0,#?V0 + 0
   \   000053   12....       LCALL   ?PUSH_XSTACK_I_TWO
   \   000056   7C08         MOV     R4,#0x8
   \   000058   80D1         SJMP    ??ZDSecMgrReadKeyFromNv_4
   4362            }
   4363            else if ((keyNvId >= ZCD_NV_APS_LINK_KEY_DATA_START) &&
   4364                     (keyNvId < (ZCD_NV_APS_LINK_KEY_DATA_START + ZDSECMGR_ENTRY_MAX)))
   \                     ??ZDSecMgrReadKeyFromNv_7:
   \   00005A   19           DEC     R1
   \   00005B   C3           CLR     C
   \   00005C   E8           MOV     A,R0
   \   00005D   9403         SUBB    A,#0x3
   \   00005F   E9           MOV     A,R1
   \   000060   9400         SUBB    A,#0x0
   \   000062   501A         JNC     ??ZDSecMgrReadKeyFromNv_8
   4365            {
   4366              // Read entry keyNvId of the APS link key table from NV. keyNvId should be
   4367              // ZCD_NV_APS_LINK_KEY_DATA_START + <offset_in_table>
   4368              return (osal_nv_read(keyNvId,
   4369                                   osal_offsetof(APSME_LinkKeyData_t, key),
   4370                                   SEC_KEY_LEN,
   4371                                   keyinfo));
   \   000064                ; Setup parameters for call to function osal_nv_read
   \   000064   8C..         MOV     ?V0 + 0,R4
   \   000066   8D..         MOV     ?V0 + 1,R5
   \   000068   78..         MOV     R0,#?V0 + 0
   \   00006A   12....       LCALL   ?PUSH_XSTACK_I_TWO
   \   00006D   75..10       MOV     ?V0 + 0,#0x10
   \   000070   75..00       MOV     ?V0 + 1,#0x0
   \   000073   78..         MOV     R0,#?V0 + 0
   \   000075   12....       LCALL   ?PUSH_XSTACK_I_TWO
   \   000078   7C00         MOV     R4,#0x0
   \   00007A   7D00         MOV     R5,#0x0
   \                     ??ZDSecMgrReadKeyFromNv_9:
   \   00007C   80AF         SJMP    ??ZDSecMgrReadKeyFromNv_5
   4372            }
   4373            else if ((keyNvId >= ZCD_NV_MASTER_KEY_DATA_START) &&
   4374                     (keyNvId < (ZCD_NV_MASTER_KEY_DATA_START + ZDSECMGR_MASTERKEY_MAX)))
   \                     ??ZDSecMgrReadKeyFromNv_8:
   \   00007E   19           DEC     R1
   \   00007F   C3           CLR     C
   \   000080   E8           MOV     A,R0
   \   000081   9403         SUBB    A,#0x3
   \   000083   E9           MOV     A,R1
   \   000084   9400         SUBB    A,#0x0
   \   000086   5018         JNC     ??ZDSecMgrReadKeyFromNv_10
   4375            {
   4376              // Read entry keyNvId of the MASTER key table from NV. keyNvId should be
   4377              // ZCD_NV_MASTER_KEY_DATA_START + <offset_in_table>
   4378              return (osal_nv_read(keyNvId,
   4379                                   osal_offsetof(ZDSecMgrMasterKeyData_t, key),
   4380                                   SEC_KEY_LEN,
   4381                                   keyinfo));
   \   000088                ; Setup parameters for call to function osal_nv_read
   \   000088   8C..         MOV     ?V0 + 0,R4
   \   00008A   8D..         MOV     ?V0 + 1,R5
   \   00008C   78..         MOV     R0,#?V0 + 0
   \   00008E   12....       LCALL   ?PUSH_XSTACK_I_TWO
   \   000091   75..10       MOV     ?V0 + 0,#0x10
   \   000094   75..00       MOV     ?V0 + 1,#0x0
   \   000097   78..         MOV     R0,#?V0 + 0
   \   000099   12....       LCALL   ?PUSH_XSTACK_I_TWO
   \   00009C   7C02         MOV     R4,#0x2
   \   00009E   808B         SJMP    ??ZDSecMgrReadKeyFromNv_4
   4382            }
   4383            else if (keyNvId == ZCD_NV_PRECFGKEY)
   \                     ??ZDSecMgrReadKeyFromNv_10:
   \   0000A0   7462         MOV     A,#0x62
   \   0000A2   6A           XRL     A,R2
   \   0000A3   7001         JNZ     ??ZDSecMgrReadKeyFromNv_11
   \   0000A5   EB           MOV     A,R3
   \                     ??ZDSecMgrReadKeyFromNv_11:
   \   0000A6   701E         JNZ     ??ZDSecMgrReadKeyFromNv_12
   4384            {
   4385              // Read entry keyNvId of the Preconfig key from NV.
   4386              return (osal_nv_read(keyNvId,
   4387                                   0,
   4388                                   SEC_KEY_LEN,
   4389                                   keyinfo));
   \   0000A8                ; Setup parameters for call to function osal_nv_read
   \   0000A8   8C..         MOV     ?V0 + 0,R4
   \   0000AA   8D..         MOV     ?V0 + 1,R5
   \   0000AC   78..         MOV     R0,#?V0 + 0
   \   0000AE   12....       LCALL   ?PUSH_XSTACK_I_TWO
   \   0000B1   75..10       MOV     ?V0 + 0,#0x10
   \   0000B4   75..00       MOV     ?V0 + 1,#0x0
   \   0000B7   78..         MOV     R0,#?V0 + 0
   \   0000B9   12....       LCALL   ?PUSH_XSTACK_I_TWO
   \   0000BC   7C00         MOV     R4,#0x0
   \   0000BE   7D00         MOV     R5,#0x0
   \   0000C0   7A62         MOV     R2,#0x62
   \   0000C2   7B00         MOV     R3,#0x0
   \   0000C4   80B6         SJMP    ??ZDSecMgrReadKeyFromNv_9
   4390            }
   4391          
   4392            return NV_OPER_FAILED;
   \                     ??ZDSecMgrReadKeyFromNv_12:
   \   0000C6   790A         MOV     R1,#0xa
   \                     ??ZDSecMgrReadKeyFromNv_6:
   \   0000C8   02....       LJMP    ??Subroutine135_0 & 0xFFFF
   4393          }
   4394          
   4395          /******************************************************************************
   4396           * @fn          ZDSecMgrApsLinkKeyInit
   4397           *
   4398           * @brief       Initialize the NV table for Application link keys
   4399           *
   4400           * @param       none
   4401           *
   4402           * @return      none
   4403           */

   \                                 In  segment BANKED_CODE, align 1, keep-with-next
   4404          void ZDSecMgrApsLinkKeyInit(void)
   \                     ZDSecMgrApsLinkKeyInit:
   4405          {
   \   000000   74F6         MOV     A,#-0xa
   \   000002   12....       LCALL   ?BANKED_ENTER_XDATA
   \   000005                ; Saved register size: 10
   \   000005                ; Auto size: 24
   \   000005   74E8         MOV     A,#-0x18
   \   000007   12....       LCALL   ?ALLOC_XSTACK8
   4406            APSME_LinkKeyData_t pApsLinkKey;
   4407            uint8 i;
   4408            uint8 status;
   4409          
   4410            // Initialize all NV items for APS link key, if not exist already.
   4411            osal_memset( &pApsLinkKey, 0x00, sizeof(APSME_LinkKeyData_t) );
   \   00000A                ; Setup parameters for call to function osal_memset
   \   00000A   7C18         MOV     R4,#0x18
   \   00000C   7D00         MOV     R5,#0x0
   \   00000E   7900         MOV     R1,#0x0
   \   000010   85..82       MOV     DPL,?XSP + 0
   \   000013   85..83       MOV     DPH,?XSP + 1
   \   000016   AA82         MOV     R2,DPL
   \   000018   AB83         MOV     R3,DPH
   \   00001A   12....       LCALL   ??osal_memset?relay
   4412          
   4413            for( i = 0; i < ZDSECMGR_ENTRY_MAX; i++ )
   \   00001D   7E00         MOV     R6,#0x0
   4414            {
   4415              status = osal_nv_item_init( (ZCD_NV_APS_LINK_KEY_DATA_START + i),
   4416                                         sizeof(APSME_LinkKeyData_t), &pApsLinkKey );
   4417          
   4418          #if defined ( NV_RESTORE )
   4419              (void)status;   // to eliminate compiler warning
   4420          #else
   4421              // reset the values of NV items if NV_RESTORE is not enabled
   4422              if (status == SUCCESS)
   \                     ??ZDSecMgrApsLinkKeyInit_0:
   \   00001F                ; Setup parameters for call to function osal_nv_item_init
   \   00001F   85..82       MOV     DPL,?XSP + 0
   \   000022   85..83       MOV     DPH,?XSP + 1
   \   000025   8582..       MOV     ?V0 + 0,DPL
   \   000028   8583..       MOV     ?V0 + 1,DPH
   \   00002B   78..         MOV     R0,#?V0 + 0
   \   00002D   12....       LCALL   ?PUSH_XSTACK_I_TWO
   \   000030   7C18         MOV     R4,#0x18
   \   000032   7D00         MOV     R5,#0x0
   \   000034   8E..         MOV     ?V0 + 0,R6
   \   000036   E5..         MOV     A,?V0 + 0
   \   000038   2401         ADD     A,#0x1
   \   00003A   FA           MOV     R2,A
   \   00003B   E4           CLR     A
   \   00003C   3402         ADDC    A,#0x2
   \   00003E   FB           MOV     R3,A
   \   00003F   12....       LCALL   ??Subroutine162_0 & 0xFFFF
   \                     ??CrossCallReturnLabel_385:
   \   000042   12....       LCALL   ?DEALLOC_XSTACK8
   \   000045   E9           MOV     A,R1
   \   000046   7028         JNZ     ??ZDSecMgrApsLinkKeyInit_1
   4423              {
   4424                osal_nv_write( (ZCD_NV_APS_LINK_KEY_DATA_START + i), 0,
   4425                              sizeof(APSME_LinkKeyData_t), &pApsLinkKey );
   \   000048                ; Setup parameters for call to function osal_nv_write
   \   000048   85..82       MOV     DPL,?XSP + 0
   \   00004B   8582..       MOV     ?V0 + 0,DPL
   \   00004E   78..         MOV     R0,#?V0 + 0
   \   000050   12....       LCALL   ?PUSH_XSTACK_I_TWO
   \   000053   75..18       MOV     ?V0 + 0,#0x18
   \   000056   75..00       MOV     ?V0 + 1,#0x0
   \   000059   78..         MOV     R0,#?V0 + 0
   \   00005B   12....       LCALL   ?PUSH_XSTACK_I_TWO
   \   00005E   7C00         MOV     R4,#0x0
   \   000060   7D00         MOV     R5,#0x0
   \   000062   8E..         MOV     ?V0 + 0,R6
   \   000064   E5..         MOV     A,?V0 + 0
   \   000066   2401         ADD     A,#0x1
   \   000068   FA           MOV     R2,A
   \   000069   E4           CLR     A
   \   00006A   12....       LCALL   ??Subroutine120_0 & 0xFFFF
   4426          
   4427              }
   4428          #endif // defined (NV_RESTORE)
   4429            }
   \                     ??CrossCallReturnLabel_185:
   \   00006D   12....       LCALL   ?DEALLOC_XSTACK8
   \                     ??ZDSecMgrApsLinkKeyInit_1:
   \   000070   0E           INC     R6
   \   000071   EE           MOV     A,R6
   \   000072   C3           CLR     C
   \   000073   9403         SUBB    A,#0x3
   \   000075   40A8         JC      ??ZDSecMgrApsLinkKeyInit_0
   4430          }
   \   000077   7418         MOV     A,#0x18
   \   000079   02....       LJMP    ??Subroutine134_0 & 0xFFFF
   4431          
   4432          /******************************************************************************
   4433           * @fn          ZDSecMgrInitNVKeyTables
   4434           *
   4435           * @brief       Initialize the NV table for All keys: NWK, Master, TCLK and APS
   4436           *
   4437           * @param       setDefault - TRUE to set default values
   4438           *
   4439           * @return      none
   4440           */

   \                                 In  segment BANKED_CODE, align 1, keep-with-next
   4441          void ZDSecMgrInitNVKeyTables(uint8 setDefault)
   \                     ZDSecMgrInitNVKeyTables:
   4442          {
   \   000000   74F7         MOV     A,#-0x9
   \   000002   12....       LCALL   ?BANKED_ENTER_XDATA
   \   000005                ; Saved register size: 9
   \   000005                ; Auto size: 0
   \   000005   E9           MOV     A,R1
   \   000006   FE           MOV     R6,A
   4443            ZDSecMgrNwkKeyInit(setDefault);
   \   000007                ; Setup parameters for call to function ZDSecMgrNwkKeyInit
   \   000007   12....       LCALL   ??ZDSecMgrNwkKeyInit?relay
   4444            ZDSecMgrMasterKeyInit();
   \   00000A                ; Setup parameters for call to function ZDSecMgrMasterKeyInit
   \   00000A   12....       LCALL   ??ZDSecMgrMasterKeyInit?relay
   4445            ZDSecMgrApsLinkKeyInit();
   \   00000D                ; Setup parameters for call to function ZDSecMgrApsLinkKeyInit
   \   00000D   12....       LCALL   ??ZDSecMgrApsLinkKeyInit?relay
   4446            APSME_TCLinkKeyInit(setDefault);
   \   000010                ; Setup parameters for call to function APSME_TCLinkKeyInit
   \   000010   EE           MOV     A,R6
   \   000011   F9           MOV     R1,A
   \   000012   12....       LCALL   ??APSME_TCLinkKeyInit?relay
   4447          }
   \   000015   02....       LJMP    ??Subroutine147_0 & 0xFFFF
   4448          
   4449          /******************************************************************************
   4450           * @fn          ZDSecMgrSaveApsLinkKey
   4451           *
   4452           * @brief       Save APS Link Key to NV. It will loop through all the keys
   4453           *              to see which one to save.
   4454           *
   4455           * @param       none
   4456           *
   4457           * @return      none
   4458           */

   \                                 In  segment BANKED_CODE, align 1, keep-with-next
   4459          void ZDSecMgrSaveApsLinkKey(void)
   \                     ZDSecMgrSaveApsLinkKey:
   4460          {
   \   000000   74F2         MOV     A,#-0xe
   \   000002   12....       LCALL   ?BANKED_ENTER_XDATA
   \   000005                ; Saved register size: 14
   \   000005                ; Auto size: 0
   4461            APSME_LinkKeyData_t *pKeyData = NULL;
   4462            int i;
   4463          
   4464            pKeyData = (APSME_LinkKeyData_t *)osal_mem_alloc(sizeof(APSME_LinkKeyData_t));
   \   000005                ; Setup parameters for call to function osal_mem_alloc
   \   000005   12....       LCALL   ?Subroutine80 & 0xFFFF
   4465          
   4466            if (pKeyData != NULL)
   \                     ??CrossCallReturnLabel_128:
   \   000008   7003         JNZ     $+5
   \   00000A   02....       LJMP    ??CrossCallReturnLabel_67 & 0xFFFF
   4467            {
   4468              // checks all pending flags to know which one to save
   4469              for (i = 0; i < ZDSECMGR_ENTRY_MAX; i++)
   \   00000D   7E00         MOV     R6,#0x0
   \   00000F   7F00         MOV     R7,#0x0
   4470              {
   4471                if (ApsLinkKeyFrmCntr[i].pendingFlag == TRUE)
   \                     ??ZDSecMgrSaveApsLinkKey_0:
   \   000011   EE           MOV     A,R6
   \   000012   F8           MOV     R0,A
   \   000013   EF           MOV     A,R7
   \   000014   F9           MOV     R1,A
   \   000015   E8           MOV     A,R0
   \   000016   75F009       MOV     B,#0x9
   \   000019   A4           MUL     AB
   \   00001A   F8           MOV     R0,A
   \   00001B   AAF0         MOV     R2,B
   \   00001D   75F009       MOV     B,#0x9
   \   000020   E9           MOV     A,R1
   \   000021   A4           MUL     AB
   \   000022   2A           ADD     A,R2
   \   000023   F9           MOV     R1,A
   \   000024   74..         MOV     A,#(ApsLinkKeyFrmCntr + 8) & 0xff
   \   000026   28           ADD     A,R0
   \   000027   F582         MOV     DPL,A
   \   000029   74..         MOV     A,#((ApsLinkKeyFrmCntr + 8) >> 8) & 0xff
   \   00002B   39           ADDC    A,R1
   \   00002C   F583         MOV     DPH,A
   \   00002E   E0           MOVX    A,@DPTR
   \   00002F   6401         XRL     A,#0x1
   \   000031   6003         JZ      $+5
   \   000033   02....       LJMP    ??ZDSecMgrSaveApsLinkKey_1 & 0xFFFF
   4472                {
   4473                  // retrieve key from NV
   4474                  if (osal_nv_read(ZCD_NV_APS_LINK_KEY_DATA_START + i, 0,
   4475                                   sizeof(APSME_LinkKeyData_t), pKeyData) == SUCCESS)
   \   000036                ; Setup parameters for call to function osal_nv_read
   \   000036   78..         MOV     R0,#?V0 + 2
   \   000038   12....       LCALL   ?PUSH_XSTACK_I_TWO
   \   00003B   75..18       MOV     ?V0 + 0,#0x18
   \   00003E   75..00       MOV     ?V0 + 1,#0x0
   \   000041   78..         MOV     R0,#?V0 + 0
   \   000043   12....       LCALL   ?PUSH_XSTACK_I_TWO
   \   000046   7C00         MOV     R4,#0x0
   \   000048   7D00         MOV     R5,#0x0
   \   00004A   EE           MOV     A,R6
   \   00004B   2401         ADD     A,#0x1
   \   00004D   FA           MOV     R2,A
   \   00004E   EF           MOV     A,R7
   \   00004F   3402         ADDC    A,#0x2
   \   000051   FB           MOV     R3,A
   \   000052   12....       LCALL   ??Subroutine161_0 & 0xFFFF
   \                     ??CrossCallReturnLabel_379:
   \   000055   12....       LCALL   ?DEALLOC_XSTACK8
   \   000058   E9           MOV     A,R1
   \   000059   7060         JNZ     ??ZDSecMgrSaveApsLinkKey_1
   4476                  {
   4477                    pKeyData->txFrmCntr = ApsLinkKeyFrmCntr[i].txFrmCntr;
   \   00005B   EE           MOV     A,R6
   \   00005C   F8           MOV     R0,A
   \   00005D   EF           MOV     A,R7
   \   00005E   F9           MOV     R1,A
   \   00005F   E8           MOV     A,R0
   \   000060   12....       LCALL   ?Subroutine88 & 0xFFFF
   \                     ??CrossCallReturnLabel_138:
   \   000063   88..         MOV     ?V0 + 0,R0
   \   000065   89..         MOV     ?V0 + 1,R1
   \   000067   8882         MOV     DPL,R0
   \   000069   F583         MOV     DPH,A
   \   00006B   12....       LCALL   ?XLOAD_R2345
   \   00006E   E5..         MOV     A,?V0 + 2
   \   000070   2410         ADD     A,#0x10
   \   000072   F582         MOV     DPL,A
   \   000074   E5..         MOV     A,?V0 + 3
   \   000076   12....       LCALL   ??Subroutine165_0 & 0xFFFF
   \                     ??CrossCallReturnLabel_390:
   \   000079   12....       LCALL   ?XSTORE_R2345
   4478                    pKeyData->rxFrmCntr = ApsLinkKeyFrmCntr[i].rxFrmCntr;
   \   00007C   8882         MOV     DPL,R0
   \   00007E   8983         MOV     DPH,R1
   \   000080   A3           INC     DPTR
   \   000081   A3           INC     DPTR
   \   000082   A3           INC     DPTR
   \   000083   A3           INC     DPTR
   \   000084   12....       LCALL   ?XLOAD_R2345
   \   000087   E5..         MOV     A,?V0 + 2
   \   000089   2414         ADD     A,#0x14
   \   00008B   F582         MOV     DPL,A
   \   00008D   E5..         MOV     A,?V0 + 3
   \   00008F   12....       LCALL   ??Subroutine165_0 & 0xFFFF
   \                     ??CrossCallReturnLabel_391:
   \   000092   12....       LCALL   ?XSTORE_R2345
   4479          
   4480                    // Write the APS link key back to the NV
   4481                    osal_nv_write(ZCD_NV_APS_LINK_KEY_DATA_START + i, 0,
   4482                                  sizeof(APSME_LinkKeyData_t), pKeyData);
   \   000095                ; Setup parameters for call to function osal_nv_write
   \   000095   78..         MOV     R0,#?V0 + 2
   \   000097   12....       LCALL   ?PUSH_XSTACK_I_TWO
   \   00009A   75..18       MOV     ?V0 + 4,#0x18
   \   00009D   75..00       MOV     ?V0 + 5,#0x0
   \   0000A0   78..         MOV     R0,#?V0 + 4
   \   0000A2   12....       LCALL   ?PUSH_XSTACK_I_TWO
   \   0000A5   12....       LCALL   ?Subroutine40 & 0xFFFF
   \                     ??CrossCallReturnLabel_184:
   \   0000A8   12....       LCALL   ?DEALLOC_XSTACK8
   4483          
   4484                    // clear the pending write flag
   4485                    ApsLinkKeyFrmCntr[i].pendingFlag = FALSE;
   \   0000AB   85..82       MOV     DPL,?V0 + 0
   \   0000AE   85..83       MOV     DPH,?V0 + 1
   \   0000B1   A3           INC     DPTR
   \   0000B2   A3           INC     DPTR
   \   0000B3   A3           INC     DPTR
   \   0000B4   A3           INC     DPTR
   \   0000B5   A3           INC     DPTR
   \   0000B6   A3           INC     DPTR
   \   0000B7   A3           INC     DPTR
   \   0000B8   A3           INC     DPTR
   \   0000B9   E4           CLR     A
   \   0000BA   F0           MOVX    @DPTR,A
   4486                  }
   4487                }
   4488              }
   \                     ??ZDSecMgrSaveApsLinkKey_1:
   \   0000BB   12....       LCALL   ?Subroutine39 & 0xFFFF
   \                     ??CrossCallReturnLabel_62:
   \   0000BE   A2D2         MOV     C,0xD0 /* PSW */.2
   \   0000C0   65D0         XRL     A,PSW
   \   0000C2   33           RLC     A
   \   0000C3   5003         JNC     $+5
   \   0000C5   02....       LJMP    ??ZDSecMgrSaveApsLinkKey_0 & 0xFFFF
   4489          
   4490              // clear copy of key in RAM
   4491              osal_memset( pKeyData, 0x00, sizeof(APSME_LinkKeyData_t) );
   \   0000C8                ; Setup parameters for call to function osal_memset
   \   0000C8   12....       LCALL   ?Subroutine42 & 0xFFFF
   4492          
   4493              osal_mem_free(pKeyData);
   4494            }
   4495          }
   \                     ??CrossCallReturnLabel_67:
   \   0000CB   02....       LJMP    ?Subroutine2 & 0xFFFF
   4496          
   4497          /******************************************************************************
   4498           * @fn          ZDSecMgrSaveTCLinkKey
   4499           *
   4500           * @brief       Save TC Link Key to NV. It will loop through all the keys
   4501           *              to see which one to save.
   4502           *
   4503           * @param       none
   4504           *
   4505           * @return      none
   4506           */

   \                                 In  segment BANKED_CODE, align 1, keep-with-next
   4507          void ZDSecMgrSaveTCLinkKey(void)
   \                     ZDSecMgrSaveTCLinkKey:
   4508          {
   \   000000   74F4         MOV     A,#-0xc
   \   000002   12....       LCALL   ?BANKED_ENTER_XDATA
   \   000005                ; Saved register size: 12
   \   000005                ; Auto size: 0
   4509            APSME_TCLinkKey_t *pKeyData = NULL;
   4510            uint16 i;
   4511          
   4512            pKeyData = (APSME_TCLinkKey_t *)osal_mem_alloc(sizeof(APSME_TCLinkKey_t));
   \   000005                ; Setup parameters for call to function osal_mem_alloc
   \   000005   7A20         MOV     R2,#0x20
   \   000007   12....       LCALL   ?Subroutine85 & 0xFFFF
   4513          
   4514            if (pKeyData != NULL)
   \                     ??CrossCallReturnLabel_134:
   \   00000A   607A         JZ      ??ZDSecMgrSaveTCLinkKey_0
   4515            {
   4516              for( i = 0; i < ZDSECMGR_TC_DEVICE_MAX; i++ )
   4517              {
   4518                if (TCLinkKeyFrmCntr[i].pendingFlag == TRUE)
   \   00000C   90....       MOV     DPTR,#TCLinkKeyFrmCntr + 8
   \   00000F   E0           MOVX    A,@DPTR
   \   000010   6401         XRL     A,#0x1
   \   000012   705E         JNZ     ??ZDSecMgrSaveTCLinkKey_1
   4519                {
   4520                  if (osal_nv_read(ZCD_NV_TCLK_TABLE_START + i, 0,
   4521                                   sizeof(APSME_TCLinkKey_t), pKeyData) == SUCCESS)
   \   000014                ; Setup parameters for call to function osal_nv_read
   \   000014   78..         MOV     R0,#?V0 + 0
   \   000016   12....       LCALL   ?PUSH_XSTACK_I_TWO
   \   000019   75..20       MOV     ?V0 + 2,#0x20
   \   00001C   75..00       MOV     ?V0 + 3,#0x0
   \   00001F   78..         MOV     R0,#?V0 + 2
   \   000021   12....       LCALL   ?PUSH_XSTACK_I_TWO
   \   000024   12....       LCALL   ?Subroutine82 & 0xFFFF
   \                     ??CrossCallReturnLabel_377:
   \   000027   12....       LCALL   ?DEALLOC_XSTACK8
   \   00002A   E9           MOV     A,R1
   \   00002B   7045         JNZ     ??ZDSecMgrSaveTCLinkKey_1
   4522                  {
   4523                    pKeyData->txFrmCntr = TCLinkKeyFrmCntr[i].txFrmCntr;
   \   00002D   90....       MOV     DPTR,#TCLinkKeyFrmCntr
   \   000030   12....       LCALL   ?XLOAD_R2345
   \   000033   E5..         MOV     A,?V0 + 0
   \   000035   2418         ADD     A,#0x18
   \   000037   F582         MOV     DPL,A
   \   000039   E5..         MOV     A,?V0 + 1
   \   00003B   12....       LCALL   ??Subroutine165_0 & 0xFFFF
   \                     ??CrossCallReturnLabel_392:
   \   00003E   12....       LCALL   ?XSTORE_R2345
   4524                    pKeyData->rxFrmCntr = TCLinkKeyFrmCntr[i].rxFrmCntr;
   \   000041   90....       MOV     DPTR,#TCLinkKeyFrmCntr + 4
   \   000044   12....       LCALL   ?XLOAD_R2345
   \   000047   E5..         MOV     A,?V0 + 0
   \   000049   241C         ADD     A,#0x1c
   \   00004B   F582         MOV     DPL,A
   \   00004D   E5..         MOV     A,?V0 + 1
   \   00004F   12....       LCALL   ??Subroutine165_0 & 0xFFFF
   \                     ??CrossCallReturnLabel_393:
   \   000052   12....       LCALL   ?XSTORE_R2345
   4525          
   4526                    // Write the TC link key back to the NV
   4527                    osal_nv_write(ZCD_NV_TCLK_TABLE_START + i, 0,
   4528                                  sizeof(APSME_TCLinkKey_t), pKeyData);
   \   000055                ; Setup parameters for call to function osal_nv_write
   \   000055   78..         MOV     R0,#?V0 + 0
   \   000057   12....       LCALL   ?PUSH_XSTACK_I_TWO
   \   00005A   78..         MOV     R0,#?V0 + 2
   \   00005C   12....       LCALL   ?PUSH_XSTACK_I_TWO
   \   00005F   7C00         MOV     R4,#0x0
   \   000061   7D00         MOV     R5,#0x0
   \   000063   7A01         MOV     R2,#0x1
   \   000065   7B01         MOV     R3,#0x1
   \   000067   12....       LCALL   ??Subroutine122_0 & 0xFFFF
   \                     ??CrossCallReturnLabel_197:
   \   00006A   12....       LCALL   ?DEALLOC_XSTACK8
   4529          
   4530                    // clear the pending write flag
   4531                    TCLinkKeyFrmCntr[i].pendingFlag = FALSE;
   \   00006D   90....       MOV     DPTR,#TCLinkKeyFrmCntr + 8
   \   000070   E4           CLR     A
   \   000071   F0           MOVX    @DPTR,A
   4532                  }
   4533                }
   4534              }
   4535                // clear copy of key in RAM
   4536              osal_memset( pKeyData, 0x00, sizeof(APSME_TCLinkKey_t) );
   \                     ??ZDSecMgrSaveTCLinkKey_1:
   \   000072                ; Setup parameters for call to function osal_memset
   \   000072   7C20         MOV     R4,#0x20
   \   000074   7D00         MOV     R5,#0x0
   \   000076   7900         MOV     R1,#0x0
   \   000078   AA..         MOV     R2,?V0 + 0
   \   00007A   AB..         MOV     R3,?V0 + 1
   \   00007C   12....       LCALL   ??osal_memset?relay
   4537          
   4538              osal_mem_free(pKeyData);
   \   00007F                ; Setup parameters for call to function osal_mem_free
   \   00007F   AA..         MOV     R2,?V0 + 0
   \   000081   AB..         MOV     R3,?V0 + 1
   \   000083   12....       LCALL   ??osal_mem_free?relay
   4539            }
   4540          }
   \                     ??ZDSecMgrSaveTCLinkKey_0:
   \   000086   02....       LJMP    ??Subroutine158_0 & 0xFFFF

   \                                 In  segment XDATA_ID, align 1, keep-with-next
   \                     `?<Initializer for ZDSecMgrAppKeyType>`:
   \   000000   03           DB 3

   \                                 In  segment XDATA_ROM_C, align 1
   \                     __Constant_0:
   \   000000   00000000     DD 0

   \                                 In  segment XDATA_ROM_C, align 1
   \                     __Constant_1:
   \   000000   01000000     DD 1

   \                                 In  segment BANK_RELAYS, align 1
   \                     ??ZDSecMgrMasterKeyInit?relay:
   \   000000   12....       LCALL   ?BDISPATCH
   \   000003   ......       DC24    ZDSecMgrMasterKeyInit

   \                                 In  segment BANK_RELAYS, align 1
   \                     ??ZDSecMgrAddrStore?relay:
   \   000000   12....       LCALL   ?BDISPATCH
   \   000003   ......       DC24    ZDSecMgrAddrStore

   \                                 In  segment BANK_RELAYS, align 1
   \                     ??ZDSecMgrExtAddrStore?relay:
   \   000000   12....       LCALL   ?BDISPATCH
   \   000003   ......       DC24    ZDSecMgrExtAddrStore

   \                                 In  segment BANK_RELAYS, align 1
   \                     ??ZDSecMgrExtAddrLookup?relay:
   \   000000   12....       LCALL   ?BDISPATCH
   \   000003   ......       DC24    ZDSecMgrExtAddrLookup

   \                                 In  segment BANK_RELAYS, align 1
   \                     ??ZDSecMgrAddrClear?relay:
   \   000000   12....       LCALL   ?BDISPATCH
   \   000003   ......       DC24    ZDSecMgrAddrClear

   \                                 In  segment BANK_RELAYS, align 1
   \                     ??ZDSecMgrMasterKeyLookup?relay:
   \   000000   12....       LCALL   ?BDISPATCH
   \   000003   ......       DC24    ZDSecMgrMasterKeyLookup

   \                                 In  segment BANK_RELAYS, align 1
   \                     ??ZDSecMgrMasterKeyStore?relay:
   \   000000   12....       LCALL   ?BDISPATCH
   \   000003   ......       DC24    ZDSecMgrMasterKeyStore

   \                                 In  segment BANK_RELAYS, align 1
   \                     ??ZDSecMgrEntryInit?relay:
   \   000000   12....       LCALL   ?BDISPATCH
   \   000003   ......       DC24    ZDSecMgrEntryInit

   \                                 In  segment BANK_RELAYS, align 1
   \                     ??ZDSecMgrEntryLookup?relay:
   \   000000   12....       LCALL   ?BDISPATCH
   \   000003   ......       DC24    ZDSecMgrEntryLookup

   \                                 In  segment BANK_RELAYS, align 1
   \                     ??ZDSecMgrEntryLookupAMI?relay:
   \   000000   12....       LCALL   ?BDISPATCH
   \   000003   ......       DC24    ZDSecMgrEntryLookupAMI

   \                                 In  segment BANK_RELAYS, align 1
   \                     ??ZDSecMgrEntryLookupExt?relay:
   \   000000   12....       LCALL   ?BDISPATCH
   \   000003   ......       DC24    ZDSecMgrEntryLookupExt

   \                                 In  segment BANK_RELAYS, align 1
   \                     ??ZDSecMgrEntryLookupExtGetIndex?relay:
   \   000000   12....       LCALL   ?BDISPATCH
   \   000003   ......       DC24    ZDSecMgrEntryLookupExtGetIndex

   \                                 In  segment BANK_RELAYS, align 1
   \                     ??ZDSecMgrEntryLookupAMIGetIndex?relay:
   \   000000   12....       LCALL   ?BDISPATCH
   \   000003   ......       DC24    ZDSecMgrEntryLookupAMIGetIndex

   \                                 In  segment BANK_RELAYS, align 1
   \                     ??ZDSecMgrEntryFree?relay:
   \   000000   12....       LCALL   ?BDISPATCH
   \   000003   ......       DC24    ZDSecMgrEntryFree

   \                                 In  segment BANK_RELAYS, align 1
   \                     ??ZDSecMgrEntryNew?relay:
   \   000000   12....       LCALL   ?BDISPATCH
   \   000003   ......       DC24    ZDSecMgrEntryNew

   \                                 In  segment BANK_RELAYS, align 1
   \                     ??ZDSecMgrCtrlInit?relay:
   \   000000   12....       LCALL   ?BDISPATCH
   \   000003   ......       DC24    ZDSecMgrCtrlInit

   \                                 In  segment BANK_RELAYS, align 1
   \                     ??ZDSecMgrCtrlRelease?relay:
   \   000000   12....       LCALL   ?BDISPATCH
   \   000003   ......       DC24    ZDSecMgrCtrlRelease

   \                                 In  segment BANK_RELAYS, align 1
   \                     ??ZDSecMgrCtrlLookup?relay:
   \   000000   12....       LCALL   ?BDISPATCH
   \   000003   ......       DC24    ZDSecMgrCtrlLookup

   \                                 In  segment BANK_RELAYS, align 1
   \                     ??ZDSecMgrCtrlSet?relay:
   \   000000   12....       LCALL   ?BDISPATCH
   \   000003   ......       DC24    ZDSecMgrCtrlSet

   \                                 In  segment BANK_RELAYS, align 1
   \                     ??ZDSecMgrCtrlAdd?relay:
   \   000000   12....       LCALL   ?BDISPATCH
   \   000003   ......       DC24    ZDSecMgrCtrlAdd

   \                                 In  segment BANK_RELAYS, align 1
   \                     ??ZDSecMgrCtrlTerm?relay:
   \   000000   12....       LCALL   ?BDISPATCH
   \   000003   ......       DC24    ZDSecMgrCtrlTerm

   \                                 In  segment BANK_RELAYS, align 1
   \                     ??ZDSecMgrCtrlReset?relay:
   \   000000   12....       LCALL   ?BDISPATCH
   \   000003   ......       DC24    ZDSecMgrCtrlReset

   \                                 In  segment BANK_RELAYS, align 1
   \                     ??ZDSecMgrMasterKeyLoad?relay:
   \   000000   12....       LCALL   ?BDISPATCH
   \   000003   ......       DC24    ZDSecMgrMasterKeyLoad

   \                                 In  segment BANK_RELAYS, align 1
   \                     ??ZDSecMgrAppKeyGet?relay:
   \   000000   12....       LCALL   ?BDISPATCH
   \   000003   ......       DC24    ZDSecMgrAppKeyGet

   \                                 In  segment BANK_RELAYS, align 1
   \                     ??ZDSecMgrAppKeyReq?relay:
   \   000000   12....       LCALL   ?BDISPATCH
   \   000003   ......       DC24    ZDSecMgrAppKeyReq

   \                                 In  segment BANK_RELAYS, align 1
   \                     ??ZDSecMgrEstablishKey?relay:
   \   000000   12....       LCALL   ?BDISPATCH
   \   000003   ......       DC24    ZDSecMgrEstablishKey

   \                                 In  segment BANK_RELAYS, align 1
   \                     ??ZDSecMgrSendMasterKey?relay:
   \   000000   12....       LCALL   ?BDISPATCH
   \   000003   ......       DC24    ZDSecMgrSendMasterKey

   \                                 In  segment BANK_RELAYS, align 1
   \                     ??ZDSecMgrSendNwkKey?relay:
   \   000000   12....       LCALL   ?BDISPATCH
   \   000003   ......       DC24    ZDSecMgrSendNwkKey

   \                                 In  segment BANK_RELAYS, align 1
   \                     ??ZDSecMgrDeviceEntryRemove?relay:
   \   000000   12....       LCALL   ?BDISPATCH
   \   000003   ......       DC24    ZDSecMgrDeviceEntryRemove

   \                                 In  segment BANK_RELAYS, align 1
   \                     ??ZDSecMgrDeviceRemoveByExtAddr?relay:
   \   000000   12....       LCALL   ?BDISPATCH
   \   000003   ......       DC24    ZDSecMgrDeviceRemoveByExtAddr

   \                                 In  segment BANK_RELAYS, align 1
   \                     ??ZDSecMgrAddrMgrUpdate?relay:
   \   000000   12....       LCALL   ?BDISPATCH
   \   000003   ......       DC24    ZDSecMgrAddrMgrUpdate

   \                                 In  segment BANK_RELAYS, align 1
   \                     ??ZDSecMgrDeviceEntryAdd?relay:
   \   000000   12....       LCALL   ?BDISPATCH
   \   000003   ......       DC24    ZDSecMgrDeviceEntryAdd

   \                                 In  segment BANK_RELAYS, align 1
   \                     ??ZDSecMgrDeviceCtrlHandler?relay:
   \   000000   12....       LCALL   ?BDISPATCH
   \   000003   ......       DC24    ZDSecMgrDeviceCtrlHandler

   \                                 In  segment BANK_RELAYS, align 1
   \                     ??ZDSecMgrDeviceCtrlSetup?relay:
   \   000000   12....       LCALL   ?BDISPATCH
   \   000003   ......       DC24    ZDSecMgrDeviceCtrlSetup

   \                                 In  segment BANK_RELAYS, align 1
   \                     ??ZDSecMgrDeviceCtrlUpdate?relay:
   \   000000   12....       LCALL   ?BDISPATCH
   \   000003   ......       DC24    ZDSecMgrDeviceCtrlUpdate

   \                                 In  segment BANK_RELAYS, align 1
   \                     ??APSME_SKA_TimerExpired?relay:
   \   000000   12....       LCALL   ?BDISPATCH
   \   000003   ......       DC24    APSME_SKA_TimerExpired

   \                                 In  segment BANK_RELAYS, align 1
   \                     ??ZDSecMgrDeviceRemove?relay:
   \   000000   12....       LCALL   ?BDISPATCH
   \   000003   ......       DC24    ZDSecMgrDeviceRemove

   \                                 In  segment BANK_RELAYS, align 1
   \                     ??ZDSecMgrDeviceValidateSKKE?relay:
   \   000000   12....       LCALL   ?BDISPATCH
   \   000003   ......       DC24    ZDSecMgrDeviceValidateSKKE

   \                                 In  segment BANK_RELAYS, align 1
   \                     ??ZDSecMgrDeviceValidateRM?relay:
   \   000000   12....       LCALL   ?BDISPATCH
   \   000003   ......       DC24    ZDSecMgrDeviceValidateRM

   \                                 In  segment BANK_RELAYS, align 1
   \                     ??ZDSecMgrDeviceValidateCM?relay:
   \   000000   12....       LCALL   ?BDISPATCH
   \   000003   ......       DC24    ZDSecMgrDeviceValidateCM

   \                                 In  segment BANK_RELAYS, align 1
   \                     ??ZDSecMgrDeviceValidate?relay:
   \   000000   12....       LCALL   ?BDISPATCH
   \   000003   ......       DC24    ZDSecMgrDeviceValidate

   \                                 In  segment BANK_RELAYS, align 1
   \                     ??ZDSecMgrDeviceJoin?relay:
   \   000000   12....       LCALL   ?BDISPATCH
   \   000003   ......       DC24    ZDSecMgrDeviceJoin

   \                                 In  segment BANK_RELAYS, align 1
   \                     ??ZDSecMgrDeviceJoinDirect?relay:
   \   000000   12....       LCALL   ?BDISPATCH
   \   000003   ......       DC24    ZDSecMgrDeviceJoinDirect

   \                                 In  segment BANK_RELAYS, align 1
   \                     ??ZDSecMgrDeviceJoinFwd?relay:
   \   000000   12....       LCALL   ?BDISPATCH
   \   000003   ......       DC24    ZDSecMgrDeviceJoinFwd

   \                                 In  segment BANK_RELAYS, align 1
   \                     ??ZDSecMgrDeviceNew?relay:
   \   000000   12....       LCALL   ?BDISPATCH
   \   000003   ......       DC24    ZDSecMgrDeviceNew

   \                                 In  segment BANK_RELAYS, align 1
   \                     ??ZDSecMgrAssocDeviceAuth?relay:
   \   000000   12....       LCALL   ?BDISPATCH
   \   000003   ......       DC24    ZDSecMgrAssocDeviceAuth

   \                                 In  segment BANK_RELAYS, align 1
   \                     ??ZDSecMgrAuthInitiate?relay:
   \   000000   12....       LCALL   ?BDISPATCH
   \   000003   ......       DC24    ZDSecMgrAuthInitiate

   \                                 In  segment BANK_RELAYS, align 1
   \                     ??ZDSecMgrAuthNwkKey?relay:
   \   000000   12....       LCALL   ?BDISPATCH
   \   000003   ......       DC24    ZDSecMgrAuthNwkKey

   \                                 In  segment BANK_RELAYS, align 1
   \                     ??ZDSecMgrInit?relay:
   \   000000   12....       LCALL   ?BDISPATCH
   \   000003   ......       DC24    ZDSecMgrInit

   \                                 In  segment BANK_RELAYS, align 1
   \                     ??ZDSecMgrConfig?relay:
   \   000000   12....       LCALL   ?BDISPATCH
   \   000003   ......       DC24    ZDSecMgrConfig

   \                                 In  segment BANK_RELAYS, align 1
   \                     ??ZDSecMgrPermitJoining?relay:
   \   000000   12....       LCALL   ?BDISPATCH
   \   000003   ......       DC24    ZDSecMgrPermitJoining

   \                                 In  segment BANK_RELAYS, align 1
   \                     ??ZDSecMgrPermitJoiningTimeout?relay:
   \   000000   12....       LCALL   ?BDISPATCH
   \   000003   ......       DC24    ZDSecMgrPermitJoiningTimeout

   \                                 In  segment BANK_RELAYS, align 1
   \                     ??ZDSecMgrNewDeviceEvent?relay:
   \   000000   12....       LCALL   ?BDISPATCH
   \   000003   ......       DC24    ZDSecMgrNewDeviceEvent

   \                                 In  segment BANK_RELAYS, align 1
   \                     ??ZDSecMgrEvent?relay:
   \   000000   12....       LCALL   ?BDISPATCH
   \   000003   ......       DC24    ZDSecMgrEvent

   \                                 In  segment BANK_RELAYS, align 1
   \                     ??ZDSecMgrEstablishKeyCfm?relay:
   \   000000   12....       LCALL   ?BDISPATCH
   \   000003   ......       DC24    ZDSecMgrEstablishKeyCfm

   \                                 In  segment BANK_RELAYS, align 1
   \                     ??ZDSecMgrTCExtAddrCheck?relay:
   \   000000   12....       LCALL   ?BDISPATCH
   \   000003   ......       DC24    ZDSecMgrTCExtAddrCheck

   \                                 In  segment BANK_RELAYS, align 1
   \                     ??ZDSecMgrTCDataLoad?relay:
   \   000000   12....       LCALL   ?BDISPATCH
   \   000003   ......       DC24    ZDSecMgrTCDataLoad

   \                                 In  segment BANK_RELAYS, align 1
   \                     ??ZDSecMgrEstablishKeyInd?relay:
   \   000000   12....       LCALL   ?BDISPATCH
   \   000003   ......       DC24    ZDSecMgrEstablishKeyInd

   \                                 In  segment BANK_RELAYS, align 1
   \                     ??ZDSecMgrTransportKeyInd?relay:
   \   000000   12....       LCALL   ?BDISPATCH
   \   000003   ......       DC24    ZDSecMgrTransportKeyInd

   \                                 In  segment BANK_RELAYS, align 1
   \                     ??ZDSecMgrUpdateDeviceInd?relay:
   \   000000   12....       LCALL   ?BDISPATCH
   \   000003   ......       DC24    ZDSecMgrUpdateDeviceInd

   \                                 In  segment BANK_RELAYS, align 1
   \                     ??ZDSecMgrRemoveDeviceInd?relay:
   \   000000   12....       LCALL   ?BDISPATCH
   \   000003   ......       DC24    ZDSecMgrRemoveDeviceInd

   \                                 In  segment BANK_RELAYS, align 1
   \                     ??ZDSecMgrRequestKeyInd?relay:
   \   000000   12....       LCALL   ?BDISPATCH
   \   000003   ......       DC24    ZDSecMgrRequestKeyInd

   \                                 In  segment BANK_RELAYS, align 1
   \                     ??ZDSecMgrSwitchKeyInd?relay:
   \   000000   12....       LCALL   ?BDISPATCH
   \   000003   ......       DC24    ZDSecMgrSwitchKeyInd

   \                                 In  segment BANK_RELAYS, align 1
   \                     ??ZDSecMgrAuthenticateInd?relay:
   \   000000   12....       LCALL   ?BDISPATCH
   \   000003   ......       DC24    ZDSecMgrAuthenticateInd

   \                                 In  segment BANK_RELAYS, align 1
   \                     ??ZDSecMgrAuthenticateCfm?relay:
   \   000000   12....       LCALL   ?BDISPATCH
   \   000003   ......       DC24    ZDSecMgrAuthenticateCfm

   \                                 In  segment BANK_RELAYS, align 1
   \                     ??ZDSecMgrUpdateNwkKey?relay:
   \   000000   12....       LCALL   ?BDISPATCH
   \   000003   ......       DC24    ZDSecMgrUpdateNwkKey

   \                                 In  segment BANK_RELAYS, align 1
   \                     ??ZDSecMgrSwitchNwkKey?relay:
   \   000000   12....       LCALL   ?BDISPATCH
   \   000003   ......       DC24    ZDSecMgrSwitchNwkKey

   \                                 In  segment BANK_RELAYS, align 1
   \                     ??ZDSecMgrRequestAppKey?relay:
   \   000000   12....       LCALL   ?BDISPATCH
   \   000003   ......       DC24    ZDSecMgrRequestAppKey

   \                                 In  segment BANK_RELAYS, align 1
   \                     ??ZDSecMgrAppKeyTypeSet?relay:
   \   000000   12....       LCALL   ?BDISPATCH
   \   000003   ......       DC24    ZDSecMgrAppKeyTypeSet

   \                                 In  segment BANK_RELAYS, align 1
   \                     ??APSME_MasterKeyGet?relay:
   \   000000   12....       LCALL   ?BDISPATCH
   \   000003   ......       DC24    APSME_MasterKeyGet

   \                                 In  segment BANK_RELAYS, align 1
   \                     ??APSME_LinkKeySet?relay:
   \   000000   12....       LCALL   ?BDISPATCH
   \   000003   ......       DC24    APSME_LinkKeySet

   \                                 In  segment BANK_RELAYS, align 1
   \                     ??ZDSecMgrAuthenticationSet?relay:
   \   000000   12....       LCALL   ?BDISPATCH
   \   000003   ......       DC24    ZDSecMgrAuthenticationSet

   \                                 In  segment BANK_RELAYS, align 1
   \                     ??ZDSecMgrAuthenticationCheck?relay:
   \   000000   12....       LCALL   ?BDISPATCH
   \   000003   ......       DC24    ZDSecMgrAuthenticationCheck

   \                                 In  segment BANK_RELAYS, align 1
   \                     ??APSME_LinkKeyNVIdGet?relay:
   \   000000   12....       LCALL   ?BDISPATCH
   \   000003   ......       DC24    APSME_LinkKeyNVIdGet

   \                                 In  segment BANK_RELAYS, align 1
   \                     ??APSME_IsLinkKeyValid?relay:
   \   000000   12....       LCALL   ?BDISPATCH
   \   000003   ......       DC24    APSME_IsLinkKeyValid

   \                                 In  segment BANK_RELAYS, align 1
   \                     ??APSME_KeyFwdToChild?relay:
   \   000000   12....       LCALL   ?BDISPATCH
   \   000003   ......       DC24    APSME_KeyFwdToChild

   \                                 In  segment BANK_RELAYS, align 1
   \                     ??ZDSecMgrAddLinkKey?relay:
   \   000000   12....       LCALL   ?BDISPATCH
   \   000003   ......       DC24    ZDSecMgrAddLinkKey

   \                                 In  segment BANK_RELAYS, align 1
   \                     ??ZDSecMgrSetDefaultNV?relay:
   \   000000   12....       LCALL   ?BDISPATCH
   \   000003   ......       DC24    ZDSecMgrSetDefaultNV

   \                                 In  segment BANK_RELAYS, align 1
   \                     ??ZDSecMgrAPSRemove?relay:
   \   000000   12....       LCALL   ?BDISPATCH
   \   000003   ......       DC24    ZDSecMgrAPSRemove

   \                                 In  segment BANK_RELAYS, align 1
   \                     ??APSME_TCLinkKeyInit?relay:
   \   000000   12....       LCALL   ?BDISPATCH
   \   000003   ......       DC24    APSME_TCLinkKeyInit

   \                                 In  segment BANK_RELAYS, align 1
   \                     ??APSME_TCLinkKeySync?relay:
   \   000000   12....       LCALL   ?BDISPATCH
   \   000003   ......       DC24    APSME_TCLinkKeySync

   \                                 In  segment BANK_RELAYS, align 1
   \                     ??APSME_TCLinkKeyLoad?relay:
   \   000000   12....       LCALL   ?BDISPATCH
   \   000003   ......       DC24    APSME_TCLinkKeyLoad

   \                                 In  segment BANK_RELAYS, align 1
   \                     ??APSME_IsDefaultTCLK?relay:
   \   000000   12....       LCALL   ?BDISPATCH
   \   000003   ......       DC24    APSME_IsDefaultTCLK

   \                                 In  segment BANK_RELAYS, align 1
   \                     ??ZDSecMgrNwkKeyInit?relay:
   \   000000   12....       LCALL   ?BDISPATCH
   \   000003   ......       DC24    ZDSecMgrNwkKeyInit

   \                                 In  segment BANK_RELAYS, align 1
   \                     ??ZDSecMgrReadKeyFromNv?relay:
   \   000000   12....       LCALL   ?BDISPATCH
   \   000003   ......       DC24    ZDSecMgrReadKeyFromNv

   \                                 In  segment BANK_RELAYS, align 1
   \                     ??ZDSecMgrApsLinkKeyInit?relay:
   \   000000   12....       LCALL   ?BDISPATCH
   \   000003   ......       DC24    ZDSecMgrApsLinkKeyInit

   \                                 In  segment BANK_RELAYS, align 1
   \                     ??ZDSecMgrInitNVKeyTables?relay:
   \   000000   12....       LCALL   ?BDISPATCH
   \   000003   ......       DC24    ZDSecMgrInitNVKeyTables

   \                                 In  segment BANK_RELAYS, align 1
   \                     ??ZDSecMgrSaveApsLinkKey?relay:
   \   000000   12....       LCALL   ?BDISPATCH
   \   000003   ......       DC24    ZDSecMgrSaveApsLinkKey

   \                                 In  segment BANK_RELAYS, align 1
   \                     ??ZDSecMgrSaveTCLinkKey?relay:
   \   000000   12....       LCALL   ?BDISPATCH
   \   000003   ......       DC24    ZDSecMgrSaveTCLinkKey
   4541          
   4542          #if defined ( ZBA_FALLBACK_NWKKEY )
   4543          /******************************************************************************
   4544           * @fn          ZDSecMgrFallbackNwkKey
   4545           *
   4546           * @brief       Use the ZBA fallback network key.
   4547           *
   4548           * @param       none
   4549           *
   4550           * @return      none
   4551           */
   4552          void ZDSecMgrFallbackNwkKey( void )
   4553          {
   4554            if ( !_NIB.nwkKeyLoaded )
   4555            {
   4556              uint8 fallbackKey[SEC_KEY_LEN];
   4557          
   4558              ZDSecMgrReadKeyFromNv( ZCD_NV_PRECFGKEY, fallbackKey );
   4559              SSP_UpdateNwkKey( fallbackKey, 0);
   4560              SSP_SwitchNwkKey( 0 );
   4561          
   4562              // clear local copy of key
   4563              osal_memset( fallbackKey, 0x00, SEC_KEY_LEN );
   4564          
   4565              // handle next step in authentication process
   4566              ZDSecMgrAuthNwkKey();
   4567            }
   4568          }
   4569          #endif // defined ( ZBA_FALLBACK_NWKKEY )
   4570          
   4571          #if defined ( NV_RESTORE )
   4572          /******************************************************************************
   4573           * @fn          ZDSecMgrClearNVKeyValues
   4574           *
   4575           * @brief       If NV_RESTORE is enabled and the status of the network needs
   4576           *              default values this fuction clears ZCD_NV_NWKKEY,
   4577           *              ZCD_NV_NWK_ACTIVE_KEY_INFO and ZCD_NV_NWK_ALTERN_KEY_INFO link
   4578           *
   4579           * @param       none
   4580           *
   4581           * @return      none
   4582           */
   4583          void ZDSecMgrClearNVKeyValues(void)
   4584          {
   4585            nwkActiveKeyItems keyItems;
   4586            nwkKeyDesc nwkKey;
   4587          
   4588            osal_memset(&keyItems, 0x00, sizeof(nwkActiveKeyItems));
   4589          
   4590            osal_nv_write(ZCD_NV_NWKKEY, 0, sizeof(nwkActiveKeyItems), &keyItems);
   4591          
   4592            // Initialize NV items for NWK Active and Alternate keys.
   4593            osal_memset( &nwkKey, 0x00, sizeof(nwkKeyDesc) );
   4594          
   4595            osal_nv_write(ZCD_NV_NWK_ACTIVE_KEY_INFO, 0, sizeof(nwkKeyDesc), &nwkKey);
   4596          
   4597            osal_nv_write(ZCD_NV_NWK_ALTERN_KEY_INFO, 0, sizeof(nwkKeyDesc), &nwkKey);
   4598          }
   4599          #endif // defined ( NV_RESTORE )
   4600          
   4601          /******************************************************************************
   4602          ******************************************************************************/

   Maximum stack usage in bytes:

     Function                       ISTACK PSTACK XSTACK
     --------                       ------ ------ ------
     APSME_IsDefaultTCLK                2      0     61
     APSME_IsLinkKeyValid               0      0     37
       -> osal_memset                   0      0     66
       -> APSME_LinkKeyNVIdGet          0      0     66
       -> osal_mem_alloc                0      0     66
       -> osal_nv_read                  0      0     74
       -> osal_memcmp                   0      0     72
       -> osal_memset                   0      0     66
       -> osal_mem_free                 0      0     66
     APSME_KeyFwdToChild                2      0      0
       -> AssocGetWithExt               4      0      0
       -> ZDSecMgrAssocDeviceAuth       4      0      0
     APSME_LinkKeyNVIdGet               0      0     44
       -> ZDSecMgrEntryLookupExt        0      0     22
     APSME_LinkKeySet                   0      0     39
       -> ZDSecMgrEntryLookupExtGetIndex
                                        0      0     42
       -> osal_mem_alloc                0      0     38
       -> osal_nv_read                  0      0     46
       -> osal_memcpy                   0      0     44
       -> osal_nv_write                 0      0     46
       -> osal_memset                   0      0     38
       -> osal_mem_free                 0      0     38
     APSME_MasterKeyGet                 0      0     11
       -> ZDSecMgrExtAddrLookup         0      0     22
       -> ZDSecMgrMasterKeyLookup       0      0     22
     APSME_SKA_TimerExpired             0      0      9
       -> ZDSecMgrDeviceCtrlUpdate      0      0     18
     APSME_TCLinkKeyInit                0      0     56
       -> osal_memset                   0      0     86
       -> osal_memset                   0      0     86
       -> osal_memcpy                   0      0     92
       -> osal_nv_item_init             0      0     90
       -> osal_nv_read                  0      0     94
       -> osal_nv_write                 0      0     94
       -> osal_memset                   0      0     86
     APSME_TCLinkKeyLoad                0      0     65
       -> APSME_LookupExtAddr           0      0    122
       -> AddrMgrExtAddrValid           0      0    122
       -> osal_nv_read                  0      0    130
       -> AddrMgrExtAddrEqual           0      0    122
       -> APSME_IsDefaultTCLK           0      0    122
       -> AddrMgrEntryLookupNwk         0      0    122
       -> AddrMgrEntryRelease           0      0    122
       -> osal_memset                   0      0    122
     APSME_TCLinkKeySync                2      0     48
       -> AddrMgrExtAddrValid           0      0     88
       -> APSME_LookupExtAddr           0      0     88
       -> osal_nv_read                  0      0     96
       -> AddrMgrExtAddrEqual           0      0     88
       -> APSME_IsDefaultTCLK           0      0     88
       -> osal_memset                   0      0     88
     ZDSecMgrAPSRemove                  2      0     12
       -> ZDSecMgrDeviceRemove          4      0     20
     ZDSecMgrAddLinkKey                 0      0     20
       -> ZDSecMgrAddrStore             0      0     36
       -> ZDSecMgrEntryLookupAMI        0      0     32
       -> ZDSecMgrEntryNew              0      0     32
       -> APSME_LinkKeySet              0      0     32
     ZDSecMgrAddrClear                  0      0     24
       -> ZDSecMgrExtAddrLookup         0      0     48
       -> AddrMgrEntryRelease           0      0     48
     ZDSecMgrAddrMgrUpdate              0      0     35
       -> AddrMgrEntryGet               0      0     44
       -> AddrMgrEntryUpdate            0      0     44
     ZDSecMgrAddrStore                  0      0     68
       -> AddrMgrExtAddrSet             0      0     44
       -> AddrMgrEntryUpdate            0      0     44
     ZDSecMgrAppKeyGet                  1      0     17
       -> SSP_GetTrueRand               0      0     18
     ZDSecMgrAppKeyReq                  1      0     48
       -> APSME_LookupNwkAddr           0      0     96
       -> APSME_LookupExtAddr           0      0     96
       -> SSP_GetTrueRand               0      0     96
       -> APSME_TransportKeyReq         0      0     96
       -> APSME_TransportKeyReq         0      0     96
       -> osal_memset                   0      0     96
     ZDSecMgrAppKeyTypeSet              2      0      0
     ZDSecMgrApsLinkKeyInit             0      0     47
       -> osal_memset                   0      0     68
       -> osal_nv_item_init             0      0     72
       -> osal_nv_write                 0      0     76
     ZDSecMgrAssocDeviceAuth            2      0     35
     ZDSecMgrAuthInitiate               0      0     16
       -> APSME_LookupNwkAddr           0      0     32
       -> APSME_AuthenticateReq         0      0     32
     ZDSecMgrAuthNwkKey                 2      0     26
       -> osal_set_event                4      0      0
     ZDSecMgrAuthenticateCfm            2      0      0
       -> osal_set_event                4      0      0
     ZDSecMgrAuthenticateInd            0      0     29
       -> AddrMgrExtAddrSet             0      0     58
       -> AddrMgrEntryUpdate            0      0     58
       -> APSME_AuthenticateReq         0      0     58
     ZDSecMgrAuthenticationCheck        0      0      0
     ZDSecMgrAuthenticationSet          1      0     11
       -> ZDSecMgrEntryLookupExt        0      0     22
     ZDSecMgrConfig                     2      0      0
       -> APSME_SecurityNM              4      0      0
     ZDSecMgrCtrlAdd                    0      0     25
       -> ZDSecMgrCtrlSet               0      0     24
     ZDSecMgrCtrlInit                   2      0      0
       -> osal_mem_alloc                4      0      0
     ZDSecMgrCtrlLookup                 0      0     22
     ZDSecMgrCtrlRelease                2      0      0
     ZDSecMgrCtrlReset                  0      0     27
       -> ZDSecMgrCtrlLookup            0      0     24
       -> ZDSecMgrCtrlSet               0      0     28
       -> ZDSecMgrCtrlAdd               0      0     24
     ZDSecMgrCtrlSet                    1      0     23
     ZDSecMgrCtrlTerm                   2      0     11
       -> ZDSecMgrCtrlLookup            4      0      4
     ZDSecMgrDeviceCtrlHandler          1      0     42
       -> ZDSecMgrSendMasterKey         0      0     18
       -> ZDSecMgrEstablishKey          0      0     18
       -> ZDSecMgrSendNwkKey            0      0     18
       -> osal_start_timerEx            0      0     18
     ZDSecMgrDeviceCtrlSetup            2      0      0
       -> ZDSecMgrDeviceCtrlHandler     4      0      0
     ZDSecMgrDeviceCtrlUpdate           0      0     22
       -> ZDSecMgrEntryLookupExt        0      0     26
       -> ZDSecMgrCtrlLookup            0      0     26
     ZDSecMgrDeviceEntryAdd             0      0     43
       -> ZDSecMgrEntryLookup           0      0     26
       -> ZDSecMgrDeviceEntryRemove     0      0     26
       -> ZDSecMgrEntryLookupAMI        0      0     26
       -> ZDSecMgrAddrMgrUpdate         0      0     26
       -> ZDSecMgrEntryLookupAMI        0      0     26
       -> ZDSecMgrEntryNew              0      0     26
       -> ZDSecMgrAddrMgrUpdate         0      0     26
       -> ZDSecMgrCtrlAdd               0      0     26
       -> ZDSecMgrCtrlReset             0      0     26
     ZDSecMgrDeviceEntryRemove          0      0     22
       -> ZDSecMgrCtrlTerm              0      0     18
       -> ZDSecMgrEntryFree             0      0     18
     ZDSecMgrDeviceJoin                 0      0     24
       -> ZDSecMgrDeviceValidate        0      0     24
       -> ZDSecMgrAddrStore             0      0     28
       -> ZDSecMgrSendNwkKey            0      0     24
       -> ZDSecMgrDeviceRemove          0      0     24
     ZDSecMgrDeviceJoinDirect           0      0      9
       -> ZDSecMgrDeviceJoin            0      0     18
       -> AssocGetWithShort             0      0     18
       -> ZDSecMgrAssocDeviceAuth       0      0     18
     ZDSecMgrDeviceJoinFwd              2      0      8
       -> APSME_UpdateDeviceReq         4      0     16
     ZDSecMgrDeviceNew                  2      0     35
       -> ZDSecMgrDeviceJoinDirect      4      0      0
     ZDSecMgrDeviceRemove               0      0     38
       -> NLME_GetShortAddr             0      0     38
       -> AssocGetWithExt               0      0     38
       -> NLME_LeaveReq                 0      0     38
       -> APSME_RemoveDeviceReq         0      0     38
     ZDSecMgrDeviceRemoveByExtAddr      0      0     11
       -> ZDSecMgrEntryLookupExt        0      0     22
       -> ZDSecMgrDeviceEntryRemove     0      0     22
     ZDSecMgrDeviceValidate             2      0     12
       -> ZDSecMgrDeviceValidateRM      4      0      0
     ZDSecMgrDeviceValidateCM           0      0     33
       -> osal_memcpy                   0      0     66
       -> ZDSecMgrAddrStore             0      0     64
       -> ZDSecMgrMasterKeyLoad         0      0     60
       -> ZDSecMgrDeviceEntryAdd        0      0     60
       -> osal_memset                   0      0     60
     ZDSecMgrDeviceValidateRM           2      0      0
     ZDSecMgrDeviceValidateSKKE         0      0     40
       -> ZDSecMgrExtAddrLookup         0      0     26
       -> ZDSecMgrMasterKeyLookup       0      0     26
       -> ZDSecMgrDeviceEntryAdd        0      0     26
     ZDSecMgrEntryFree                  0      0     27
       -> osal_mem_alloc                0      0     28
       -> osal_memset                   0      0     28
       -> osal_nv_write                 0      0     36
       -> osal_mem_free                 0      0     28
     ZDSecMgrEntryInit                  2      0      0
       -> osal_mem_alloc                4      0      0
     ZDSecMgrEntryLookup                0      0     35
       -> AddrMgrEntryLookupNwk         0      0     44
     ZDSecMgrEntryLookupAMI             0      0     25
     ZDSecMgrEntryLookupAMIGetIndex     0      0      9
     ZDSecMgrEntryLookupExt             0      0     24
       -> ZDSecMgrExtAddrLookup         0      0     22
       -> ZDSecMgrEntryLookupAMI        0      0     22
     ZDSecMgrEntryLookupExtGetIndex     0      0     33
       -> ZDSecMgrExtAddrLookup         0      0     24
     ZDSecMgrEntryNew                   0      0     25
     ZDSecMgrEstablishKey               0      0     26
       -> NLME_GetShortAddr             0      0     34
       -> APSME_EstablishKeyReq         0      0     34
     ZDSecMgrEstablishKeyCfm            2      0      0
       -> ZDSecMgrDeviceCtrlUpdate      4      0      0
     ZDSecMgrEstablishKeyInd            1      0     27
       -> ZDSecMgrTCDataLoad            0      0     54
       -> ZDSecMgrTCExtAddrCheck        0      0     54
       -> ZDSecMgrDeviceValidateSKKE
                                        0      0     54
       -> APSME_EstablishKeyRsp         0      0     54
     ZDSecMgrEvent                      1      0     33
       -> AddrMgrEntryGet               0      0     66
       -> ZDSecMgrDeviceCtrlHandler     0      0     66
       -> osal_start_timerEx            0      0     66
     ZDSecMgrExtAddrLookup              0      0     46
       -> AddrMgrExtAddrSet             0      0     44
       -> AddrMgrEntryLookupExt         0      0     44
     ZDSecMgrExtAddrStore               0      0     24
       -> AddrMgrExtAddrSet             0      0     44
       -> AddrMgrEntryUpdate            0      0     44
     ZDSecMgrInit                       2      0      0
       -> APSME_SecurityNM              4      0      0
     ZDSecMgrInitNVKeyTables            0      0      9
       -> ZDSecMgrNwkKeyInit            0      0     18
       -> ZDSecMgrMasterKeyInit         0      0     18
       -> ZDSecMgrApsLinkKeyInit        0      0     18
       -> APSME_TCLinkKeyInit           0      0     18
     ZDSecMgrMasterKeyInit              0      0     41
       -> osal_memset                   0      0     56
       -> osal_nv_item_init             0      0     60
       -> osal_nv_write                 0      0     64
     ZDSecMgrMasterKeyLoad              0      0     48
       -> ZDSecMgrExtAddrLookup         0      0     28
       -> ZDSecMgrMasterKeyLookup       0      0     28
       -> osal_nv_write                 0      0     36
       -> ZDSecMgrMasterKeyStore        0      0     28
     ZDSecMgrMasterKeyLookup            0      0     80
       -> osal_nv_read                  0      0     72
       -> osal_memset                   0      0     64
       -> osal_memset                   0      0     64
     ZDSecMgrMasterKeyStore             0      0     81
       -> osal_nv_read                  0      0     74
       -> osal_memcpy                   0      0     72
       -> osal_memset                   0      0     66
       -> osal_nv_write                 0      0     74
       -> osal_memset                   0      0     66
       -> osal_memset                   0      0     66
     ZDSecMgrNewDeviceEvent             1      0     35
       -> AssocMatchDeviceStatus        0      0     70
       -> ZDSecMgrAssocDeviceAuth       0      0     70
       -> AddrMgrEntryGet               0      0     70
       -> NLME_GetShortAddr             0      0     70
       -> ZDSecMgrDeviceNew             0      0     70
       -> AssocRemove                   0      0     70
     ZDSecMgrNwkKeyInit                 0      0     61
       -> osal_memset                   0      0     96
       -> osal_nv_item_init             0      0    100
       -> osal_nv_write                 0      0    104
       -> osal_memset                   0      0     96
       -> osal_nv_item_init             0      0    100
       -> osal_nv_write                 0      0    104
       -> osal_nv_item_init             0      0    100
       -> osal_nv_write                 0      0    104
     ZDSecMgrPermitJoining              2      0      0
     ZDSecMgrPermitJoiningTimeout       2      0      0
     ZDSecMgrReadKeyFromNv              0      0     40
       -> osal_nv_read                  0      0     28
       -> osal_nv_read                  0      0     28
       -> osal_nv_read                  0      0     28
       -> osal_nv_read                  0      0     28
       -> osal_nv_read                  0      0     28
     ZDSecMgrRemoveDeviceInd            0      0     19
       -> APSME_LookupNwkAddr           0      0     38
       -> NLME_GetShortAddr             0      0     38
       -> ZDSecMgrDeviceRemove          0      0     38
     ZDSecMgrRequestAppKey              2      0      4
       -> APSME_RequestKeyReq           4      0      8
     ZDSecMgrRequestKeyInd              2      0      0
       -> ZDSecMgrAppKeyReq             4      0      0
     ZDSecMgrSaveApsLinkKey             0      0     18
       -> osal_mem_alloc                0      0     28
       -> osal_nv_read                  0      0     36
       -> osal_nv_write                 0      0     36
       -> osal_memset                   0      0     28
       -> osal_mem_free                 0      0     28
     ZDSecMgrSaveTCLinkKey              0      0     16
       -> osal_mem_alloc                0      0     24
       -> osal_nv_read                  0      0     32
       -> osal_nv_write                 0      0     32
       -> osal_memset                   0      0     24
       -> osal_mem_free                 0      0     24
     ZDSecMgrSendMasterKey              0      0     54
       -> ZDSecMgrMasterKeyLookup       0      0     82
       -> osal_nv_read                  0      0     90
       -> osal_memset                   0      0     82
       -> NLME_GetShortAddr             0      0     82
       -> APSME_TransportKeyReq         0      0     82
       -> osal_memset                   0      0     82
     ZDSecMgrSendNwkKey                 1      0     56
       -> NLME_ReadNwkKeyInfo           0      0     88
       -> osal_memset                   0      0     80
       -> NLME_GetShortAddr             0      0     80
       -> NLME_GetShortAddr             0      0     80
       -> APSME_TransportKeyReq         0      0     80
       -> osal_memset                   0      0     80
     ZDSecMgrSetDefaultNV               0      0     23
       -> osal_nv_write                 0      0     46
       -> osal_memset                   0      0     38
       -> osal_nv_write                 0      0     46
       -> osal_mem_alloc                0      0     38
       -> osal_memset                   0      0     38
       -> osal_nv_write                 0      0     46
       -> osal_mem_free                 0      0     38
     ZDSecMgrSwitchKeyInd               2      0      0
       -> SSP_SwitchNwkKey              4      0      0
       -> ZDApp_NVUpdate                4      0      0
     ZDSecMgrSwitchNwkKey               1      0     12
       -> APSME_SwitchKeyReq            0      0     24
       -> SSP_SwitchNwkKey              0      0     24
       -> ZDApp_NVUpdate                0      0     24
     ZDSecMgrTCDataLoad                 0      0     74
       -> AddrMgrEntryLookupNwk         0      0     88
       -> ZDSecMgrAddrStore             0      0     92
       -> ZDSecMgrMasterKeyLookup       0      0     88
       -> osal_memcpy                   0      0     94
       -> ZDSecMgrMasterKeyStore        0      0     88
       -> osal_memset                   0      0     88
     ZDSecMgrTCExtAddrCheck             0      0     44
       -> AddrMgrExtAddrLookup          0      0     34
       -> AddrMgrExtAddrEqual           0      0     34
     ZDSecMgrTransportKeyInd            0      0     26
       -> ZDSecMgrTCDataLoad            0      0     52
       -> ZDSecMgrReadKeyFromNv         0      0     52
       -> SSP_UpdateNwkKey              0      0     52
       -> SSP_SwitchNwkKey              0      0     52
       -> osal_memset                   0      0     52
       -> SSP_UpdateNwkKey              0      0     52
       -> SSP_SwitchNwkKey              0      0     52
       -> ZDSecMgrAuthNwkKey            0      0     52
     ZDSecMgrUpdateDeviceInd            2      0     10
       -> ZDSecMgrDeviceJoin            4      0     20
     ZDSecMgrUpdateNwkKey               1      0     23
       -> APSME_TransportKeyReq         0      0     46
       -> SSP_UpdateNwkKey              0      0     46
       -> ZDApp_NVUpdate                0      0     46


   Segment part sizes:

     Function/Label                         Bytes
     --------------                         -----
     ZDSecMgrTCExtAddr                         8
     ZDSecMgrTCMasterKey                      16
     ZDSecMgrTCAuthenticated                   1
     ZDSecMgrEntries                           2
     ZDSecMgrCtrlData                          2
     ZDSecMgrPermitJoiningEnabled              1
     ZDSecMgrPermitJoiningTimed                1
     TrustCenterLinkKey                       32
     ApsLinkKeyFrmCntr                        27
     TCLinkKeyFrmCntr                          9
     ZDSecMgrMasterKeyInit                   117
     ?Subroutine45                             4
     ??Subroutine118_0                         8
     ??Subroutine121_0                         1
     ??Subroutine122_0                         6
     ??Subroutine134_0                         3
     ??Subroutine135_0                         5
     ?Subroutine39                            16
     ??Subroutine162_0                         6
     ZDSecMgrAddrStore                        55
     ?Subroutine81                            10
     ?Subroutine54                            18
     ?Subroutine32                            13
     ?Subroutine7                              5
     ?Subroutine99                            18
     ?Subroutine13                             4
     ??Subroutine123_0                         5
     ??Subroutine124_0                         6
     ?Subroutine95                             6
     ?Subroutine37                             6
     ??Subroutine146_0                         3
     ??Subroutine147_0                         5
     ?Subroutine108                            4
     ?Subroutine116                            6
     ZDSecMgrExtAddrStore                     54
     ZDSecMgrExtAddrLookup                    61
     ZDSecMgrAddrClear                        61
     ?Subroutine86                            10
     ??Subroutine126_0                         5
     ??Subroutine130_0                         4
     ??Subroutine132_0                         8
     ?Subroutine28                             8
     ZDSecMgrMasterKeyLookup                 152
     ?Subroutine2                              5
     ?Subroutine43                            20
     ?Subroutine41                            22
     ZDSecMgrMasterKeyStore                  240
     ?Subroutine3                              2
     ??Subroutine119_0                         8
     ?Subroutine84                             4
     ??Subroutine137_0                         6
     ZDSecMgrEntryInit                        65
     ??Subroutine125_0                         8
     ?Subroutine83                            30
     ?Subroutine19                             5
     ?Subroutine98                            16
     ?Subroutine107                            6
     ??Subroutine139_0                         7
     ??Subroutine155_0                         4
     ZDSecMgrEntryLookup                     127
     ?Subroutine11                             3
     ?Subroutine38                             4
     ?Subroutine110                            7
     ?Subroutine61                             5
     ?Subroutine105                           13
     ?Subroutine12                             8
     ?Subroutine115                            6
     ??Subroutine148_0                         7
     ??Subroutine152_0                        12
     ZDSecMgrEntryLookupAMI                   64
     ?Subroutine59                            30
     ?Subroutine67                             9
     ?Subroutine106                           13
     ZDSecMgrEntryLookupExt                   49
     ?Subroutine1                              2
     ??Subroutine145_0                         2
     ??Subroutine157_0                         6
     ?Subroutine71                             7
     ZDSecMgrEntryLookupExtGetIndex          117
     ?Subroutine69                            11
     ?Subroutine0                              2
     ??Subroutine150_0                         4
     ??Subroutine160_0                         4
     ZDSecMgrEntryLookupAMIGetIndex           46
     ZDSecMgrEntryFree                        92
     ?Subroutine111                            2
     ??Subroutine133_0                         5
     ?Subroutine87                            13
     ?Subroutine36                            10
     ?Subroutine80                            15
     ZDSecMgrEntryNew                        115
     ?Subroutine58                             4
     ?Subroutine103                           15
     ZDSecMgrCtrlInit                         66
     ?Subroutine29                             8
     ZDSecMgrCtrlRelease                      18
     ZDSecMgrCtrlLookup                      118
     ??Subroutine142_0                        19
     ZDSecMgrCtrlSet                          75
     ?Subroutine30                             9
     ?Subroutine97                             6
     ?Subroutine27                             5
     ?Subroutine94                            12
     ZDSecMgrCtrlAdd                         104
     ZDSecMgrCtrlTerm                         33
     ??Subroutine128_0                         6
     ??Subroutine153_0                         3
     ??Subroutine154_0                         6
     ZDSecMgrCtrlReset                        79
     ?Subroutine51                             1
     ZDSecMgrMasterKeyLoad                    82
     ?Subroutine53                            10
     ??Subroutine136_0                         8
     ?Subroutine74                             7
     ?Subroutine102                            6
     ZDSecMgrAppKeyType                        1
     ZDSecMgrAppKeyGet                        53
     ?Subroutine72                             5
     ZDSecMgrAppKeyReq                       236
     ??Subroutine138_0                         6
     ?Subroutine20                             6
     ?Subroutine77                             8
     ??Subroutine149_0                         2
     ?Subroutine22                             7
     ?Subroutine92                            11
     ?Subroutine50                            12
     ZDSecMgrEstablishKey                     94
     ?Subroutine33                             3
     ??Subroutine129_0                         6
     ??Subroutine131_0                         5
     ?Subroutine113                           22
     ?Subroutine56                             2
     ??Subroutine141_0                         4
     ?Subroutine100                           10
     ZDSecMgrSendMasterKey                   238
     ?Subroutine10                             4
     ?Subroutine78                             5
     ?Subroutine24                             8
     ?Subroutine93                             3
     ??Subroutine140_0                         6
     ?Subroutine104                            4
     ?Subroutine117                            1
     ??Subroutine143_0                         2
     ??Subroutine144_0                         6
     ?Subroutine23                             6
     ?Subroutine57                             9
     ZDSecMgrSendNwkKey                      261
     ?Subroutine35                             3
     ?Subroutine21                             8
     ?Subroutine68                             4
     ZDSecMgrDeviceEntryRemove                22
     ZDSecMgrDeviceRemoveByExtAddr            35
     ?Subroutine75                             7
     ZDSecMgrAddrMgrUpdate                    66
     ZDSecMgrDeviceEntryAdd                  173
     ?Subroutine5                              8
     ?Subroutine70                             8
     ?Subroutine62                            13
     ?Subroutine109                            8
     ZDSecMgrDeviceCtrlHandler               113
     ?Subroutine64                            19
     ?Subroutine47                            11
     ?Subroutine25                             7
     ?Subroutine101                            6
     ??Subroutine127_0                         9
     ZDSecMgrDeviceCtrlSetup                  66
     ?Subroutine65                             7
     ZDSecMgrDeviceCtrlUpdate                103
     ?Subroutine8                              5
     APSME_SKA_TimerExpired                   20
     ZDSecMgrDeviceRemove                    152
     ?Subroutine31                            14
     ?Subroutine76                             7
     ??Subroutine159_0                         2
     ZDSecMgrDeviceValidateSKKE               44
     ?Subroutine63                            13
     ZDSecMgrDeviceValidateRM                 17
     ZDSecMgrDeviceValidateCM                133
     ?Subroutine55                            16
     ?Subroutine6                              3
     ??Subroutine158_0                         5
     ZDSecMgrDeviceValidate                   46
     ZDSecMgrDeviceJoin                       75
     ZDSecMgrDeviceJoinDirect                 35
     ZDSecMgrDeviceJoinFwd                   154
     ?Subroutine18                            15
     ZDSecMgrDeviceNew                         9
     ZDSecMgrAssocDeviceAuth                  23
     ZDSecMgrAuthInitiate                     63
     ?Subroutine17                             3
     ZDSecMgrAuthNwkKey                       26
     ?Subroutine4                              7
     ZDSecMgrInit                              2
     ZDSecMgrConfig                            2
     ZDSecMgrPermitJoining                    38
     ZDSecMgrPermitJoiningTimeout             23
     ZDSecMgrNewDeviceEvent                  177
     ?Subroutine34                             3
     ?Subroutine73                             4
     ZDSecMgrEvent                           212
     ?Subroutine112                            4
     ?Subroutine52                            10
     ?Subroutine16                             4
     ?Subroutine91                             4
     ZDSecMgrEstablishKeyCfm                  21
     ZDSecMgrTCExtAddrCheck                   63
     ZDSecMgrTCDataLoad                      165
     ?Subroutine89                             4
     ZDSecMgrEstablishKeyInd                 184
     ?Subroutine26                            13
     ?Subroutine14                            13
     ??Subroutine151_0                         6
     ?Subroutine96                            10
     ??Subroutine164_0                         3
     ??Subroutine165_0                         5
     ZDSecMgrTransportKeyInd                 212
     ?Subroutine114                            9
     ?Subroutine9                              2
     ZDSecMgrUpdateDeviceInd                  49
     ZDSecMgrRemoveDeviceInd                  69
     ?Subroutine15                             7
     ZDSecMgrRequestKeyInd                    36
     ZDSecMgrSwitchKeyInd                     23
     ZDSecMgrAuthenticateInd                 108
     ZDSecMgrAuthenticateCfm                  50
     ZDSecMgrUpdateNwkKey                    106
     ZDSecMgrSwitchNwkKey                     42
     ZDSecMgrRequestAppKey                    38
     ZDSecMgrAppKeyTypeSet                    26
     APSME_MasterKeyGet                       50
     APSME_LinkKeySet                        282
     ?Subroutine66                             6
     ??Subroutine156_0                         4
     ?Subroutine60                             7
     ?Subroutine42                            21
     ?Subroutine79                             8
     ?Subroutine88                            23
     ZDSecMgrAuthenticationSet                38
     ZDSecMgrAuthenticationCheck               5
     APSME_LinkKeyNVIdGet                     61
     APSME_IsLinkKeyValid                    145
     ?Subroutine46                            14
     APSME_KeyFwdToChild                      71
     ZDSecMgrAddLinkKey                      132
     ?Subroutine40                             9
     ??Subroutine120_0                         2
     ZDSecMgrSetDefaultNV                    190
     ?Subroutine85                            13
     ZDSecMgrAPSRemove                        69
     APSME_TCLinkKeyInit                     263
     ?Subroutine82                             8
     ??Subroutine161_0                         6
     APSME_TCLinkKeySync                     193
     ?Subroutine90                            12
     ?Subroutine48                            17
     ?Subroutine49                             1
     ??Subroutine163_0                         2
     APSME_TCLinkKeyLoad                     219
     APSME_IsDefaultTCLK                      47
     ZDSecMgrNwkKeyInit                      227
     ?Subroutine44                             2
     ZDSecMgrReadKeyFromNv                   203
     ZDSecMgrApsLinkKeyInit                  124
     ZDSecMgrInitNVKeyTables                  24
     ZDSecMgrSaveApsLinkKey                  206
     ZDSecMgrSaveTCLinkKey                   137
     ?<Initializer for ZDSecMgrAppKeyType>     1
     __Constant_0                              4
     __Constant_1                              4
     ??ZDSecMgrMasterKeyInit?relay             6
     ??ZDSecMgrAddrStore?relay                 6
     ??ZDSecMgrExtAddrStore?relay              6
     ??ZDSecMgrExtAddrLookup?relay             6
     ??ZDSecMgrAddrClear?relay                 6
     ??ZDSecMgrMasterKeyLookup?relay           6
     ??ZDSecMgrMasterKeyStore?relay            6
     ??ZDSecMgrEntryInit?relay                 6
     ??ZDSecMgrEntryLookup?relay               6
     ??ZDSecMgrEntryLookupAMI?relay            6
     ??ZDSecMgrEntryLookupExt?relay            6
     ??ZDSecMgrEntryLookupExtGetIndex?relay    6
     ??ZDSecMgrEntryLookupAMIGetIndex?relay    6
     ??ZDSecMgrEntryFree?relay                 6
     ??ZDSecMgrEntryNew?relay                  6
     ??ZDSecMgrCtrlInit?relay                  6
     ??ZDSecMgrCtrlRelease?relay               6
     ??ZDSecMgrCtrlLookup?relay                6
     ??ZDSecMgrCtrlSet?relay                   6
     ??ZDSecMgrCtrlAdd?relay                   6
     ??ZDSecMgrCtrlTerm?relay                  6
     ??ZDSecMgrCtrlReset?relay                 6
     ??ZDSecMgrMasterKeyLoad?relay             6
     ??ZDSecMgrAppKeyGet?relay                 6
     ??ZDSecMgrAppKeyReq?relay                 6
     ??ZDSecMgrEstablishKey?relay              6
     ??ZDSecMgrSendMasterKey?relay             6
     ??ZDSecMgrSendNwkKey?relay                6
     ??ZDSecMgrDeviceEntryRemove?relay         6
     ??ZDSecMgrDeviceRemoveByExtAddr?relay     6
     ??ZDSecMgrAddrMgrUpdate?relay             6
     ??ZDSecMgrDeviceEntryAdd?relay            6
     ??ZDSecMgrDeviceCtrlHandler?relay         6
     ??ZDSecMgrDeviceCtrlSetup?relay           6
     ??ZDSecMgrDeviceCtrlUpdate?relay          6
     ??APSME_SKA_TimerExpired?relay            6
     ??ZDSecMgrDeviceRemove?relay              6
     ??ZDSecMgrDeviceValidateSKKE?relay        6
     ??ZDSecMgrDeviceValidateRM?relay          6
     ??ZDSecMgrDeviceValidateCM?relay          6
     ??ZDSecMgrDeviceValidate?relay            6
     ??ZDSecMgrDeviceJoin?relay                6
     ??ZDSecMgrDeviceJoinDirect?relay          6
     ??ZDSecMgrDeviceJoinFwd?relay             6
     ??ZDSecMgrDeviceNew?relay                 6
     ??ZDSecMgrAssocDeviceAuth?relay           6
     ??ZDSecMgrAuthInitiate?relay              6
     ??ZDSecMgrAuthNwkKey?relay                6
     ??ZDSecMgrInit?relay                      6
     ??ZDSecMgrConfig?relay                    6
     ??ZDSecMgrPermitJoining?relay             6
     ??ZDSecMgrPermitJoiningTimeout?relay      6
     ??ZDSecMgrNewDeviceEvent?relay            6
     ??ZDSecMgrEvent?relay                     6
     ??ZDSecMgrEstablishKeyCfm?relay           6
     ??ZDSecMgrTCExtAddrCheck?relay            6
     ??ZDSecMgrTCDataLoad?relay                6
     ??ZDSecMgrEstablishKeyInd?relay           6
     ??ZDSecMgrTransportKeyInd?relay           6
     ??ZDSecMgrUpdateDeviceInd?relay           6
     ??ZDSecMgrRemoveDeviceInd?relay           6
     ??ZDSecMgrRequestKeyInd?relay             6
     ??ZDSecMgrSwitchKeyInd?relay              6
     ??ZDSecMgrAuthenticateInd?relay           6
     ??ZDSecMgrAuthenticateCfm?relay           6
     ??ZDSecMgrUpdateNwkKey?relay              6
     ??ZDSecMgrSwitchNwkKey?relay              6
     ??ZDSecMgrRequestAppKey?relay             6
     ??ZDSecMgrAppKeyTypeSet?relay             6
     ??APSME_MasterKeyGet?relay                6
     ??APSME_LinkKeySet?relay                  6
     ??ZDSecMgrAuthenticationSet?relay         6
     ??ZDSecMgrAuthenticationCheck?relay       6
     ??APSME_LinkKeyNVIdGet?relay              6
     ??APSME_IsLinkKeyValid?relay              6
     ??APSME_KeyFwdToChild?relay               6
     ??ZDSecMgrAddLinkKey?relay                6
     ??ZDSecMgrSetDefaultNV?relay              6
     ??ZDSecMgrAPSRemove?relay                 6
     ??APSME_TCLinkKeyInit?relay               6
     ??APSME_TCLinkKeySync?relay               6
     ??APSME_TCLinkKeyLoad?relay               6
     ??APSME_IsDefaultTCLK?relay               6
     ??ZDSecMgrNwkKeyInit?relay                6
     ??ZDSecMgrReadKeyFromNv?relay             6
     ??ZDSecMgrApsLinkKeyInit?relay            6
     ??ZDSecMgrInitNVKeyTables?relay           6
     ??ZDSecMgrSaveApsLinkKey?relay            6
     ??ZDSecMgrSaveTCLinkKey?relay             6

 
 9 867 bytes in segment BANKED_CODE
   534 bytes in segment BANK_RELAYS
    16 bytes in segment CODE_C
     1 byte  in segment XDATA_I
     1 byte  in segment XDATA_ID
     8 bytes in segment XDATA_ROM_C
    83 bytes in segment XDATA_Z
 
 10 418 bytes of CODE  memory
      0 bytes of CONST memory (+ 8 bytes shared)
     84 bytes of XDATA memory

Errors: none
Warnings: none
