///////////////////////////////////////////////////////////////////////////////
//                                                                            /
// IAR C/C++ Compiler V8.10.1.10194/W32 for 8051        28/Dec/2020  20:28:42 /
// Copyright 2004-2011 IAR Systems AB.                                        /
//                                                                            /
//    Core               =  plain                                             /
//    Code model         =  banked                                            /
//    Data model         =  large                                             /
//    Calling convention =  xdata reentrant                                   /
//    Constant location  =  data_rom                                          /
//    Dptr setup         =  1,16                                              /
//    Source file        =  D:\developer_tool_install\IAR\ZStack-CC2530-2.5.1 /
//                          a\Components\hal\target\CC2530EB\hal_lcd.c        /
//    Command line       =  -f D:\developer_tool_install\IAR\ZStack-CC2530-2. /
//                          5.1a\Projects\zstack\Samples\SmartHome\CC2530DB\. /
//                          .\..\..\Tools\CC2530DB\f8wCoord.cfg (-DCPU32MHZ   /
//                          -DROOT=__near_func -DMAC_CFG_APP_PENDING_QUEUE=TR /
//                          UE -DMAC_CFG_TX_DATA_MAX=5 -DMAC_CFG_TX_MAX=8     /
//                          -DMAC_CFG_RX_MAX=5 -DZDO_COORDINATOR -DRTR_NWK)   /
//                          -f D:\developer_tool_install\IAR\ZStack-CC2530-2. /
//                          5.1a\Projects\zstack\Samples\SmartHome\CC2530DB\. /
//                          .\..\..\Tools\CC2530DB\f8wConfig.cfg              /
//                          (-DZIGBEEPRO -DSECURE=0 -DZG_SECURE_DYNAMIC=0     /
//                          -DREFLECTOR -DDEFAULT_CHANLIST=0x00010000         /
//                          -DZDAPP_CONFIG_PAN_ID=0xFFAA                      /
//                          -DNWK_START_DELAY=100 -DEXTENDED_JOINING_RANDOM_M /
//                          ASK=0x007F -DBEACON_REQUEST_DELAY=100             /
//                          -DBEACON_REQ_DELAY_MASK=0x00FF                    /
//                          -DLINK_STATUS_JITTER_MASK=0x007F                  /
//                          -DROUTE_EXPIRY_TIME=30 -DAPSC_ACK_WAIT_DURATION_P /
//                          OLLED=3000 -DNWK_INDIRECT_MSG_TIMEOUT=7           /
//                          -DMAX_RREQ_ENTRIES=8 -DAPSC_MAX_FRAME_RETRIES=3   /
//                          -DNWK_MAX_DATA_RETRIES=2                          /
//                          -DMAX_POLL_FAILURE_RETRIES=2 -DMAX_BCAST=9        /
//                          -DAPS_MAX_GROUPS=16 -DMAX_RTG_ENTRIES=40          /
//                          -DNWK_MAX_BINDING_ENTRIES=4                       /
//                          -DMAX_BINDING_CLUSTER_IDS=4                       /
//                          "-DDEFAULT_KEY={0x01, 0x03, 0x05, 0x07, 0x09,     /
//                          0x0B, 0x0D, 0x0F, 0x00, 0x02, 0x04, 0x06, 0x08,   /
//                          0x0A, 0x0C, 0x0D}" -DMAC_MAX_FRAME_SIZE=116       /
//                          -DZDNWKMGR_MIN_TRANSMISSIONS=20 "-DCONST=const    /
//                          __code" -DGENERIC=__generic                       /
//                          -DRFD_RCVC_ALWAYS_ON=FALSE -DPOLL_RATE=1000       /
//                          -DQUEUED_POLL_RATE=100 -DRESPONSE_POLL_RATE=100)  /
//                          -DREJOIN_POLL_RATE=440 D:\developer_tool_install\ /
//                          IAR\ZStack-CC2530-2.5.1a\Components\hal\target\CC /
//                          2530EB\hal_lcd.c -D ZTOOL_P1 -D xMT_TASK -D       /
//                          xMT_SYS_FUNC -D xMT_ZDO_FUNC -D                   /
//                          xLCD_SUPPORTED=DEBUG -lC                          /
//                          D:\developer_tool_install\IAR\ZStack-CC2530-2.5.1 /
//                          a\Projects\zstack\Samples\SmartHome\CC2530DB\mq2\ /
//                          List\ -lA D:\developer_tool_install\IAR\ZStack-CC /
//                          2530-2.5.1a\Projects\zstack\Samples\SmartHome\CC2 /
//                          530DB\mq2\List\ --diag_suppress Pe001,Pa010 -o    /
//                          D:\developer_tool_install\IAR\ZStack-CC2530-2.5.1 /
//                          a\Projects\zstack\Samples\SmartHome\CC2530DB\mq2\ /
//                          Obj\ -e --no_code_motion --debug --core=plain     /
//                          --dptr=16,1 --data_model=large                    /
//                          --code_model=banked --calling_convention=xdata_re /
//                          entrant --place_constants=data_rom                /
//                          --nr_virtual_regs 16 -I                           /
//                          D:\developer_tool_install\IAR\ZStack-CC2530-2.5.1 /
//                          a\Projects\zstack\Samples\SmartHome\CC2530DB\ -I  /
//                          D:\developer_tool_install\IAR\ZStack-CC2530-2.5.1 /
//                          a\Projects\zstack\Samples\SmartHome\CC2530DB\..\S /
//                          ource\ -I D:\developer_tool_install\IAR\ZStack-CC /
//                          2530-2.5.1a\Projects\zstack\Samples\SmartHome\CC2 /
//                          530DB\..\..\..\ZMain\TI2530DB\ -I                 /
//                          D:\developer_tool_install\IAR\ZStack-CC2530-2.5.1 /
//                          a\Projects\zstack\Samples\SmartHome\CC2530DB\..\. /
//                          .\..\..\..\Components\hal\include\ -I             /
//                          D:\developer_tool_install\IAR\ZStack-CC2530-2.5.1 /
//                          a\Projects\zstack\Samples\SmartHome\CC2530DB\..\. /
//                          .\..\..\..\Components\hal\target\CC2530EB\ -I     /
//                          D:\developer_tool_install\IAR\ZStack-CC2530-2.5.1 /
//                          a\Projects\zstack\Samples\SmartHome\CC2530DB\..\. /
//                          .\..\..\..\Components\mac\include\ -I             /
//                          D:\developer_tool_install\IAR\ZStack-CC2530-2.5.1 /
//                          a\Projects\zstack\Samples\SmartHome\CC2530DB\..\. /
//                          .\..\..\..\Components\mac\high_level\ -I          /
//                          D:\developer_tool_install\IAR\ZStack-CC2530-2.5.1 /
//                          a\Projects\zstack\Samples\SmartHome\CC2530DB\..\. /
//                          .\..\..\..\Components\mac\low_level\srf04\ -I     /
//                          D:\developer_tool_install\IAR\ZStack-CC2530-2.5.1 /
//                          a\Projects\zstack\Samples\SmartHome\CC2530DB\..\. /
//                          .\..\..\..\Components\mac\low_level\srf04\single_ /
//                          chip\ -I D:\developer_tool_install\IAR\ZStack-CC2 /
//                          530-2.5.1a\Projects\zstack\Samples\SmartHome\CC25 /
//                          30DB\..\..\..\..\..\Components\mt\ -I             /
//                          D:\developer_tool_install\IAR\ZStack-CC2530-2.5.1 /
//                          a\Projects\zstack\Samples\SmartHome\CC2530DB\..\. /
//                          .\..\..\..\Components\osal\include\ -I            /
//                          D:\developer_tool_install\IAR\ZStack-CC2530-2.5.1 /
//                          a\Projects\zstack\Samples\SmartHome\CC2530DB\..\. /
//                          .\..\..\..\Components\services\saddr\ -I          /
//                          D:\developer_tool_install\IAR\ZStack-CC2530-2.5.1 /
//                          a\Projects\zstack\Samples\SmartHome\CC2530DB\..\. /
//                          .\..\..\..\Components\services\sdata\ -I          /
//                          D:\developer_tool_install\IAR\ZStack-CC2530-2.5.1 /
//                          a\Projects\zstack\Samples\SmartHome\CC2530DB\..\. /
//                          .\..\..\..\Components\stack\af\ -I                /
//                          D:\developer_tool_install\IAR\ZStack-CC2530-2.5.1 /
//                          a\Projects\zstack\Samples\SmartHome\CC2530DB\..\. /
//                          .\..\..\..\Components\stack\nwk\ -I               /
//                          D:\developer_tool_install\IAR\ZStack-CC2530-2.5.1 /
//                          a\Projects\zstack\Samples\SmartHome\CC2530DB\..\. /
//                          .\..\..\..\Components\stack\sapi\ -I              /
//                          D:\developer_tool_install\IAR\ZStack-CC2530-2.5.1 /
//                          a\Projects\zstack\Samples\SmartHome\CC2530DB\..\. /
//                          .\..\..\..\Components\stack\sec\ -I               /
//                          D:\developer_tool_install\IAR\ZStack-CC2530-2.5.1 /
//                          a\Projects\zstack\Samples\SmartHome\CC2530DB\..\. /
//                          .\..\..\..\Components\stack\sys\ -I               /
//                          D:\developer_tool_install\IAR\ZStack-CC2530-2.5.1 /
//                          a\Projects\zstack\Samples\SmartHome\CC2530DB\..\. /
//                          .\..\..\..\Components\stack\zdo\ -I               /
//                          D:\developer_tool_install\IAR\ZStack-CC2530-2.5.1 /
//                          a\Projects\zstack\Samples\SmartHome\CC2530DB\..\. /
//                          .\..\..\..\Components\zmac\ -I                    /
//                          D:\developer_tool_install\IAR\ZStack-CC2530-2.5.1 /
//                          a\Projects\zstack\Samples\SmartHome\CC2530DB\..\. /
//                          .\..\..\..\Components\zmac\f8w\ -Ohz              /
//                          --require_prototypes                              /
//    List file          =  D:\developer_tool_install\IAR\ZStack-CC2530-2.5.1 /
//                          a\Projects\zstack\Samples\SmartHome\CC2530DB\mq2\ /
//                          List\hal_lcd.s51                                  /
//                                                                            /
//                                                                            /
///////////////////////////////////////////////////////////////////////////////

        NAME hal_lcd

        RTMODEL "__SystemLibrary", "CLib"
        RTMODEL "__calling_convention", "xdata_reentrant"
        RTMODEL "__code_model", "banked"
        RTMODEL "__core", "plain"
        RTMODEL "__data_model", "large"
        RTMODEL "__dptr_size", "16"
        RTMODEL "__extended_stack", "disabled"
        RTMODEL "__location_for_constants", "data"
        RTMODEL "__number_of_dptrs", "1"
        RTMODEL "__rt_version", "1"

        RSEG DOVERLAY:DATA:NOROOT(0)
        RSEG IOVERLAY:IDATA:NOROOT(0)
        RSEG ISTACK:IDATA:NOROOT(0)
        RSEG PSTACK:XDATA:NOROOT(0)
        RSEG XSTACK:XDATA:NOROOT(0)

        EXTERN ?ALLOC_XSTACK8
        EXTERN ?BANKED_ENTER_XDATA
        EXTERN ?BANKED_LEAVE_XDATA
        EXTERN ?BDISPATCH
        EXTERN ?BRET
        EXTERN ?DEALLOC_XSTACK8
        EXTERN ?PUSH_XSTACK_I_THREE
        EXTERN ?PUSH_XSTACK_I_TWO
        EXTERN ?V0
        EXTERN ?XSP
        EXTERN ?XSTACK_DISP0_8
        EXTERN __INIT_XDATA_Z

        PUBLIC ??HalLcdDisplayPercentBar?relay
        FUNCTION ??HalLcdDisplayPercentBar?relay,0203H
        PUBLIC ??HalLcdInit?relay
        FUNCTION ??HalLcdInit?relay,0203H
        PUBLIC ??HalLcdWriteScreen?relay
        FUNCTION ??HalLcdWriteScreen?relay,0203H
        PUBLIC ??HalLcdWriteString?relay
        FUNCTION ??HalLcdWriteString?relay,0203H
        PUBLIC ??HalLcdWriteStringValue?relay
        FUNCTION ??HalLcdWriteStringValue?relay,0203H
        PUBLIC ??HalLcdWriteStringValueValue?relay
        FUNCTION ??HalLcdWriteStringValueValue?relay,0203H
        PUBLIC ??HalLcdWriteValue?relay
        FUNCTION ??HalLcdWriteValue?relay,0203H
        PUBLIC ??HalLcd_HW_Clear?relay
        FUNCTION ??HalLcd_HW_Clear?relay,0203H
        PUBLIC ??HalLcd_HW_ClearAllSpecChars?relay
        FUNCTION ??HalLcd_HW_ClearAllSpecChars?relay,0203H
        PUBLIC ??HalLcd_HW_Control?relay
        FUNCTION ??HalLcd_HW_Control?relay,0203H
        PUBLIC ??HalLcd_HW_Init?relay
        FUNCTION ??HalLcd_HW_Init?relay,0203H
        PUBLIC ??HalLcd_HW_SetContrast?relay
        FUNCTION ??HalLcd_HW_SetContrast?relay,0203H
        PUBLIC ??HalLcd_HW_WaitUs?relay
        FUNCTION ??HalLcd_HW_WaitUs?relay,0203H
        PUBLIC ??HalLcd_HW_Write?relay
        FUNCTION ??HalLcd_HW_Write?relay,0203H
        PUBLIC ??HalLcd_HW_WriteChar?relay
        FUNCTION ??HalLcd_HW_WriteChar?relay,0203H
        PUBLIC ??HalLcd_HW_WriteLine?relay
        FUNCTION ??HalLcd_HW_WriteLine?relay,0203H
        PUBLIC HalLcdDisplayPercentBar
        FUNCTION HalLcdDisplayPercentBar,021203H
        ARGFRAME XSTACK, 0, STACK
        LOCFRAME XSTACK, 32, STACK
        PUBLIC HalLcdInit
        FUNCTION HalLcdInit,021203H
        ARGFRAME XSTACK, 0, STACK
        LOCFRAME ISTACK, 2, STACK
        PUBLIC HalLcdWriteScreen
        FUNCTION HalLcdWriteScreen,021203H
        ARGFRAME XSTACK, 0, STACK
        LOCFRAME XSTACK, 9, STACK
        PUBLIC HalLcdWriteString
        FUNCTION HalLcdWriteString,021203H
        ARGFRAME XSTACK, 44, STACK
        ARGFRAME IOVERLAY, 0, STATIC
        ARGFRAME DOVERLAY, 0, STATIC
        LOCFRAME XSTACK, 20, STACK
        PUBLIC HalLcdWriteStringValue
        FUNCTION HalLcdWriteStringValue,021203H
        ARGFRAME XSTACK, 1, STACK
        LOCFRAME XSTACK, 46, STACK
        PUBLIC HalLcdWriteStringValueValue
        FUNCTION HalLcdWriteStringValueValue,021203H
        ARGFRAME XSTACK, 4, STACK
        LOCFRAME XSTACK, 47, STACK
        PUBLIC HalLcdWriteValue
        FUNCTION HalLcdWriteValue,021203H
        ARGFRAME XSTACK, 1, STACK
        LOCFRAME XSTACK, 43, STACK
        PUBLIC HalLcd_HW_Clear
        FUNCTION HalLcd_HW_Clear,021203H
        ARGFRAME XSTACK, 0, STACK
        ARGFRAME IOVERLAY, 0, STATIC
        ARGFRAME DOVERLAY, 0, STATIC
        LOCFRAME XSTACK, 9, STACK
        PUBLIC HalLcd_HW_ClearAllSpecChars
        FUNCTION HalLcd_HW_ClearAllSpecChars,021203H
        ARGFRAME XSTACK, 0, STACK
        ARGFRAME IOVERLAY, 0, STATIC
        ARGFRAME DOVERLAY, 0, STATIC
        LOCFRAME XSTACK, 9, STACK
        PUBLIC HalLcd_HW_Control
        FUNCTION HalLcd_HW_Control,0203H
        ARGFRAME XSTACK, 9, STACK
        ARGFRAME IOVERLAY, 0, STATIC
        ARGFRAME DOVERLAY, 0, STATIC
        PUBLIC HalLcd_HW_Init
        FUNCTION HalLcd_HW_Init,021203H
        ARGFRAME XSTACK, 0, STACK
        ARGFRAME IOVERLAY, 0, STATIC
        ARGFRAME DOVERLAY, 0, STATIC
        LOCFRAME ISTACK, 2, STACK
        PUBLIC HalLcd_HW_SetContrast
        FUNCTION HalLcd_HW_SetContrast,021203H
        ARGFRAME XSTACK, 0, STACK
        ARGFRAME IOVERLAY, 0, STATIC
        ARGFRAME DOVERLAY, 0, STATIC
        LOCFRAME XSTACK, 9, STACK
        PUBLIC HalLcd_HW_WaitUs
        FUNCTION HalLcd_HW_WaitUs,080203H
        ARGFRAME XSTACK, 0, STACK
        ARGFRAME IOVERLAY, 0, STATIC
        ARGFRAME DOVERLAY, 0, STATIC
        PUBLIC HalLcd_HW_Write
        FUNCTION HalLcd_HW_Write,0203H
        ARGFRAME XSTACK, 9, STACK
        ARGFRAME IOVERLAY, 0, STATIC
        ARGFRAME DOVERLAY, 0, STATIC
        PUBLIC HalLcd_HW_WriteChar
        FUNCTION HalLcd_HW_WriteChar,021203H
        ARGFRAME XSTACK, 11, STACK
        ARGFRAME IOVERLAY, 0, STATIC
        ARGFRAME DOVERLAY, 0, STATIC
        LOCFRAME XSTACK, 9, STACK
        PUBLIC HalLcd_HW_WriteLine
        FUNCTION HalLcd_HW_WriteLine,021203H
        ARGFRAME XSTACK, 17, STACK
        ARGFRAME IOVERLAY, 0, STATIC
        ARGFRAME DOVERLAY, 0, STATIC
        LOCFRAME XSTACK, 11, STACK
        PUBWEAK P0DIR
        PUBWEAK P0SEL
        PUBWEAK P1DIR
        PUBWEAK P1SEL
        PUBWEAK PERCFG
        PUBWEAK U1BAUD
        PUBWEAK U1DBUF
        PUBWEAK U1GCR
        PUBWEAK U1UCR
        PUBWEAK _A_P0
        PUBWEAK _A_P1
        PUBWEAK _A_U1CSR
        
        CFI Names cfiNames0
        CFI StackFrame CFA_SP SP IDATA
        CFI StackFrame CFA_PSP16 PSP16 XDATA
        CFI StackFrame CFA_XSP16 XSP16 XDATA
        CFI StaticOverlayFrame CFA_IOVERLAY IOVERLAY
        CFI StaticOverlayFrame CFA_DOVERLAY DOVERLAY
        CFI Resource `PSW.CY`:1, `B.BR0`:1, `B.BR1`:1, `B.BR2`:1, `B.BR3`:1
        CFI Resource `B.BR4`:1, `B.BR5`:1, `B.BR6`:1, `B.BR7`:1, `VB.BR8`:1
        CFI Resource `VB.BR9`:1, `VB.BR10`:1, `VB.BR11`:1, `VB.BR12`:1
        CFI Resource `VB.BR13`:1, `VB.BR14`:1, `VB.BR15`:1, VB:8, B:8, A:8
        CFI Resource PSW:8, DPL0:8, DPH0:8, R0:8, R1:8, R2:8, R3:8, R4:8, R5:8
        CFI Resource R6:8, R7:8, V0:8, V1:8, V2:8, V3:8, V4:8, V5:8, V6:8, V7:8
        CFI Resource V8:8, V9:8, V10:8, V11:8, V12:8, V13:8, V14:8, V15:8, SP:8
        CFI Resource PSPH:8, PSPL:8, PSP16:16, XSPH:8, XSPL:8, XSP16:16
        CFI VirtualResource ?RET:24
        CFI Resource ?BRET_EXT:8
        CFI VirtualResource ?RET_HIGH:8, ?RET_LOW:8
        CFI ResourceParts PSP16 PSPH, PSPL
        CFI ResourceParts XSP16 XSPH, XSPL
        CFI ResourceParts ?RET ?BRET_EXT, ?RET_HIGH, ?RET_LOW
        CFI EndNames cfiNames0
        
        CFI Common cfiCommon0 Using cfiNames0
        CFI CodeAlign 1
        CFI DataAlign -1
        CFI ReturnAddress ?RET CODE
        CFI CFA_DOVERLAY Used
        CFI CFA_IOVERLAY Used
        CFI CFA_SP SP+-3
        CFI CFA_PSP16 PSP16+0
        CFI CFA_XSP16 XSP16+0
        CFI `PSW.CY` SameValue
        CFI `B.BR0` SameValue
        CFI `B.BR1` SameValue
        CFI `B.BR2` SameValue
        CFI `B.BR3` SameValue
        CFI `B.BR4` SameValue
        CFI `B.BR5` SameValue
        CFI `B.BR6` SameValue
        CFI `B.BR7` SameValue
        CFI `VB.BR8` SameValue
        CFI `VB.BR9` SameValue
        CFI `VB.BR10` SameValue
        CFI `VB.BR11` SameValue
        CFI `VB.BR12` SameValue
        CFI `VB.BR13` SameValue
        CFI `VB.BR14` SameValue
        CFI `VB.BR15` SameValue
        CFI VB SameValue
        CFI B Undefined
        CFI A Undefined
        CFI PSW SameValue
        CFI DPL0 SameValue
        CFI DPH0 SameValue
        CFI R0 Undefined
        CFI R1 Undefined
        CFI R2 Undefined
        CFI R3 Undefined
        CFI R4 Undefined
        CFI R5 Undefined
        CFI R6 SameValue
        CFI R7 SameValue
        CFI V0 SameValue
        CFI V1 SameValue
        CFI V2 SameValue
        CFI V3 SameValue
        CFI V4 SameValue
        CFI V5 SameValue
        CFI V6 SameValue
        CFI V7 SameValue
        CFI V8 SameValue
        CFI V9 SameValue
        CFI V10 SameValue
        CFI V11 SameValue
        CFI V12 SameValue
        CFI V13 SameValue
        CFI V14 SameValue
        CFI V15 SameValue
        CFI PSPH Undefined
        CFI PSPL Undefined
        CFI XSPH Undefined
        CFI XSPL Undefined
        CFI ?RET Concat
        CFI ?BRET_EXT Frame(CFA_SP, 3)
        CFI ?RET_HIGH Frame(CFA_SP, 2)
        CFI ?RET_LOW Frame(CFA_SP, 1)
        CFI EndCommon cfiCommon0
        
        
        CFI Common cfiCommon1 Using cfiNames0
        CFI CodeAlign 1
        CFI DataAlign -1
        CFI ReturnAddress ?RET CODE
        CFI CFA_DOVERLAY Used
        CFI CFA_IOVERLAY Used
        CFI CFA_SP SP+-2
        CFI CFA_PSP16 PSP16+0
        CFI CFA_XSP16 XSP16+0
        CFI `PSW.CY` SameValue
        CFI `B.BR0` SameValue
        CFI `B.BR1` SameValue
        CFI `B.BR2` SameValue
        CFI `B.BR3` SameValue
        CFI `B.BR4` SameValue
        CFI `B.BR5` SameValue
        CFI `B.BR6` SameValue
        CFI `B.BR7` SameValue
        CFI `VB.BR8` SameValue
        CFI `VB.BR9` SameValue
        CFI `VB.BR10` SameValue
        CFI `VB.BR11` SameValue
        CFI `VB.BR12` SameValue
        CFI `VB.BR13` SameValue
        CFI `VB.BR14` SameValue
        CFI `VB.BR15` SameValue
        CFI VB SameValue
        CFI B SameValue
        CFI A SameValue
        CFI PSW SameValue
        CFI DPL0 SameValue
        CFI DPH0 SameValue
        CFI R0 SameValue
        CFI R1 SameValue
        CFI R2 SameValue
        CFI R3 SameValue
        CFI R4 SameValue
        CFI R5 SameValue
        CFI R6 SameValue
        CFI R7 SameValue
        CFI V0 SameValue
        CFI V1 SameValue
        CFI V2 SameValue
        CFI V3 SameValue
        CFI V4 SameValue
        CFI V5 SameValue
        CFI V6 SameValue
        CFI V7 SameValue
        CFI V8 SameValue
        CFI V9 SameValue
        CFI V10 SameValue
        CFI V11 SameValue
        CFI V12 SameValue
        CFI V13 SameValue
        CFI V14 SameValue
        CFI V15 SameValue
        CFI PSPH Undefined
        CFI PSPL Undefined
        CFI XSPH Undefined
        CFI XSPL Undefined
        CFI ?RET Concat
        CFI ?BRET_EXT SameValue
        CFI ?RET_HIGH Frame(CFA_SP, 2)
        CFI ?RET_LOW Frame(CFA_SP, 1)
        CFI EndCommon cfiCommon1
        
osal_mem_alloc      SYMBOL "osal_mem_alloc"
osal_strlen         SYMBOL "osal_strlen"
osal_memcpy         SYMBOL "osal_memcpy"
osal_mem_free       SYMBOL "osal_mem_free"
_ltoa               SYMBOL "_ltoa"
??_ltoa?relay       SYMBOL "?relay", _ltoa
??osal_mem_alloc?relay SYMBOL "?relay", osal_mem_alloc
??osal_mem_free?relay SYMBOL "?relay", osal_mem_free
??osal_memcpy?relay SYMBOL "?relay", osal_memcpy
??osal_strlen?relay SYMBOL "?relay", osal_strlen
HalLcdDisplayPercentBar SYMBOL "HalLcdDisplayPercentBar"
??HalLcdDisplayPercentBar?relay SYMBOL "?relay", HalLcdDisplayPercentBar
HalLcdInit          SYMBOL "HalLcdInit"
??HalLcdInit?relay  SYMBOL "?relay", HalLcdInit
HalLcdWriteScreen   SYMBOL "HalLcdWriteScreen"
??HalLcdWriteScreen?relay SYMBOL "?relay", HalLcdWriteScreen
HalLcdWriteString   SYMBOL "HalLcdWriteString"
??HalLcdWriteString?relay SYMBOL "?relay", HalLcdWriteString
HalLcdWriteStringValue SYMBOL "HalLcdWriteStringValue"
??HalLcdWriteStringValue?relay SYMBOL "?relay", HalLcdWriteStringValue
HalLcdWriteStringValueValue SYMBOL "HalLcdWriteStringValueValue"
??HalLcdWriteStringValueValue?relay SYMBOL "?relay", HalLcdWriteStringValueValue
HalLcdWriteValue    SYMBOL "HalLcdWriteValue"
??HalLcdWriteValue?relay SYMBOL "?relay", HalLcdWriteValue
HalLcd_HW_Clear     SYMBOL "HalLcd_HW_Clear"
??HalLcd_HW_Clear?relay SYMBOL "?relay", HalLcd_HW_Clear
HalLcd_HW_ClearAllSpecChars SYMBOL "HalLcd_HW_ClearAllSpecChars"
??HalLcd_HW_ClearAllSpecChars?relay SYMBOL "?relay", HalLcd_HW_ClearAllSpecChars
HalLcd_HW_Control   SYMBOL "HalLcd_HW_Control"
??HalLcd_HW_Control?relay SYMBOL "?relay", HalLcd_HW_Control
HalLcd_HW_Init      SYMBOL "HalLcd_HW_Init"
??HalLcd_HW_Init?relay SYMBOL "?relay", HalLcd_HW_Init
HalLcd_HW_SetContrast SYMBOL "HalLcd_HW_SetContrast"
??HalLcd_HW_SetContrast?relay SYMBOL "?relay", HalLcd_HW_SetContrast
HalLcd_HW_WaitUs    SYMBOL "HalLcd_HW_WaitUs"
??HalLcd_HW_WaitUs?relay SYMBOL "?relay", HalLcd_HW_WaitUs
HalLcd_HW_Write     SYMBOL "HalLcd_HW_Write"
??HalLcd_HW_Write?relay SYMBOL "?relay", HalLcd_HW_Write
HalLcd_HW_WriteChar SYMBOL "HalLcd_HW_WriteChar"
??HalLcd_HW_WriteChar?relay SYMBOL "?relay", HalLcd_HW_WriteChar
HalLcd_HW_WriteLine SYMBOL "HalLcd_HW_WriteLine"
??HalLcd_HW_WriteLine?relay SYMBOL "?relay", HalLcd_HW_WriteLine

        EXTERN osal_mem_alloc
        FUNCTION osal_mem_alloc,0202H
        ARGFRAME ISTACK, 0, STACK
        ARGFRAME PSTACK, 0, STACK
        ARGFRAME XSTACK, 17, STACK
        ARGFRAME IOVERLAY, 0, STATIC
        ARGFRAME DOVERLAY, 0, STATIC
        EXTERN osal_strlen
        FUNCTION osal_strlen,0202H
        ARGFRAME ISTACK, 0, STACK
        ARGFRAME PSTACK, 0, STACK
        ARGFRAME XSTACK, 44, STACK
        ARGFRAME IOVERLAY, 0, STATIC
        ARGFRAME DOVERLAY, 0, STATIC
        EXTERN osal_memcpy
        FUNCTION osal_memcpy,0202H
        ARGFRAME ISTACK, 0, STACK
        ARGFRAME PSTACK, 0, STACK
        ARGFRAME XSTACK, 47, STACK
        ARGFRAME IOVERLAY, 0, STATIC
        ARGFRAME DOVERLAY, 0, STATIC
        EXTERN osal_mem_free
        FUNCTION osal_mem_free,0202H
        ARGFRAME ISTACK, 0, STACK
        ARGFRAME PSTACK, 0, STACK
        ARGFRAME XSTACK, 17, STACK
        ARGFRAME IOVERLAY, 0, STATIC
        ARGFRAME DOVERLAY, 0, STATIC
        EXTERN _ltoa
        FUNCTION _ltoa,0202H
        ARGFRAME ISTACK, 0, STACK
        ARGFRAME PSTACK, 0, STACK
        ARGFRAME XSTACK, 46, STACK
        ARGFRAME IOVERLAY, 0, STATIC
        ARGFRAME DOVERLAY, 0, STATIC
        EXTERN ??_ltoa?relay
        FUNCTION ??_ltoa?relay,00H
        EXTERN ??osal_mem_alloc?relay
        FUNCTION ??osal_mem_alloc?relay,00H
        EXTERN ??osal_mem_free?relay
        FUNCTION ??osal_mem_free?relay,00H
        EXTERN ??osal_memcpy?relay
        FUNCTION ??osal_memcpy?relay,00H
        EXTERN ??osal_strlen?relay
        FUNCTION ??osal_strlen?relay,00H

// D:\developer_tool_install\IAR\ZStack-CC2530-2.5.1a\Components\hal\target\CC2530EB\hal_lcd.c
//    1 /**************************************************************************************************
//    2   Filename:       hal_lcd.c
//    3   Revised:        $Date: 2010-06-21 17:31:27 -0700 (Mon, 21 Jun 2010) $
//    4   Revision:       $Revision: 22794 $
//    5 
//    6   Description:    This file contains the interface to the HAL LCD Service.
//    7 
//    8 
//    9   Copyright 2007-2010 Texas Instruments Incorporated. All rights reserved.
//   10 
//   11   IMPORTANT: Your use of this Software is limited to those specific rights
//   12   granted under the terms of a software license agreement between the user
//   13   who downloaded the software, his/her employer (which must be your employer)
//   14   and Texas Instruments Incorporated (the "License").  You may not use this
//   15   Software unless you agree to abide by the terms of the License. The License
//   16   limits your use, and you acknowledge, that the Software may not be modified,
//   17   copied or distributed unless embedded on a Texas Instruments microcontroller
//   18   or used solely and exclusively in conjunction with a Texas Instruments radio
//   19   frequency transceiver, which is integrated into your product.  Other than for
//   20   the foregoing purpose, you may not use, reproduce, copy, prepare derivative
//   21   works of, modify, distribute, perform, display or sell this Software and/or
//   22   its documentation for any purpose.
//   23 
//   24   YOU FURTHER ACKNOWLEDGE AND AGREE THAT THE SOFTWARE AND DOCUMENTATION ARE
//   25   PROVIDED “AS IS” WITHOUT WARRANTY OF ANY KIND, EITHER EXPRESS OR IMPLIED,
//   26   INCLUDING WITHOUT LIMITATION, ANY WARRANTY OF MERCHANTABILITY, TITLE,
//   27   NON-INFRINGEMENT AND FITNESS FOR A PARTICULAR PURPOSE. IN NO EVENT SHALL
//   28   TEXAS INSTRUMENTS OR ITS LICENSORS BE LIABLE OR OBLIGATED UNDER CONTRACT,
//   29   NEGLIGENCE, STRICT LIABILITY, CONTRIBUTION, BREACH OF WARRANTY, OR OTHER
//   30   LEGAL EQUITABLE THEORY ANY DIRECT OR INDIRECT DAMAGES OR EXPENSES
//   31   INCLUDING BUT NOT LIMITED TO ANY INCIDENTAL, SPECIAL, INDIRECT, PUNITIVE
//   32   OR CONSEQUENTIAL DAMAGES, LOST PROFITS OR LOST DATA, COST OF PROCUREMENT
//   33   OF SUBSTITUTE GOODS, TECHNOLOGY, SERVICES, OR ANY CLAIMS BY THIRD PARTIES
//   34   (INCLUDING BUT NOT LIMITED TO ANY DEFENSE THEREOF), OR OTHER SIMILAR COSTS.
//   35 
//   36   Should you have any questions regarding your right to use this Software,
//   37   contact Texas Instruments Incorporated at www.TI.com.
//   38 **************************************************************************************************/
//   39 
//   40 /**************************************************************************************************
//   41  *                                           INCLUDES
//   42  **************************************************************************************************/
//   43 #include "hal_types.h"
//   44 #include "hal_lcd.h"

        ASEGN SFR_AN:DATA:NOROOT,080H
// union <unnamed> volatile __sfr _A_P0
_A_P0:
        DATA8
        DS 1

        ASEGN SFR_AN:DATA:NOROOT,090H
// union <unnamed> volatile __sfr _A_P1
_A_P1:
        DATA8
        DS 1

        ASEGN SFR_AN:DATA:NOROOT,0f1H
// unsigned char volatile __sfr PERCFG
PERCFG:
        DATA8
        DS 1

        ASEGN SFR_AN:DATA:NOROOT,0f3H
// unsigned char volatile __sfr P0SEL
P0SEL:
        DATA8
        DS 1

        ASEGN SFR_AN:DATA:NOROOT,0f4H
// unsigned char volatile __sfr P1SEL
P1SEL:
        DATA8
        DS 1

        ASEGN SFR_AN:DATA:NOROOT,0f8H
// union <unnamed> volatile __sfr _A_U1CSR
_A_U1CSR:
        DATA8
        DS 1

        ASEGN SFR_AN:DATA:NOROOT,0f9H
// unsigned char volatile __sfr U1DBUF
U1DBUF:
        DATA8
        DS 1

        ASEGN SFR_AN:DATA:NOROOT,0faH
// unsigned char volatile __sfr U1BAUD
U1BAUD:
        DATA8
        DS 1

        ASEGN SFR_AN:DATA:NOROOT,0fbH
// unsigned char volatile __sfr U1UCR
U1UCR:
        DATA8
        DS 1

        ASEGN SFR_AN:DATA:NOROOT,0fcH
// unsigned char volatile __sfr U1GCR
U1GCR:
        DATA8
        DS 1

        ASEGN SFR_AN:DATA:NOROOT,0fdH
// unsigned char volatile __sfr P0DIR
P0DIR:
        DATA8
        DS 1

        ASEGN SFR_AN:DATA:NOROOT,0feH
// unsigned char volatile __sfr P1DIR
P1DIR:
        DATA8
        DS 1
//   45 #include "OSAL.h"
//   46 #include "OnBoard.h"
//   47 #include "hal_assert.h"
//   48 
//   49 #if defined (ZTOOL_P1) || defined (ZTOOL_P2)
//   50   #include "DebugTrace.h"
//   51 #endif
//   52 
//   53 /**************************************************************************************************
//   54  *                                          CONSTANTS
//   55  **************************************************************************************************/
//   56 /*
//   57   LCD pins
//   58 
//   59   //control
//   60   P0.0 - LCD_MODE
//   61   P1.1 - LCD_FLASH_RESET
//   62   P1.2 - LCD_CS
//   63 
//   64   //spi
//   65   P1.5 - CLK
//   66   P1.6 - MOSI
//   67   P1.7 - MISO
//   68 */
//   69 
//   70 /* LCD Control lines */
//   71 #define HAL_LCD_MODE_PORT 0
//   72 #define HAL_LCD_MODE_PIN  0
//   73 
//   74 #define HAL_LCD_RESET_PORT 1
//   75 #define HAL_LCD_RESET_PIN  1
//   76 
//   77 #define HAL_LCD_CS_PORT 1
//   78 #define HAL_LCD_CS_PIN  2
//   79 
//   80 /* LCD SPI lines */
//   81 #define HAL_LCD_CLK_PORT 1
//   82 #define HAL_LCD_CLK_PIN  5
//   83 
//   84 #define HAL_LCD_MOSI_PORT 1
//   85 #define HAL_LCD_MOSI_PIN  6
//   86 
//   87 #define HAL_LCD_MISO_PORT 1
//   88 #define HAL_LCD_MISO_PIN  7
//   89 
//   90 /* SPI settings */
//   91 #define HAL_SPI_CLOCK_POL_LO       0x00
//   92 #define HAL_SPI_CLOCK_PHA_0        0x00
//   93 #define HAL_SPI_TRANSFER_MSB_FIRST 0x20
//   94 
//   95 /* LCD lines */
//   96 #define LCD_MAX_LINE_COUNT              3
//   97 #define LCD_MAX_LINE_LENGTH             16
//   98 #define LCD_MAX_BUF                     25
//   99 
//  100 /* Defines for HW LCD */
//  101 
//  102 /* Set power save mode */
//  103 #define OSC_OFF                         0x00
//  104 #define OSC_ON                          0x01
//  105 #define POWER_SAVE_OFF                  0x00
//  106 #define POWER_SAVE_ON                   0x02
//  107 #define SET_POWER_SAVE_MODE(options)    HalLcd_HW_Control(0x0C | (options))
//  108 
//  109 /* Function Set */
//  110 #define CGROM                           0x00
//  111 #define CGRAM                           0x01
//  112 #define COM_FORWARD                     0x00
//  113 #define COM_BACKWARD                    0x02
//  114 #define TWO_LINE                        0x00
//  115 #define THREE_LINE                      0x04
//  116 #define FUNCTION_SET(options)           HalLcd_HW_Control(0x10 | (options))
//  117 
//  118 /* Set Display Start Line */
//  119 #define LINE1                           0x00
//  120 #define LINE2                           0x01
//  121 #define LINE3                           0x02
//  122 #define LINE4                           0x03
//  123 #define SET_DISPLAY_START_LINE(line)    HalLcd_HW_Control(0x18 | (line))
//  124 
//  125 /* Bias control */
//  126 #define BIAS_1_5                        0x00
//  127 #define BIAS_1_4                        0x01
//  128 #define SET_BIAS_CTRL(bias)             HalLcd_HW_Control(0x1C | (bias))
//  129 
//  130 /* Power control */
//  131 #define VOLTAGE_DIVIDER_OFF             0x00
//  132 #define VOLTAGE_DIVIDER_ON              0x01
//  133 #define CONVERTER_AND_REG_OFF           0x00
//  134 #define CONVERTER_AND_REG_ON            0x04
//  135 #define SET_POWER_CTRL(options)         HalLcd_HW_Control(0x20 | (options))
//  136 
//  137 // Set display control
//  138 #define DISPLAY_CTRL_ON                 0x01
//  139 #define DISPLAY_CTRL_OFF                0x00
//  140 #define DISPLAY_CTRL_BLINK_ON           0x02
//  141 #define DISPLAY_CTRL_BLINK_OFF          0x00
//  142 #define DISPLAY_CTRL_CURSOR_ON          0x04
//  143 #define DISPLAY_CTRL_CURSOR_OFF         0x00
//  144 #define SET_DISPLAY_CTRL(options)       HalLcd_HW_Control(0x28 | (options))
//  145 
//  146 /* Set DD/ CGRAM address */
//  147 #define SET_DDRAM_ADDR(charIndex)       HalLcd_HW_Control(0x80 | (charIndex))
//  148 #define SET_GCRAM_CHAR(specIndex)       HalLcd_HW_Control(0xC0 | (specIndex))
//  149 
//  150 /* Set ICONRAM address */
//  151 #define CONTRAST_CTRL_REGISTER          0x10
//  152 #define SET_ICONRAM_ADDR(addr)          HalLcd_HW_Control(0x40 | (addr))
//  153 
//  154 /* Set double height */
//  155 #define LINE_1_AND_2                    0x01
//  156 #define LINE_2_AND_3                    0x02
//  157 #define NORMAL_DISPLAY                  0x00
//  158 #define SET_DOUBLE_HEIGHT(options)      HalLcd_HW_Control(0x08 | (options))
//  159 
//  160 /**************************************************************************************************
//  161  *                                           MACROS
//  162  **************************************************************************************************/
//  163 
//  164 #define HAL_IO_SET(port, pin, val)        HAL_IO_SET_PREP(port, pin, val)
//  165 #define HAL_IO_SET_PREP(port, pin, val)   st( P##port##_##pin## = val; )
//  166 
//  167 #define HAL_CONFIG_IO_OUTPUT(port, pin, val)      HAL_CONFIG_IO_OUTPUT_PREP(port, pin, val)
//  168 #define HAL_CONFIG_IO_OUTPUT_PREP(port, pin, val) st( P##port##SEL &= ~BV(pin); \ 
//  169                                                       P##port##_##pin## = val; \ 
//  170                                                       P##port##DIR |= BV(pin); )
//  171 
//  172 #define HAL_CONFIG_IO_PERIPHERAL(port, pin)      HAL_CONFIG_IO_PERIPHERAL_PREP(port, pin)
//  173 #define HAL_CONFIG_IO_PERIPHERAL_PREP(port, pin) st( P##port##SEL |= BV(pin); )
//  174 
//  175 
//  176 
//  177 /* SPI interface control */
//  178 #define LCD_SPI_BEGIN()     HAL_IO_SET(HAL_LCD_CS_PORT,  HAL_LCD_CS_PIN,  0); /* chip select */
//  179 #define LCD_SPI_END()                                                         \ 
//  180 {                                                                             \ 
//  181   asm("NOP");                                                                 \ 
//  182   asm("NOP");                                                                 \ 
//  183   asm("NOP");                                                                 \ 
//  184   asm("NOP");                                                                 \ 
//  185   HAL_IO_SET(HAL_LCD_CS_PORT,  HAL_LCD_CS_PIN,  1); /* chip select */         \ 
//  186 }
//  187 /* clear the received and transmit byte status, write tx data to buffer, wait till transmit done */
//  188 #define LCD_SPI_TX(x)                   { U1CSR &= ~(BV(2) | BV(1)); U1DBUF = x; while( !(U1CSR & BV(1)) ); }
//  189 #define LCD_SPI_WAIT_RXRDY()            { while(!(U1CSR & BV(1))); }
//  190 
//  191 
//  192 /* Control macros */
//  193 #define LCD_DO_WRITE()        HAL_IO_SET(HAL_LCD_MODE_PORT,  HAL_LCD_MODE_PIN,  1);
//  194 #define LCD_DO_CONTROL()      HAL_IO_SET(HAL_LCD_MODE_PORT,  HAL_LCD_MODE_PIN,  0);
//  195 
//  196 #define LCD_ACTIVATE_RESET()  HAL_IO_SET(HAL_LCD_RESET_PORT, HAL_LCD_RESET_PIN, 0);
//  197 #define LCD_RELEASE_RESET()   HAL_IO_SET(HAL_LCD_RESET_PORT, HAL_LCD_RESET_PIN, 1);
//  198 
//  199 #if (HAL_LCD == TRUE)
//  200 /**************************************************************************************************
//  201  *                                       LOCAL VARIABLES
//  202  **************************************************************************************************/
//  203 

        RSEG XDATA_Z:XDATA:NOROOT(0)
        DATA16
//  204 static uint8 *Lcd_Line1;
Lcd_Line1:
        DS 2
        REQUIRE __INIT_XDATA_Z
//  205 
//  206 /**************************************************************************************************
//  207  *                                       FUNCTIONS - API
//  208  **************************************************************************************************/
//  209 
//  210 void HalLcd_HW_Init(void);
//  211 void HalLcd_HW_WaitUs(uint16 i);
//  212 void HalLcd_HW_Clear(void);
//  213 void HalLcd_HW_ClearAllSpecChars(void);
//  214 void HalLcd_HW_Control(uint8 cmd);
//  215 void HalLcd_HW_Write(uint8 data);
//  216 void HalLcd_HW_SetContrast(uint8 value);
//  217 void HalLcd_HW_WriteChar(uint8 line, uint8 col, char text);
//  218 void HalLcd_HW_WriteLine(uint8 line, const char *pText);
//  219 #endif //LCD
//  220 
//  221 /**************************************************************************************************
//  222  * @fn      HalLcdInit
//  223  *
//  224  * @brief   Initilize LCD Service
//  225  *
//  226  * @param   init - pointer to void that contains the initialized value
//  227  *
//  228  * @return  None
//  229  **************************************************************************************************/

        RSEG BANKED_CODE:CODE:NOROOT(0)
//  230 void HalLcdInit(void)
HalLcdInit:
        CFI Block cfiBlock0 Using cfiCommon0
        CFI Function HalLcdInit
        CODE
//  231 {
        FUNCALL HalLcdInit, HalLcd_HW_Init
        LOCFRAME ISTACK, 2, STACK
        LOCFRAME PSTACK, 0, STACK
        LOCFRAME XSTACK, 0, STACK
        LOCFRAME IOVERLAY, 0, STATIC
        LOCFRAME DOVERLAY, 0, STATIC
        ARGFRAME ISTACK, 2, STACK
        ARGFRAME PSTACK, 0, STACK
        ARGFRAME XSTACK, 0, STACK
        ARGFRAME IOVERLAY, 0, STATIC
        ARGFRAME DOVERLAY, 0, STATIC
        PUSH    DPL
        CFI DPL0 Frame(CFA_SP, 4)
        CFI CFA_SP SP+-4
        PUSH    DPH
        CFI DPH0 Frame(CFA_SP, 5)
        CFI CFA_SP SP+-5
        ; Saved register size: 2
        ; Auto size: 0
//  232 #if (HAL_LCD == TRUE)
//  233   Lcd_Line1 = NULL;
        MOV     DPTR,#Lcd_Line1
        CLR     A
        MOVX    @DPTR,A
        INC     DPTR
        MOVX    @DPTR,A
//  234   HalLcd_HW_Init();
        ; Setup parameters for call to function HalLcd_HW_Init
        LCALL   ??HalLcd_HW_Init?relay
        CFI EndBlock cfiBlock0
//  235 #endif
//  236 }
        REQUIRE ?Subroutine1
        ; // Fall through to label ?Subroutine1

        RSEG BANKED_CODE:CODE:NOROOT(0)
?Subroutine1:
        CFI Block cfiBlock1 Using cfiCommon0
        CFI NoFunction
        CFI CFA_SP SP+-5
        CFI DPL0 Frame(CFA_SP, 4)
        CFI DPH0 Frame(CFA_SP, 5)
        POP     DPH
        CFI CFA_SP SP+-4
        CFI DPH0 SameValue
        POP     DPL
        CFI CFA_SP SP+-3
        CFI DPL0 SameValue
        LJMP    ?BRET
        CFI EndBlock cfiBlock1
//  237 
//  238 /*************************************************************************************************
//  239  *                    LCD EMULATION FUNCTIONS
//  240  *
//  241  * Some evaluation boards are equipped with Liquid Crystal Displays
//  242  * (LCD) which may be used to display diagnostic information. These
//  243  * functions provide LCD emulation, sending the diagnostic strings
//  244  * to Z-Tool via the RS232 serial port. These functions are enabled
//  245  * when the "LCD_SUPPORTED" compiler flag is placed in the makefile.
//  246  *
//  247  * Most applications update both lines (1 and 2) of the LCD whenever
//  248  * text is posted to the device. This emulator assumes that line 1 is
//  249  * updated first (saved locally) and the formatting and send operation
//  250  * is triggered by receipt of line 2. Nothing will be transmitted if
//  251  * only line 1 is updated.
//  252  *
//  253  *************************************************************************************************/
//  254 
//  255 
//  256 /**************************************************************************************************
//  257  * @fn      HalLcdWriteString
//  258  *
//  259  * @brief   Write a string to the LCD
//  260  *
//  261  * @param   str    - pointer to the string that will be displayed
//  262  *          option - display options
//  263  *
//  264  * @return  None
//  265  **************************************************************************************************/

        RSEG BANKED_CODE:CODE:NOROOT(0)
//  266 void HalLcdWriteString ( char *str, uint8 option)
HalLcdWriteString:
        CFI Block cfiBlock2 Using cfiCommon0
        CFI Function HalLcdWriteString
        CODE
//  267 {
        FUNCALL HalLcdWriteString, osal_mem_alloc
        LOCFRAME ISTACK, 0, STACK
        LOCFRAME PSTACK, 0, STACK
        LOCFRAME XSTACK, 17, STACK
        LOCFRAME IOVERLAY, 0, STATIC
        LOCFRAME DOVERLAY, 0, STATIC
        ARGFRAME ISTACK, 0, STACK
        ARGFRAME PSTACK, 0, STACK
        ARGFRAME XSTACK, 17, STACK
        ARGFRAME IOVERLAY, 0, STATIC
        ARGFRAME DOVERLAY, 0, STATIC
        FUNCALL HalLcdWriteString, HalLcdWriteString
        LOCFRAME ISTACK, 0, STACK
        LOCFRAME PSTACK, 0, STACK
        LOCFRAME XSTACK, 17, STACK
        LOCFRAME IOVERLAY, 0, STATIC
        LOCFRAME DOVERLAY, 0, STATIC
        ARGFRAME ISTACK, 0, STACK
        ARGFRAME PSTACK, 0, STACK
        ARGFRAME XSTACK, 17, STACK
        ARGFRAME IOVERLAY, 0, STATIC
        ARGFRAME DOVERLAY, 0, STATIC
        FUNCALL HalLcdWriteString, osal_strlen
        LOCFRAME ISTACK, 0, STACK
        LOCFRAME PSTACK, 0, STACK
        LOCFRAME XSTACK, 17, STACK
        LOCFRAME IOVERLAY, 0, STATIC
        LOCFRAME DOVERLAY, 0, STATIC
        ARGFRAME ISTACK, 0, STACK
        ARGFRAME PSTACK, 0, STACK
        ARGFRAME XSTACK, 17, STACK
        ARGFRAME IOVERLAY, 0, STATIC
        ARGFRAME DOVERLAY, 0, STATIC
        FUNCALL HalLcdWriteString, osal_memcpy
        LOCFRAME ISTACK, 0, STACK
        LOCFRAME PSTACK, 0, STACK
        LOCFRAME XSTACK, 20, STACK
        LOCFRAME IOVERLAY, 0, STATIC
        LOCFRAME DOVERLAY, 0, STATIC
        ARGFRAME ISTACK, 0, STACK
        ARGFRAME PSTACK, 0, STACK
        ARGFRAME XSTACK, 20, STACK
        ARGFRAME IOVERLAY, 0, STATIC
        ARGFRAME DOVERLAY, 0, STATIC
        FUNCALL HalLcdWriteString, osal_strlen
        LOCFRAME ISTACK, 0, STACK
        LOCFRAME PSTACK, 0, STACK
        LOCFRAME XSTACK, 17, STACK
        LOCFRAME IOVERLAY, 0, STATIC
        LOCFRAME DOVERLAY, 0, STATIC
        ARGFRAME ISTACK, 0, STACK
        ARGFRAME PSTACK, 0, STACK
        ARGFRAME XSTACK, 17, STACK
        ARGFRAME IOVERLAY, 0, STATIC
        ARGFRAME DOVERLAY, 0, STATIC
        FUNCALL HalLcdWriteString, osal_mem_alloc
        LOCFRAME ISTACK, 0, STACK
        LOCFRAME PSTACK, 0, STACK
        LOCFRAME XSTACK, 17, STACK
        LOCFRAME IOVERLAY, 0, STATIC
        LOCFRAME DOVERLAY, 0, STATIC
        ARGFRAME ISTACK, 0, STACK
        ARGFRAME PSTACK, 0, STACK
        ARGFRAME XSTACK, 17, STACK
        ARGFRAME IOVERLAY, 0, STATIC
        ARGFRAME DOVERLAY, 0, STATIC
        FUNCALL HalLcdWriteString, osal_memcpy
        LOCFRAME ISTACK, 0, STACK
        LOCFRAME PSTACK, 0, STACK
        LOCFRAME XSTACK, 20, STACK
        LOCFRAME IOVERLAY, 0, STATIC
        LOCFRAME DOVERLAY, 0, STATIC
        ARGFRAME ISTACK, 0, STACK
        ARGFRAME PSTACK, 0, STACK
        ARGFRAME XSTACK, 20, STACK
        ARGFRAME IOVERLAY, 0, STATIC
        ARGFRAME DOVERLAY, 0, STATIC
        FUNCALL HalLcdWriteString, osal_memcpy
        LOCFRAME ISTACK, 0, STACK
        LOCFRAME PSTACK, 0, STACK
        LOCFRAME XSTACK, 20, STACK
        LOCFRAME IOVERLAY, 0, STATIC
        LOCFRAME DOVERLAY, 0, STATIC
        ARGFRAME ISTACK, 0, STACK
        ARGFRAME PSTACK, 0, STACK
        ARGFRAME XSTACK, 20, STACK
        ARGFRAME IOVERLAY, 0, STATIC
        ARGFRAME DOVERLAY, 0, STATIC
        FUNCALL HalLcdWriteString, osal_mem_free
        LOCFRAME ISTACK, 0, STACK
        LOCFRAME PSTACK, 0, STACK
        LOCFRAME XSTACK, 17, STACK
        LOCFRAME IOVERLAY, 0, STATIC
        LOCFRAME DOVERLAY, 0, STATIC
        ARGFRAME ISTACK, 0, STACK
        ARGFRAME PSTACK, 0, STACK
        ARGFRAME XSTACK, 17, STACK
        ARGFRAME IOVERLAY, 0, STATIC
        ARGFRAME DOVERLAY, 0, STATIC
        FUNCALL HalLcdWriteString, HalLcd_HW_WriteLine
        LOCFRAME ISTACK, 0, STACK
        LOCFRAME PSTACK, 0, STACK
        LOCFRAME XSTACK, 17, STACK
        LOCFRAME IOVERLAY, 0, STATIC
        LOCFRAME DOVERLAY, 0, STATIC
        ARGFRAME ISTACK, 0, STACK
        ARGFRAME PSTACK, 0, STACK
        ARGFRAME XSTACK, 17, STACK
        ARGFRAME IOVERLAY, 0, STATIC
        ARGFRAME DOVERLAY, 0, STATIC
        MOV     A,#-0x11
        LCALL   ?BANKED_ENTER_XDATA
        CFI DPH0 load(1, XDATA, add(CFA_XSP16, literal(-1)))
        CFI DPL0 load(1, XDATA, add(CFA_XSP16, literal(-2)))
        CFI ?BRET_EXT load(1, XDATA, add(CFA_XSP16, literal(-3)))
        CFI ?RET_HIGH load(1, XDATA, add(CFA_XSP16, literal(-4)))
        CFI ?RET_LOW load(1, XDATA, add(CFA_XSP16, literal(-5)))
        CFI R7 load(1, XDATA, add(CFA_XSP16, literal(-6)))
        CFI V8 load(1, XDATA, add(CFA_XSP16, literal(-7)))
        CFI V7 load(1, XDATA, add(CFA_XSP16, literal(-8)))
        CFI V6 load(1, XDATA, add(CFA_XSP16, literal(-9)))
        CFI V5 load(1, XDATA, add(CFA_XSP16, literal(-10)))
        CFI V4 load(1, XDATA, add(CFA_XSP16, literal(-11)))
        CFI V3 load(1, XDATA, add(CFA_XSP16, literal(-12)))
        CFI V2 load(1, XDATA, add(CFA_XSP16, literal(-13)))
        CFI V1 load(1, XDATA, add(CFA_XSP16, literal(-14)))
        CFI V0 load(1, XDATA, add(CFA_XSP16, literal(-15)))
        CFI VB load(1, XDATA, add(CFA_XSP16, literal(-16)))
        CFI R6 load(1, XDATA, add(CFA_XSP16, literal(-17)))
        CFI CFA_SP SP+0
        CFI CFA_XSP16 add(XSP16, 17)
        ; Saved register size: 17
        ; Auto size: 0
        MOV     A,R2
        MOV     R6,A
        MOV     A,R3
        MOV     R7,A
        MOV     ?V0 + 8,R1
//  268 #if (HAL_LCD == TRUE)
//  269 
//  270   uint8 strLen = 0;
//  271   uint8 totalLen = 0;
//  272   uint8 *buf;
//  273   uint8 tmpLen;
//  274 
//  275   if ( Lcd_Line1 == NULL )
        MOV     DPTR,#Lcd_Line1
        MOVX    A,@DPTR
        MOV     R0,A
        INC     DPTR
        MOVX    A,@DPTR
        MOV     R1,A
        MOV     A,R0
        ORL     A,R1
        JNZ     ??HalLcdWriteString_0
//  276   {
//  277     Lcd_Line1 = osal_mem_alloc( HAL_LCD_MAX_CHARS+1 );
        ; Setup parameters for call to function osal_mem_alloc
        MOV     R2,#0x11
        MOV     R3,#0x0
        LCALL   ??osal_mem_alloc?relay
        MOV     DPTR,#Lcd_Line1
        MOV     A,R2
        MOVX    @DPTR,A
        INC     DPTR
        MOV     A,R3
        MOVX    @DPTR,A
//  278     HalLcdWriteString( "TexasInstruments", 1 );
        ; Setup parameters for call to function HalLcdWriteString
        MOV     R1,#0x1
        MOV     R2,#`?<Constant "TexasInstruments">` & 0xff
        MOV     R3,#(`?<Constant "TexasInstruments">` >> 8) & 0xff
        LCALL   ??HalLcdWriteString?relay
//  279   }
//  280 
//  281   strLen = (uint8)osal_strlen( (char*)str );
??HalLcdWriteString_0:
        ; Setup parameters for call to function osal_strlen
        MOV     A,R6
        MOV     R2,A
        MOV     A,R7
        MOV     R3,A
        LCALL   ??osal_strlen?relay
        MOV     A,R2
        MOV     ?V0 + 7,A
//  282 
//  283   /* Check boundries */
//  284   if ( strLen > HAL_LCD_MAX_CHARS )
        CLR     C
        SUBB    A,#0x11
        JC      ??HalLcdWriteString_1
//  285     strLen = HAL_LCD_MAX_CHARS;
        MOV     ?V0 + 7,#0x10
//  286 
//  287   if ( option == HAL_LCD_LINE_1 )
??HalLcdWriteString_1:
        MOV     A,#0x1
        XRL     A,?V0 + 8
        JNZ     ??HalLcdWriteString_2
//  288   {
//  289     /* Line 1 gets saved for later */
//  290     osal_memcpy( Lcd_Line1, str, strLen );
        ; Setup parameters for call to function osal_memcpy
        MOV     ?V0 + 0,R6
        MOV     ?V0 + 1,R7
        MOV     ?V0 + 2,#0x0
        MOV     R0,#?V0 + 0
        LCALL   ?PUSH_XSTACK_I_THREE
        CFI CFA_XSP16 add(XSP16, 20)
        MOV     ?V0 + 0,?V0 + 7
        MOV     R4,?V0 + 0
        MOV     R5,#0x0
        MOV     DPTR,#Lcd_Line1
        MOVX    A,@DPTR
        MOV     R2,A
        INC     DPTR
        MOVX    A,@DPTR
        MOV     R3,A
        LCALL   ??Subroutine10_0 & 0xFFFF
??CrossCallReturnLabel_13:
        LCALL   ?DEALLOC_XSTACK8
        CFI CFA_XSP16 add(XSP16, 17)
//  291     Lcd_Line1[strLen] = '\0';
        MOV     R0,?V0 + 7
        MOV     DPTR,#Lcd_Line1
        MOVX    A,@DPTR
        ADD     A,R0
        MOV     R2,A
        INC     DPTR
        MOVX    A,@DPTR
        ADDC    A,#0x0
        MOV     DPL,R2
        MOV     DPH,A
        CLR     A
        MOVX    @DPTR,A
        LJMP    ??HalLcdWriteString_3 & 0xFFFF
//  292   }
//  293   else
//  294   {
//  295     /* Line 2 triggers action */
//  296     tmpLen = (uint8)osal_strlen( (char*)Lcd_Line1 );
??HalLcdWriteString_2:
        ; Setup parameters for call to function osal_strlen
        MOV     DPTR,#Lcd_Line1
        MOVX    A,@DPTR
        MOV     R2,A
        INC     DPTR
        MOVX    A,@DPTR
        MOV     R3,A
        LCALL   ?Subroutine6 & 0xFFFF
//  297     totalLen =  tmpLen + 1 + strLen + 1;
//  298     buf = osal_mem_alloc( totalLen );
??CrossCallReturnLabel_0:
        ; Setup parameters for call to function osal_mem_alloc
        ADD     A,?V0 + 7
        ADD     A,#0x2
        MOV     R2,A
        MOV     R3,#0x0
        LCALL   ??osal_mem_alloc?relay
        MOV     ?V0 + 0,R2
        MOV     ?V0 + 1,R3
//  299     if ( buf != NULL )
        MOV     A,R2
        ORL     A,?V0 + 1
        JZ      ??HalLcdWriteString_3
//  300     {
//  301       /* Concatenate strings */
//  302       osal_memcpy( buf, Lcd_Line1, tmpLen );
        ; Setup parameters for call to function osal_memcpy
        MOV     DPTR,#Lcd_Line1
        MOVX    A,@DPTR
        MOV     ?V0 + 4,A
        INC     DPTR
        MOVX    A,@DPTR
        MOV     ?V0 + 5,A
        MOV     ?V0 + 6,#0x0
        MOV     R0,#?V0 + 4
        LCALL   ?PUSH_XSTACK_I_THREE
        CFI CFA_XSP16 add(XSP16, 20)
        MOV     ?V0 + 4,?V0 + 2
        MOV     R4,?V0 + 4
        MOV     R5,#0x0
        LCALL   ??Subroutine10_0 & 0xFFFF
??CrossCallReturnLabel_14:
        LCALL   ?DEALLOC_XSTACK8
        CFI CFA_XSP16 add(XSP16, 17)
//  303       buf[tmpLen++] = ' ';
        MOV     A,?V0 + 0
        ADD     A,?V0 + 4
        MOV     DPL,A
        MOV     A,?V0 + 1
        LCALL   ??Subroutine12_0 & 0xFFFF
??CrossCallReturnLabel_16:
        INC     ?V0 + 2
//  304       osal_memcpy( &buf[tmpLen], str, strLen );
        ; Setup parameters for call to function osal_memcpy
        MOV     ?V0 + 4,R6
        MOV     ?V0 + 5,R7
        MOV     R0,#?V0 + 4
        LCALL   ?PUSH_XSTACK_I_THREE
        CFI CFA_XSP16 add(XSP16, 20)
        MOV     ?V0 + 4,?V0 + 7
        MOV     R4,?V0 + 4
        MOV     R5,#0x0
        MOV     A,?V0 + 0
        ADD     A,?V0 + 2
        MOV     R2,A
        MOV     A,?V0 + 1
        ADDC    A,#0x0
        MOV     R3,A
        LCALL   ??Subroutine10_0 & 0xFFFF
??CrossCallReturnLabel_15:
        LCALL   ?DEALLOC_XSTACK8
        CFI CFA_XSP16 add(XSP16, 17)
//  305       buf[tmpLen+strLen] = '\0';
        MOV     A,?V0 + 2
        ADD     A,?V0 + 4
        MOV     R0,A
        CLR     A
        ADDC    A,#0x0
        MOV     R1,A
        MOV     A,?V0 + 0
        ADD     A,R0
        MOV     DPL,A
        MOV     A,?V0 + 1
        ADDC    A,R1
        MOV     DPH,A
        CLR     A
        MOVX    @DPTR,A
//  306 
//  307       /* Send it out */
//  308 #if defined (ZTOOL_P1) || defined (ZTOOL_P2)
//  309 
//  310 #if defined(SERIAL_DEBUG_SUPPORTED)
//  311       debug_str( (uint8*)buf );
//  312 #endif //LCD_SUPPORTED
//  313 
//  314 #endif //ZTOOL_P1
//  315 
//  316       /* Free mem */
//  317       osal_mem_free( buf );
        ; Setup parameters for call to function osal_mem_free
        MOV     R2,?V0 + 0
        MOV     R3,?V0 + 1
        LCALL   ??osal_mem_free?relay
//  318     }
//  319   }
//  320 
//  321   /* Display the string */
//  322   HalLcd_HW_WriteLine (option, str);
??HalLcdWriteString_3:
        ; Setup parameters for call to function HalLcd_HW_WriteLine
        MOV     A,R6
        MOV     R2,A
        MOV     A,R7
        MOV     R3,A
        MOV     R1,?V0 + 8
        LCALL   ??HalLcd_HW_WriteLine?relay
//  323 
//  324 #endif //HAL_LCD
//  325 
//  326 }
        MOV     R7,#0x9
        LJMP    ?BANKED_LEAVE_XDATA
        CFI EndBlock cfiBlock2
//  327 
//  328 /**************************************************************************************************
//  329  * @fn      HalLcdWriteValue
//  330  *
//  331  * @brief   Write a value to the LCD
//  332  *
//  333  * @param   value  - value that will be displayed
//  334  *          radix  - 8, 10, 16
//  335  *          option - display options
//  336  *
//  337  * @return  None
//  338  **************************************************************************************************/

        RSEG BANKED_CODE:CODE:NOROOT(0)
//  339 void HalLcdWriteValue ( uint32 value, const uint8 radix, uint8 option)
HalLcdWriteValue:
        CFI Block cfiBlock3 Using cfiCommon0
        CFI Function HalLcdWriteValue
        CODE
//  340 {
        FUNCALL HalLcdWriteValue, _ltoa
        LOCFRAME ISTACK, 0, STACK
        LOCFRAME PSTACK, 0, STACK
        LOCFRAME XSTACK, 43, STACK
        LOCFRAME IOVERLAY, 0, STATIC
        LOCFRAME DOVERLAY, 0, STATIC
        ARGFRAME ISTACK, 0, STACK
        ARGFRAME PSTACK, 0, STACK
        ARGFRAME XSTACK, 43, STACK
        ARGFRAME IOVERLAY, 0, STATIC
        ARGFRAME DOVERLAY, 0, STATIC
        FUNCALL HalLcdWriteValue, HalLcdWriteString
        LOCFRAME ISTACK, 0, STACK
        LOCFRAME PSTACK, 0, STACK
        LOCFRAME XSTACK, 41, STACK
        LOCFRAME IOVERLAY, 0, STATIC
        LOCFRAME DOVERLAY, 0, STATIC
        ARGFRAME ISTACK, 0, STACK
        ARGFRAME PSTACK, 0, STACK
        ARGFRAME XSTACK, 41, STACK
        ARGFRAME IOVERLAY, 0, STATIC
        ARGFRAME DOVERLAY, 0, STATIC
        MOV     A,#-0x10
        LCALL   ?BANKED_ENTER_XDATA
        CFI DPH0 load(1, XDATA, add(CFA_XSP16, literal(-1)))
        CFI DPL0 load(1, XDATA, add(CFA_XSP16, literal(-2)))
        CFI ?BRET_EXT load(1, XDATA, add(CFA_XSP16, literal(-3)))
        CFI ?RET_HIGH load(1, XDATA, add(CFA_XSP16, literal(-4)))
        CFI ?RET_LOW load(1, XDATA, add(CFA_XSP16, literal(-5)))
        CFI R7 load(1, XDATA, add(CFA_XSP16, literal(-6)))
        CFI V7 load(1, XDATA, add(CFA_XSP16, literal(-7)))
        CFI V6 load(1, XDATA, add(CFA_XSP16, literal(-8)))
        CFI V5 load(1, XDATA, add(CFA_XSP16, literal(-9)))
        CFI V4 load(1, XDATA, add(CFA_XSP16, literal(-10)))
        CFI V3 load(1, XDATA, add(CFA_XSP16, literal(-11)))
        CFI V2 load(1, XDATA, add(CFA_XSP16, literal(-12)))
        CFI V1 load(1, XDATA, add(CFA_XSP16, literal(-13)))
        CFI V0 load(1, XDATA, add(CFA_XSP16, literal(-14)))
        CFI VB load(1, XDATA, add(CFA_XSP16, literal(-15)))
        CFI R6 load(1, XDATA, add(CFA_XSP16, literal(-16)))
        CFI CFA_SP SP+0
        CFI CFA_XSP16 add(XSP16, 16)
        ; Saved register size: 16
        ; Auto size: 25
        MOV     A,#-0x19
        LCALL   ?ALLOC_XSTACK8
        CFI CFA_XSP16 add(XSP16, 41)
        MOV     A,#0x29
        LCALL   ?XSTACK_DISP0_8
        MOVX    A,@DPTR
        MOV     R6,A
//  341 #if (HAL_LCD == TRUE)
//  342   uint8 buf[LCD_MAX_BUF];
//  343 
//  344   _ltoa( value, &buf[0], radix );
        ; Setup parameters for call to function _ltoa
        MOV     DPL,?XSP + 0
        MOV     DPH,?XSP + 1
        MOV     ?V0 + 0,DPL
        MOV     ?V0 + 1,DPH
        MOV     R0,#?V0 + 0
        LCALL   ?PUSH_XSTACK_I_TWO
        CFI CFA_XSP16 add(XSP16, 43)
        LCALL   ??Subroutine9_0 & 0xFFFF
??CrossCallReturnLabel_9:
        LCALL   ?DEALLOC_XSTACK8
        CFI CFA_XSP16 add(XSP16, 41)
//  345   HalLcdWriteString( (char*)buf, option );
        ; Setup parameters for call to function HalLcdWriteString
        MOV     A,R6
        MOV     R1,A
        MOV     DPL,?XSP + 0
        MOV     DPH,?XSP + 1
        MOV     R2,DPL
        MOV     R3,DPH
        LCALL   ??HalLcdWriteString?relay
//  346 #endif
//  347 }
        MOV     A,#0x19
        LCALL   ?DEALLOC_XSTACK8
        CFI CFA_XSP16 add(XSP16, 16)
        MOV     R7,#0x8
        LJMP    ?BANKED_LEAVE_XDATA
        CFI EndBlock cfiBlock3
//  348 
//  349 /**************************************************************************************************
//  350  * @fn      HalLcdWriteScreen
//  351  *
//  352  * @brief   Write a value to the LCD
//  353  *
//  354  * @param   line1  - string that will be displayed on line 1
//  355  *          line2  - string that will be displayed on line 2
//  356  *
//  357  * @return  None
//  358  **************************************************************************************************/

        RSEG BANKED_CODE:CODE:NOROOT(0)
//  359 void HalLcdWriteScreen( char *line1, char *line2 )
HalLcdWriteScreen:
        CFI Block cfiBlock4 Using cfiCommon0
        CFI Function HalLcdWriteScreen
        CODE
//  360 {
        FUNCALL HalLcdWriteScreen, HalLcdWriteString
        LOCFRAME ISTACK, 0, STACK
        LOCFRAME PSTACK, 0, STACK
        LOCFRAME XSTACK, 9, STACK
        LOCFRAME IOVERLAY, 0, STATIC
        LOCFRAME DOVERLAY, 0, STATIC
        ARGFRAME ISTACK, 0, STACK
        ARGFRAME PSTACK, 0, STACK
        ARGFRAME XSTACK, 9, STACK
        ARGFRAME IOVERLAY, 0, STATIC
        ARGFRAME DOVERLAY, 0, STATIC
        FUNCALL HalLcdWriteScreen, HalLcdWriteString
        LOCFRAME ISTACK, 0, STACK
        LOCFRAME PSTACK, 0, STACK
        LOCFRAME XSTACK, 9, STACK
        LOCFRAME IOVERLAY, 0, STATIC
        LOCFRAME DOVERLAY, 0, STATIC
        ARGFRAME ISTACK, 0, STACK
        ARGFRAME PSTACK, 0, STACK
        ARGFRAME XSTACK, 9, STACK
        ARGFRAME IOVERLAY, 0, STATIC
        ARGFRAME DOVERLAY, 0, STATIC
        MOV     A,#-0x9
        LCALL   ?BANKED_ENTER_XDATA
        CFI DPH0 load(1, XDATA, add(CFA_XSP16, literal(-1)))
        CFI DPL0 load(1, XDATA, add(CFA_XSP16, literal(-2)))
        CFI ?BRET_EXT load(1, XDATA, add(CFA_XSP16, literal(-3)))
        CFI ?RET_HIGH load(1, XDATA, add(CFA_XSP16, literal(-4)))
        CFI ?RET_LOW load(1, XDATA, add(CFA_XSP16, literal(-5)))
        CFI R7 load(1, XDATA, add(CFA_XSP16, literal(-6)))
        CFI V0 load(1, XDATA, add(CFA_XSP16, literal(-7)))
        CFI VB load(1, XDATA, add(CFA_XSP16, literal(-8)))
        CFI R6 load(1, XDATA, add(CFA_XSP16, literal(-9)))
        CFI CFA_SP SP+0
        CFI CFA_XSP16 add(XSP16, 9)
        ; Saved register size: 9
        ; Auto size: 0
        MOV     A,R4
        MOV     R6,A
        MOV     A,R5
        MOV     R7,A
//  361 #if (HAL_LCD == TRUE)
//  362   HalLcdWriteString( line1, 1 );
        ; Setup parameters for call to function HalLcdWriteString
        MOV     R1,#0x1
        LCALL   ??HalLcdWriteString?relay
//  363   HalLcdWriteString( line2, 2 );
        ; Setup parameters for call to function HalLcdWriteString
        MOV     R1,#0x2
        MOV     A,R6
        MOV     R2,A
        MOV     A,R7
        MOV     R3,A
        LCALL   ??HalLcdWriteString?relay
//  364 #endif
//  365 }
        LJMP    ?Subroutine2 & 0xFFFF
        CFI EndBlock cfiBlock4
//  366 
//  367 /**************************************************************************************************
//  368  * @fn      HalLcdWriteStringValue
//  369  *
//  370  * @brief   Write a string followed by a value to the LCD
//  371  *
//  372  * @param   title  - Title that will be displayed before the value
//  373  *          value  - value
//  374  *          format - redix
//  375  *          line   - line number
//  376  *
//  377  * @return  None
//  378  **************************************************************************************************/

        RSEG BANKED_CODE:CODE:NOROOT(0)
//  379 void HalLcdWriteStringValue( char *title, uint16 value, uint8 format, uint8 line )
HalLcdWriteStringValue:
        CFI Block cfiBlock5 Using cfiCommon0
        CFI Function HalLcdWriteStringValue
        CODE
//  380 {
        FUNCALL HalLcdWriteStringValue, osal_strlen
        LOCFRAME ISTACK, 0, STACK
        LOCFRAME PSTACK, 0, STACK
        LOCFRAME XSTACK, 43, STACK
        LOCFRAME IOVERLAY, 0, STATIC
        LOCFRAME DOVERLAY, 0, STATIC
        ARGFRAME ISTACK, 0, STACK
        ARGFRAME PSTACK, 0, STACK
        ARGFRAME XSTACK, 43, STACK
        ARGFRAME IOVERLAY, 0, STATIC
        ARGFRAME DOVERLAY, 0, STATIC
        FUNCALL HalLcdWriteStringValue, osal_memcpy
        LOCFRAME ISTACK, 0, STACK
        LOCFRAME PSTACK, 0, STACK
        LOCFRAME XSTACK, 46, STACK
        LOCFRAME IOVERLAY, 0, STATIC
        LOCFRAME DOVERLAY, 0, STATIC
        ARGFRAME ISTACK, 0, STACK
        ARGFRAME PSTACK, 0, STACK
        ARGFRAME XSTACK, 46, STACK
        ARGFRAME IOVERLAY, 0, STATIC
        ARGFRAME DOVERLAY, 0, STATIC
        FUNCALL HalLcdWriteStringValue, _ltoa
        LOCFRAME ISTACK, 0, STACK
        LOCFRAME PSTACK, 0, STACK
        LOCFRAME XSTACK, 45, STACK
        LOCFRAME IOVERLAY, 0, STATIC
        LOCFRAME DOVERLAY, 0, STATIC
        ARGFRAME ISTACK, 0, STACK
        ARGFRAME PSTACK, 0, STACK
        ARGFRAME XSTACK, 45, STACK
        ARGFRAME IOVERLAY, 0, STATIC
        ARGFRAME DOVERLAY, 0, STATIC
        FUNCALL HalLcdWriteStringValue, HalLcdWriteString
        LOCFRAME ISTACK, 0, STACK
        LOCFRAME PSTACK, 0, STACK
        LOCFRAME XSTACK, 43, STACK
        LOCFRAME IOVERLAY, 0, STATIC
        LOCFRAME DOVERLAY, 0, STATIC
        ARGFRAME ISTACK, 0, STACK
        ARGFRAME PSTACK, 0, STACK
        ARGFRAME XSTACK, 43, STACK
        ARGFRAME IOVERLAY, 0, STATIC
        ARGFRAME DOVERLAY, 0, STATIC
        MOV     A,#-0x12
        LCALL   ?BANKED_ENTER_XDATA
        CFI DPH0 load(1, XDATA, add(CFA_XSP16, literal(-1)))
        CFI DPL0 load(1, XDATA, add(CFA_XSP16, literal(-2)))
        CFI ?BRET_EXT load(1, XDATA, add(CFA_XSP16, literal(-3)))
        CFI ?RET_HIGH load(1, XDATA, add(CFA_XSP16, literal(-4)))
        CFI ?RET_LOW load(1, XDATA, add(CFA_XSP16, literal(-5)))
        CFI R7 load(1, XDATA, add(CFA_XSP16, literal(-6)))
        CFI V9 load(1, XDATA, add(CFA_XSP16, literal(-7)))
        CFI V8 load(1, XDATA, add(CFA_XSP16, literal(-8)))
        CFI V7 load(1, XDATA, add(CFA_XSP16, literal(-9)))
        CFI V6 load(1, XDATA, add(CFA_XSP16, literal(-10)))
        CFI V5 load(1, XDATA, add(CFA_XSP16, literal(-11)))
        CFI V4 load(1, XDATA, add(CFA_XSP16, literal(-12)))
        CFI V3 load(1, XDATA, add(CFA_XSP16, literal(-13)))
        CFI V2 load(1, XDATA, add(CFA_XSP16, literal(-14)))
        CFI V1 load(1, XDATA, add(CFA_XSP16, literal(-15)))
        CFI V0 load(1, XDATA, add(CFA_XSP16, literal(-16)))
        CFI VB load(1, XDATA, add(CFA_XSP16, literal(-17)))
        CFI R6 load(1, XDATA, add(CFA_XSP16, literal(-18)))
        CFI CFA_SP SP+0
        CFI CFA_XSP16 add(XSP16, 18)
        ; Saved register size: 18
        ; Auto size: 25
        MOV     A,#-0x19
        LCALL   ?ALLOC_XSTACK8
        CFI CFA_XSP16 add(XSP16, 43)
        MOV     A,R2
        MOV     R6,A
        MOV     A,R3
        MOV     R7,A
        MOV     ?V0 + 8,R4
        MOV     ?V0 + 9,R5
        MOV     ?V0 + 0,R1
        MOV     A,#0x2b
        LCALL   ?XSTACK_DISP0_8
        MOVX    A,@DPTR
        MOV     ?V0 + 1,A
//  381 #if (HAL_LCD == TRUE)
//  382   uint8 tmpLen;
//  383   uint8 buf[LCD_MAX_BUF];
//  384   uint32 err;
//  385 
//  386   tmpLen = (uint8)osal_strlen( (char*)title );
        ; Setup parameters for call to function osal_strlen
        LCALL   ?Subroutine6 & 0xFFFF
//  387   osal_memcpy( buf, title, tmpLen );
??CrossCallReturnLabel_1:
        ; Setup parameters for call to function osal_memcpy
        MOV     ?V0 + 4,R6
        MOV     ?V0 + 5,R7
        MOV     ?V0 + 6,#0x0
        MOV     R0,#?V0 + 4
        LCALL   ?PUSH_XSTACK_I_THREE
        CFI CFA_XSP16 add(XSP16, 46)
        MOV     ?V0 + 4,R2
        MOV     R4,?V0 + 4
        MOV     R5,#0x0
        MOV     A,#0x3
        LCALL   ?XSTACK_DISP0_8
        LCALL   ?Subroutine4 & 0xFFFF
??CrossCallReturnLabel_10:
        LCALL   ?DEALLOC_XSTACK8
        CFI CFA_XSP16 add(XSP16, 43)
//  388   buf[tmpLen] = ' ';
        LCALL   ?Subroutine3 & 0xFFFF
//  389   err = (uint32)(value);
//  390   _ltoa( err, &buf[tmpLen+1], format );
??CrossCallReturnLabel_18:
        ; Setup parameters for call to function _ltoa
        INC     DPTR
        MOV     ?V0 + 2,DPL
        MOV     ?V0 + 3,DPH
        MOV     R0,#?V0 + 2
        LCALL   ?PUSH_XSTACK_I_TWO
        CFI CFA_XSP16 add(XSP16, 45)
        MOV     R1,?V0 + 0
        MOV     R2,?V0 + 8
        MOV     R3,?V0 + 9
        LCALL   ?Subroutine5 & 0xFFFF
??CrossCallReturnLabel_5:
        LCALL   ?DEALLOC_XSTACK8
        CFI CFA_XSP16 add(XSP16, 43)
//  391   HalLcdWriteString( (char*)buf, line );		
        ; Setup parameters for call to function HalLcdWriteString
        MOV     R1,?V0 + 1
        MOV     DPL,?XSP + 0
        MOV     DPH,?XSP + 1
        MOV     R2,DPL
        MOV     R3,DPH
        LCALL   ??HalLcdWriteString?relay
//  392 #endif
//  393 }
        MOV     A,#0x19
        LCALL   ?DEALLOC_XSTACK8
        CFI CFA_XSP16 add(XSP16, 18)
        MOV     R7,#0xa
        LJMP    ?BANKED_LEAVE_XDATA
        CFI EndBlock cfiBlock5

        RSEG BANKED_CODE:CODE:NOROOT(0)
?Subroutine6:
        CFI Block cfiCond6 Using cfiCommon0
        CFI NoFunction
        CFI Conditional ??CrossCallReturnLabel_0
        CFI R6 load(1, XDATA, add(CFA_XSP16, literal(-17)))
        CFI VB load(1, XDATA, add(CFA_XSP16, literal(-16)))
        CFI V0 load(1, XDATA, add(CFA_XSP16, literal(-15)))
        CFI V1 load(1, XDATA, add(CFA_XSP16, literal(-14)))
        CFI V2 load(1, XDATA, add(CFA_XSP16, literal(-13)))
        CFI V3 load(1, XDATA, add(CFA_XSP16, literal(-12)))
        CFI V4 load(1, XDATA, add(CFA_XSP16, literal(-11)))
        CFI V5 load(1, XDATA, add(CFA_XSP16, literal(-10)))
        CFI V6 load(1, XDATA, add(CFA_XSP16, literal(-9)))
        CFI V7 load(1, XDATA, add(CFA_XSP16, literal(-8)))
        CFI V8 load(1, XDATA, add(CFA_XSP16, literal(-7)))
        CFI R7 load(1, XDATA, add(CFA_XSP16, literal(-6)))
        CFI ?RET_LOW load(1, XDATA, add(CFA_XSP16, literal(-5)))
        CFI ?RET_HIGH load(1, XDATA, add(CFA_XSP16, literal(-4)))
        CFI ?BRET_EXT load(1, XDATA, add(CFA_XSP16, literal(-3)))
        CFI DPL0 load(1, XDATA, add(CFA_XSP16, literal(-2)))
        CFI DPH0 load(1, XDATA, add(CFA_XSP16, literal(-1)))
        CFI CFA_SP SP+0
        CFI CFA_XSP16 add(XSP16, 17)
        CFI Block cfiCond7 Using cfiCommon0
        CFI (cfiCond7) NoFunction
        CFI (cfiCond7) Conditional ??CrossCallReturnLabel_1
        CFI (cfiCond7) R6 load(1, XDATA, add(CFA_XSP16, literal(-18)))
        CFI (cfiCond7) VB load(1, XDATA, add(CFA_XSP16, literal(-17)))
        CFI (cfiCond7) V0 load(1, XDATA, add(CFA_XSP16, literal(-16)))
        CFI (cfiCond7) V1 load(1, XDATA, add(CFA_XSP16, literal(-15)))
        CFI (cfiCond7) V2 load(1, XDATA, add(CFA_XSP16, literal(-14)))
        CFI (cfiCond7) V3 load(1, XDATA, add(CFA_XSP16, literal(-13)))
        CFI (cfiCond7) V4 load(1, XDATA, add(CFA_XSP16, literal(-12)))
        CFI (cfiCond7) V5 load(1, XDATA, add(CFA_XSP16, literal(-11)))
        CFI (cfiCond7) V6 load(1, XDATA, add(CFA_XSP16, literal(-10)))
        CFI (cfiCond7) V7 load(1, XDATA, add(CFA_XSP16, literal(-9)))
        CFI (cfiCond7) V8 load(1, XDATA, add(CFA_XSP16, literal(-8)))
        CFI (cfiCond7) V9 load(1, XDATA, add(CFA_XSP16, literal(-7)))
        CFI (cfiCond7) R7 load(1, XDATA, add(CFA_XSP16, literal(-6)))
        CFI (cfiCond7) ?RET_LOW load(1, XDATA, add(CFA_XSP16, literal(-5)))
        CFI (cfiCond7) ?RET_HIGH load(1, XDATA, add(CFA_XSP16, literal(-4)))
        CFI (cfiCond7) ?BRET_EXT load(1, XDATA, add(CFA_XSP16, literal(-3)))
        CFI (cfiCond7) DPL0 load(1, XDATA, add(CFA_XSP16, literal(-2)))
        CFI (cfiCond7) DPH0 load(1, XDATA, add(CFA_XSP16, literal(-1)))
        CFI (cfiCond7) CFA_SP SP+0
        CFI (cfiCond7) CFA_XSP16 add(XSP16, 43)
        CFI Block cfiCond8 Using cfiCommon0
        CFI (cfiCond8) NoFunction
        CFI (cfiCond8) Conditional ??CrossCallReturnLabel_2
        CFI (cfiCond8) R6 load(1, XDATA, add(CFA_XSP16, literal(-11)))
        CFI (cfiCond8) VB load(1, XDATA, add(CFA_XSP16, literal(-10)))
        CFI (cfiCond8) V0 load(1, XDATA, add(CFA_XSP16, literal(-9)))
        CFI (cfiCond8) V1 load(1, XDATA, add(CFA_XSP16, literal(-8)))
        CFI (cfiCond8) V2 load(1, XDATA, add(CFA_XSP16, literal(-7)))
        CFI (cfiCond8) R7 load(1, XDATA, add(CFA_XSP16, literal(-6)))
        CFI (cfiCond8) ?RET_LOW load(1, XDATA, add(CFA_XSP16, literal(-5)))
        CFI (cfiCond8) ?RET_HIGH load(1, XDATA, add(CFA_XSP16, literal(-4)))
        CFI (cfiCond8) ?BRET_EXT load(1, XDATA, add(CFA_XSP16, literal(-3)))
        CFI (cfiCond8) DPL0 load(1, XDATA, add(CFA_XSP16, literal(-2)))
        CFI (cfiCond8) DPH0 load(1, XDATA, add(CFA_XSP16, literal(-1)))
        CFI (cfiCond8) CFA_SP SP+0
        CFI (cfiCond8) CFA_XSP16 add(XSP16, 11)
        CFI Block cfiPicker9 Using cfiCommon1
        CFI (cfiPicker9) NoFunction
        CFI (cfiPicker9) Picker
        LCALL   ??osal_strlen?relay
        MOV     A,R2
        MOV     ?V0 + 2,A
        RET
        CFI EndBlock cfiCond6
        CFI EndBlock cfiCond7
        CFI EndBlock cfiCond8
        CFI EndBlock cfiPicker9

        RSEG BANKED_CODE:CODE:NOROOT(0)
?Subroutine5:
        CFI Block cfiCond10 Using cfiCommon0
        CFI NoFunction
        CFI Conditional ??CrossCallReturnLabel_5
        CFI R6 load(1, XDATA, add(CFA_XSP16, literal(-18)))
        CFI VB load(1, XDATA, add(CFA_XSP16, literal(-17)))
        CFI V0 load(1, XDATA, add(CFA_XSP16, literal(-16)))
        CFI V1 load(1, XDATA, add(CFA_XSP16, literal(-15)))
        CFI V2 load(1, XDATA, add(CFA_XSP16, literal(-14)))
        CFI V3 load(1, XDATA, add(CFA_XSP16, literal(-13)))
        CFI V4 load(1, XDATA, add(CFA_XSP16, literal(-12)))
        CFI V5 load(1, XDATA, add(CFA_XSP16, literal(-11)))
        CFI V6 load(1, XDATA, add(CFA_XSP16, literal(-10)))
        CFI V7 load(1, XDATA, add(CFA_XSP16, literal(-9)))
        CFI V8 load(1, XDATA, add(CFA_XSP16, literal(-8)))
        CFI V9 load(1, XDATA, add(CFA_XSP16, literal(-7)))
        CFI R7 load(1, XDATA, add(CFA_XSP16, literal(-6)))
        CFI ?RET_LOW load(1, XDATA, add(CFA_XSP16, literal(-5)))
        CFI ?RET_HIGH load(1, XDATA, add(CFA_XSP16, literal(-4)))
        CFI ?BRET_EXT load(1, XDATA, add(CFA_XSP16, literal(-3)))
        CFI DPL0 load(1, XDATA, add(CFA_XSP16, literal(-2)))
        CFI DPH0 load(1, XDATA, add(CFA_XSP16, literal(-1)))
        CFI CFA_SP SP+0
        CFI CFA_XSP16 add(XSP16, 45)
        CFI Block cfiCond11 Using cfiCommon0
        CFI (cfiCond11) NoFunction
        CFI (cfiCond11) Conditional ??CrossCallReturnLabel_6
        CFI (cfiCond11) R6 load(1, XDATA, add(CFA_XSP16, literal(-19)))
        CFI (cfiCond11) VB load(1, XDATA, add(CFA_XSP16, literal(-18)))
        CFI (cfiCond11) V0 load(1, XDATA, add(CFA_XSP16, literal(-17)))
        CFI (cfiCond11) V1 load(1, XDATA, add(CFA_XSP16, literal(-16)))
        CFI (cfiCond11) V2 load(1, XDATA, add(CFA_XSP16, literal(-15)))
        CFI (cfiCond11) V3 load(1, XDATA, add(CFA_XSP16, literal(-14)))
        CFI (cfiCond11) V4 load(1, XDATA, add(CFA_XSP16, literal(-13)))
        CFI (cfiCond11) V5 load(1, XDATA, add(CFA_XSP16, literal(-12)))
        CFI (cfiCond11) V6 load(1, XDATA, add(CFA_XSP16, literal(-11)))
        CFI (cfiCond11) V7 load(1, XDATA, add(CFA_XSP16, literal(-10)))
        CFI (cfiCond11) V8 load(1, XDATA, add(CFA_XSP16, literal(-9)))
        CFI (cfiCond11) V9 load(1, XDATA, add(CFA_XSP16, literal(-8)))
        CFI (cfiCond11) V10 load(1, XDATA, add(CFA_XSP16, literal(-7)))
        CFI (cfiCond11) R7 load(1, XDATA, add(CFA_XSP16, literal(-6)))
        CFI (cfiCond11) ?RET_LOW load(1, XDATA, add(CFA_XSP16, literal(-5)))
        CFI (cfiCond11) ?RET_HIGH load(1, XDATA, add(CFA_XSP16, literal(-4)))
        CFI (cfiCond11) ?BRET_EXT load(1, XDATA, add(CFA_XSP16, literal(-3)))
        CFI (cfiCond11) DPL0 load(1, XDATA, add(CFA_XSP16, literal(-2)))
        CFI (cfiCond11) DPH0 load(1, XDATA, add(CFA_XSP16, literal(-1)))
        CFI (cfiCond11) CFA_SP SP+0
        CFI (cfiCond11) CFA_XSP16 add(XSP16, 46)
        CFI Block cfiCond12 Using cfiCommon0
        CFI (cfiCond12) NoFunction
        CFI (cfiCond12) Conditional ??CrossCallReturnLabel_7
        CFI (cfiCond12) R6 load(1, XDATA, add(CFA_XSP16, literal(-19)))
        CFI (cfiCond12) VB load(1, XDATA, add(CFA_XSP16, literal(-18)))
        CFI (cfiCond12) V0 load(1, XDATA, add(CFA_XSP16, literal(-17)))
        CFI (cfiCond12) V1 load(1, XDATA, add(CFA_XSP16, literal(-16)))
        CFI (cfiCond12) V2 load(1, XDATA, add(CFA_XSP16, literal(-15)))
        CFI (cfiCond12) V3 load(1, XDATA, add(CFA_XSP16, literal(-14)))
        CFI (cfiCond12) V4 load(1, XDATA, add(CFA_XSP16, literal(-13)))
        CFI (cfiCond12) V5 load(1, XDATA, add(CFA_XSP16, literal(-12)))
        CFI (cfiCond12) V6 load(1, XDATA, add(CFA_XSP16, literal(-11)))
        CFI (cfiCond12) V7 load(1, XDATA, add(CFA_XSP16, literal(-10)))
        CFI (cfiCond12) V8 load(1, XDATA, add(CFA_XSP16, literal(-9)))
        CFI (cfiCond12) V9 load(1, XDATA, add(CFA_XSP16, literal(-8)))
        CFI (cfiCond12) V10 load(1, XDATA, add(CFA_XSP16, literal(-7)))
        CFI (cfiCond12) R7 load(1, XDATA, add(CFA_XSP16, literal(-6)))
        CFI (cfiCond12) ?RET_LOW load(1, XDATA, add(CFA_XSP16, literal(-5)))
        CFI (cfiCond12) ?RET_HIGH load(1, XDATA, add(CFA_XSP16, literal(-4)))
        CFI (cfiCond12) ?BRET_EXT load(1, XDATA, add(CFA_XSP16, literal(-3)))
        CFI (cfiCond12) DPL0 load(1, XDATA, add(CFA_XSP16, literal(-2)))
        CFI (cfiCond12) DPH0 load(1, XDATA, add(CFA_XSP16, literal(-1)))
        CFI (cfiCond12) CFA_SP SP+0
        CFI (cfiCond12) CFA_XSP16 add(XSP16, 46)
        CFI Block cfiPicker13 Using cfiCommon1
        CFI (cfiPicker13) NoFunction
        CFI (cfiPicker13) Picker
        CLR     A
        CFI EndBlock cfiCond10
        CFI EndBlock cfiCond11
        CFI EndBlock cfiCond12
        CFI EndBlock cfiPicker13
        REQUIRE ??Subroutine8_0
        ; // Fall through to label ??Subroutine8_0

        RSEG BANKED_CODE:CODE:NOROOT(0)
??Subroutine8_0:
        CFI Block cfiCond14 Using cfiCommon0
        CFI NoFunction
        CFI Conditional ??CrossCallReturnLabel_8
        CFI R6 load(1, XDATA, add(CFA_XSP16, literal(-12)))
        CFI VB load(1, XDATA, add(CFA_XSP16, literal(-11)))
        CFI V0 load(1, XDATA, add(CFA_XSP16, literal(-10)))
        CFI V1 load(1, XDATA, add(CFA_XSP16, literal(-9)))
        CFI V2 load(1, XDATA, add(CFA_XSP16, literal(-8)))
        CFI V3 load(1, XDATA, add(CFA_XSP16, literal(-7)))
        CFI R7 load(1, XDATA, add(CFA_XSP16, literal(-6)))
        CFI ?RET_LOW load(1, XDATA, add(CFA_XSP16, literal(-5)))
        CFI ?RET_HIGH load(1, XDATA, add(CFA_XSP16, literal(-4)))
        CFI ?BRET_EXT load(1, XDATA, add(CFA_XSP16, literal(-3)))
        CFI DPL0 load(1, XDATA, add(CFA_XSP16, literal(-2)))
        CFI DPH0 load(1, XDATA, add(CFA_XSP16, literal(-1)))
        CFI CFA_SP SP+0
        CFI CFA_XSP16 add(XSP16, 31)
        CFI Block cfiCond15 Using cfiCommon0
        CFI (cfiCond15) NoFunction
        CFI (cfiCond15) Conditional ??CrossCallReturnLabel_5
        CFI (cfiCond15) R6 load(1, XDATA, add(CFA_XSP16, literal(-18)))
        CFI (cfiCond15) VB load(1, XDATA, add(CFA_XSP16, literal(-17)))
        CFI (cfiCond15) V0 load(1, XDATA, add(CFA_XSP16, literal(-16)))
        CFI (cfiCond15) V1 load(1, XDATA, add(CFA_XSP16, literal(-15)))
        CFI (cfiCond15) V2 load(1, XDATA, add(CFA_XSP16, literal(-14)))
        CFI (cfiCond15) V3 load(1, XDATA, add(CFA_XSP16, literal(-13)))
        CFI (cfiCond15) V4 load(1, XDATA, add(CFA_XSP16, literal(-12)))
        CFI (cfiCond15) V5 load(1, XDATA, add(CFA_XSP16, literal(-11)))
        CFI (cfiCond15) V6 load(1, XDATA, add(CFA_XSP16, literal(-10)))
        CFI (cfiCond15) V7 load(1, XDATA, add(CFA_XSP16, literal(-9)))
        CFI (cfiCond15) V8 load(1, XDATA, add(CFA_XSP16, literal(-8)))
        CFI (cfiCond15) V9 load(1, XDATA, add(CFA_XSP16, literal(-7)))
        CFI (cfiCond15) R7 load(1, XDATA, add(CFA_XSP16, literal(-6)))
        CFI (cfiCond15) ?RET_LOW load(1, XDATA, add(CFA_XSP16, literal(-5)))
        CFI (cfiCond15) ?RET_HIGH load(1, XDATA, add(CFA_XSP16, literal(-4)))
        CFI (cfiCond15) ?BRET_EXT load(1, XDATA, add(CFA_XSP16, literal(-3)))
        CFI (cfiCond15) DPL0 load(1, XDATA, add(CFA_XSP16, literal(-2)))
        CFI (cfiCond15) DPH0 load(1, XDATA, add(CFA_XSP16, literal(-1)))
        CFI (cfiCond15) CFA_SP SP+0
        CFI (cfiCond15) CFA_XSP16 add(XSP16, 45)
        CFI Block cfiCond16 Using cfiCommon0
        CFI (cfiCond16) NoFunction
        CFI (cfiCond16) Conditional ??CrossCallReturnLabel_6
        CFI (cfiCond16) R6 load(1, XDATA, add(CFA_XSP16, literal(-19)))
        CFI (cfiCond16) VB load(1, XDATA, add(CFA_XSP16, literal(-18)))
        CFI (cfiCond16) V0 load(1, XDATA, add(CFA_XSP16, literal(-17)))
        CFI (cfiCond16) V1 load(1, XDATA, add(CFA_XSP16, literal(-16)))
        CFI (cfiCond16) V2 load(1, XDATA, add(CFA_XSP16, literal(-15)))
        CFI (cfiCond16) V3 load(1, XDATA, add(CFA_XSP16, literal(-14)))
        CFI (cfiCond16) V4 load(1, XDATA, add(CFA_XSP16, literal(-13)))
        CFI (cfiCond16) V5 load(1, XDATA, add(CFA_XSP16, literal(-12)))
        CFI (cfiCond16) V6 load(1, XDATA, add(CFA_XSP16, literal(-11)))
        CFI (cfiCond16) V7 load(1, XDATA, add(CFA_XSP16, literal(-10)))
        CFI (cfiCond16) V8 load(1, XDATA, add(CFA_XSP16, literal(-9)))
        CFI (cfiCond16) V9 load(1, XDATA, add(CFA_XSP16, literal(-8)))
        CFI (cfiCond16) V10 load(1, XDATA, add(CFA_XSP16, literal(-7)))
        CFI (cfiCond16) R7 load(1, XDATA, add(CFA_XSP16, literal(-6)))
        CFI (cfiCond16) ?RET_LOW load(1, XDATA, add(CFA_XSP16, literal(-5)))
        CFI (cfiCond16) ?RET_HIGH load(1, XDATA, add(CFA_XSP16, literal(-4)))
        CFI (cfiCond16) ?BRET_EXT load(1, XDATA, add(CFA_XSP16, literal(-3)))
        CFI (cfiCond16) DPL0 load(1, XDATA, add(CFA_XSP16, literal(-2)))
        CFI (cfiCond16) DPH0 load(1, XDATA, add(CFA_XSP16, literal(-1)))
        CFI (cfiCond16) CFA_SP SP+0
        CFI (cfiCond16) CFA_XSP16 add(XSP16, 46)
        CFI Block cfiCond17 Using cfiCommon0
        CFI (cfiCond17) NoFunction
        CFI (cfiCond17) Conditional ??CrossCallReturnLabel_7
        CFI (cfiCond17) R6 load(1, XDATA, add(CFA_XSP16, literal(-19)))
        CFI (cfiCond17) VB load(1, XDATA, add(CFA_XSP16, literal(-18)))
        CFI (cfiCond17) V0 load(1, XDATA, add(CFA_XSP16, literal(-17)))
        CFI (cfiCond17) V1 load(1, XDATA, add(CFA_XSP16, literal(-16)))
        CFI (cfiCond17) V2 load(1, XDATA, add(CFA_XSP16, literal(-15)))
        CFI (cfiCond17) V3 load(1, XDATA, add(CFA_XSP16, literal(-14)))
        CFI (cfiCond17) V4 load(1, XDATA, add(CFA_XSP16, literal(-13)))
        CFI (cfiCond17) V5 load(1, XDATA, add(CFA_XSP16, literal(-12)))
        CFI (cfiCond17) V6 load(1, XDATA, add(CFA_XSP16, literal(-11)))
        CFI (cfiCond17) V7 load(1, XDATA, add(CFA_XSP16, literal(-10)))
        CFI (cfiCond17) V8 load(1, XDATA, add(CFA_XSP16, literal(-9)))
        CFI (cfiCond17) V9 load(1, XDATA, add(CFA_XSP16, literal(-8)))
        CFI (cfiCond17) V10 load(1, XDATA, add(CFA_XSP16, literal(-7)))
        CFI (cfiCond17) R7 load(1, XDATA, add(CFA_XSP16, literal(-6)))
        CFI (cfiCond17) ?RET_LOW load(1, XDATA, add(CFA_XSP16, literal(-5)))
        CFI (cfiCond17) ?RET_HIGH load(1, XDATA, add(CFA_XSP16, literal(-4)))
        CFI (cfiCond17) ?BRET_EXT load(1, XDATA, add(CFA_XSP16, literal(-3)))
        CFI (cfiCond17) DPL0 load(1, XDATA, add(CFA_XSP16, literal(-2)))
        CFI (cfiCond17) DPH0 load(1, XDATA, add(CFA_XSP16, literal(-1)))
        CFI (cfiCond17) CFA_SP SP+0
        CFI (cfiCond17) CFA_XSP16 add(XSP16, 46)
        CFI Block cfiPicker18 Using cfiCommon1
        CFI (cfiPicker18) NoFunction
        CFI (cfiPicker18) Picker
        MOV     R4,A
        MOV     R5,A
        CFI EndBlock cfiCond14
        CFI EndBlock cfiCond15
        CFI EndBlock cfiCond16
        CFI EndBlock cfiCond17
        CFI EndBlock cfiPicker18
        REQUIRE ??Subroutine9_0
        ; // Fall through to label ??Subroutine9_0

        RSEG BANKED_CODE:CODE:NOROOT(0)
??Subroutine9_0:
        CFI Block cfiCond19 Using cfiCommon0
        CFI NoFunction
        CFI Conditional ??CrossCallReturnLabel_9
        CFI R6 load(1, XDATA, add(CFA_XSP16, literal(-16)))
        CFI VB load(1, XDATA, add(CFA_XSP16, literal(-15)))
        CFI V0 load(1, XDATA, add(CFA_XSP16, literal(-14)))
        CFI V1 load(1, XDATA, add(CFA_XSP16, literal(-13)))
        CFI V2 load(1, XDATA, add(CFA_XSP16, literal(-12)))
        CFI V3 load(1, XDATA, add(CFA_XSP16, literal(-11)))
        CFI V4 load(1, XDATA, add(CFA_XSP16, literal(-10)))
        CFI V5 load(1, XDATA, add(CFA_XSP16, literal(-9)))
        CFI V6 load(1, XDATA, add(CFA_XSP16, literal(-8)))
        CFI V7 load(1, XDATA, add(CFA_XSP16, literal(-7)))
        CFI R7 load(1, XDATA, add(CFA_XSP16, literal(-6)))
        CFI ?RET_LOW load(1, XDATA, add(CFA_XSP16, literal(-5)))
        CFI ?RET_HIGH load(1, XDATA, add(CFA_XSP16, literal(-4)))
        CFI ?BRET_EXT load(1, XDATA, add(CFA_XSP16, literal(-3)))
        CFI DPL0 load(1, XDATA, add(CFA_XSP16, literal(-2)))
        CFI DPH0 load(1, XDATA, add(CFA_XSP16, literal(-1)))
        CFI CFA_SP SP+0
        CFI CFA_XSP16 add(XSP16, 43)
        CFI Block cfiCond20 Using cfiCommon0
        CFI (cfiCond20) NoFunction
        CFI (cfiCond20) Conditional ??CrossCallReturnLabel_8
        CFI (cfiCond20) R6 load(1, XDATA, add(CFA_XSP16, literal(-12)))
        CFI (cfiCond20) VB load(1, XDATA, add(CFA_XSP16, literal(-11)))
        CFI (cfiCond20) V0 load(1, XDATA, add(CFA_XSP16, literal(-10)))
        CFI (cfiCond20) V1 load(1, XDATA, add(CFA_XSP16, literal(-9)))
        CFI (cfiCond20) V2 load(1, XDATA, add(CFA_XSP16, literal(-8)))
        CFI (cfiCond20) V3 load(1, XDATA, add(CFA_XSP16, literal(-7)))
        CFI (cfiCond20) R7 load(1, XDATA, add(CFA_XSP16, literal(-6)))
        CFI (cfiCond20) ?RET_LOW load(1, XDATA, add(CFA_XSP16, literal(-5)))
        CFI (cfiCond20) ?RET_HIGH load(1, XDATA, add(CFA_XSP16, literal(-4)))
        CFI (cfiCond20) ?BRET_EXT load(1, XDATA, add(CFA_XSP16, literal(-3)))
        CFI (cfiCond20) DPL0 load(1, XDATA, add(CFA_XSP16, literal(-2)))
        CFI (cfiCond20) DPH0 load(1, XDATA, add(CFA_XSP16, literal(-1)))
        CFI (cfiCond20) CFA_SP SP+0
        CFI (cfiCond20) CFA_XSP16 add(XSP16, 31)
        CFI Block cfiCond21 Using cfiCommon0
        CFI (cfiCond21) NoFunction
        CFI (cfiCond21) Conditional ??CrossCallReturnLabel_5
        CFI (cfiCond21) R6 load(1, XDATA, add(CFA_XSP16, literal(-18)))
        CFI (cfiCond21) VB load(1, XDATA, add(CFA_XSP16, literal(-17)))
        CFI (cfiCond21) V0 load(1, XDATA, add(CFA_XSP16, literal(-16)))
        CFI (cfiCond21) V1 load(1, XDATA, add(CFA_XSP16, literal(-15)))
        CFI (cfiCond21) V2 load(1, XDATA, add(CFA_XSP16, literal(-14)))
        CFI (cfiCond21) V3 load(1, XDATA, add(CFA_XSP16, literal(-13)))
        CFI (cfiCond21) V4 load(1, XDATA, add(CFA_XSP16, literal(-12)))
        CFI (cfiCond21) V5 load(1, XDATA, add(CFA_XSP16, literal(-11)))
        CFI (cfiCond21) V6 load(1, XDATA, add(CFA_XSP16, literal(-10)))
        CFI (cfiCond21) V7 load(1, XDATA, add(CFA_XSP16, literal(-9)))
        CFI (cfiCond21) V8 load(1, XDATA, add(CFA_XSP16, literal(-8)))
        CFI (cfiCond21) V9 load(1, XDATA, add(CFA_XSP16, literal(-7)))
        CFI (cfiCond21) R7 load(1, XDATA, add(CFA_XSP16, literal(-6)))
        CFI (cfiCond21) ?RET_LOW load(1, XDATA, add(CFA_XSP16, literal(-5)))
        CFI (cfiCond21) ?RET_HIGH load(1, XDATA, add(CFA_XSP16, literal(-4)))
        CFI (cfiCond21) ?BRET_EXT load(1, XDATA, add(CFA_XSP16, literal(-3)))
        CFI (cfiCond21) DPL0 load(1, XDATA, add(CFA_XSP16, literal(-2)))
        CFI (cfiCond21) DPH0 load(1, XDATA, add(CFA_XSP16, literal(-1)))
        CFI (cfiCond21) CFA_SP SP+0
        CFI (cfiCond21) CFA_XSP16 add(XSP16, 45)
        CFI Block cfiCond22 Using cfiCommon0
        CFI (cfiCond22) NoFunction
        CFI (cfiCond22) Conditional ??CrossCallReturnLabel_6
        CFI (cfiCond22) R6 load(1, XDATA, add(CFA_XSP16, literal(-19)))
        CFI (cfiCond22) VB load(1, XDATA, add(CFA_XSP16, literal(-18)))
        CFI (cfiCond22) V0 load(1, XDATA, add(CFA_XSP16, literal(-17)))
        CFI (cfiCond22) V1 load(1, XDATA, add(CFA_XSP16, literal(-16)))
        CFI (cfiCond22) V2 load(1, XDATA, add(CFA_XSP16, literal(-15)))
        CFI (cfiCond22) V3 load(1, XDATA, add(CFA_XSP16, literal(-14)))
        CFI (cfiCond22) V4 load(1, XDATA, add(CFA_XSP16, literal(-13)))
        CFI (cfiCond22) V5 load(1, XDATA, add(CFA_XSP16, literal(-12)))
        CFI (cfiCond22) V6 load(1, XDATA, add(CFA_XSP16, literal(-11)))
        CFI (cfiCond22) V7 load(1, XDATA, add(CFA_XSP16, literal(-10)))
        CFI (cfiCond22) V8 load(1, XDATA, add(CFA_XSP16, literal(-9)))
        CFI (cfiCond22) V9 load(1, XDATA, add(CFA_XSP16, literal(-8)))
        CFI (cfiCond22) V10 load(1, XDATA, add(CFA_XSP16, literal(-7)))
        CFI (cfiCond22) R7 load(1, XDATA, add(CFA_XSP16, literal(-6)))
        CFI (cfiCond22) ?RET_LOW load(1, XDATA, add(CFA_XSP16, literal(-5)))
        CFI (cfiCond22) ?RET_HIGH load(1, XDATA, add(CFA_XSP16, literal(-4)))
        CFI (cfiCond22) ?BRET_EXT load(1, XDATA, add(CFA_XSP16, literal(-3)))
        CFI (cfiCond22) DPL0 load(1, XDATA, add(CFA_XSP16, literal(-2)))
        CFI (cfiCond22) DPH0 load(1, XDATA, add(CFA_XSP16, literal(-1)))
        CFI (cfiCond22) CFA_SP SP+0
        CFI (cfiCond22) CFA_XSP16 add(XSP16, 46)
        CFI Block cfiCond23 Using cfiCommon0
        CFI (cfiCond23) NoFunction
        CFI (cfiCond23) Conditional ??CrossCallReturnLabel_7
        CFI (cfiCond23) R6 load(1, XDATA, add(CFA_XSP16, literal(-19)))
        CFI (cfiCond23) VB load(1, XDATA, add(CFA_XSP16, literal(-18)))
        CFI (cfiCond23) V0 load(1, XDATA, add(CFA_XSP16, literal(-17)))
        CFI (cfiCond23) V1 load(1, XDATA, add(CFA_XSP16, literal(-16)))
        CFI (cfiCond23) V2 load(1, XDATA, add(CFA_XSP16, literal(-15)))
        CFI (cfiCond23) V3 load(1, XDATA, add(CFA_XSP16, literal(-14)))
        CFI (cfiCond23) V4 load(1, XDATA, add(CFA_XSP16, literal(-13)))
        CFI (cfiCond23) V5 load(1, XDATA, add(CFA_XSP16, literal(-12)))
        CFI (cfiCond23) V6 load(1, XDATA, add(CFA_XSP16, literal(-11)))
        CFI (cfiCond23) V7 load(1, XDATA, add(CFA_XSP16, literal(-10)))
        CFI (cfiCond23) V8 load(1, XDATA, add(CFA_XSP16, literal(-9)))
        CFI (cfiCond23) V9 load(1, XDATA, add(CFA_XSP16, literal(-8)))
        CFI (cfiCond23) V10 load(1, XDATA, add(CFA_XSP16, literal(-7)))
        CFI (cfiCond23) R7 load(1, XDATA, add(CFA_XSP16, literal(-6)))
        CFI (cfiCond23) ?RET_LOW load(1, XDATA, add(CFA_XSP16, literal(-5)))
        CFI (cfiCond23) ?RET_HIGH load(1, XDATA, add(CFA_XSP16, literal(-4)))
        CFI (cfiCond23) ?BRET_EXT load(1, XDATA, add(CFA_XSP16, literal(-3)))
        CFI (cfiCond23) DPL0 load(1, XDATA, add(CFA_XSP16, literal(-2)))
        CFI (cfiCond23) DPH0 load(1, XDATA, add(CFA_XSP16, literal(-1)))
        CFI (cfiCond23) CFA_SP SP+0
        CFI (cfiCond23) CFA_XSP16 add(XSP16, 46)
        CFI Block cfiPicker24 Using cfiCommon1
        CFI (cfiPicker24) NoFunction
        CFI (cfiPicker24) Picker
        LCALL   ??_ltoa?relay
        MOV     A,#0x2
        RET
        CFI EndBlock cfiCond19
        CFI EndBlock cfiCond20
        CFI EndBlock cfiCond21
        CFI EndBlock cfiCond22
        CFI EndBlock cfiCond23
        CFI EndBlock cfiPicker24
//  394 
//  395 /**************************************************************************************************
//  396  * @fn      HalLcdWriteStringValue
//  397  *
//  398  * @brief   Write a string followed by a value to the LCD
//  399  *
//  400  * @param   title   - Title that will be displayed before the value
//  401  *          value1  - value #1
//  402  *          format1 - redix of value #1
//  403  *          value2  - value #2
//  404  *          format2 - redix of value #2
//  405  *          line    - line number
//  406  *
//  407  * @return  None
//  408  **************************************************************************************************/

        RSEG BANKED_CODE:CODE:NOROOT(0)
//  409 void HalLcdWriteStringValueValue( char *title, uint16 value1, uint8 format1,
HalLcdWriteStringValueValue:
        CFI Block cfiBlock25 Using cfiCommon0
        CFI Function HalLcdWriteStringValueValue
        CODE
//  410                                   uint16 value2, uint8 format2, uint8 line )
//  411 {
        FUNCALL HalLcdWriteStringValueValue, osal_strlen
        LOCFRAME ISTACK, 0, STACK
        LOCFRAME PSTACK, 0, STACK
        LOCFRAME XSTACK, 44, STACK
        LOCFRAME IOVERLAY, 0, STATIC
        LOCFRAME DOVERLAY, 0, STATIC
        ARGFRAME ISTACK, 0, STACK
        ARGFRAME PSTACK, 0, STACK
        ARGFRAME XSTACK, 44, STACK
        ARGFRAME IOVERLAY, 0, STATIC
        ARGFRAME DOVERLAY, 0, STATIC
        FUNCALL HalLcdWriteStringValueValue, osal_memcpy
        LOCFRAME ISTACK, 0, STACK
        LOCFRAME PSTACK, 0, STACK
        LOCFRAME XSTACK, 47, STACK
        LOCFRAME IOVERLAY, 0, STATIC
        LOCFRAME DOVERLAY, 0, STATIC
        ARGFRAME ISTACK, 0, STACK
        ARGFRAME PSTACK, 0, STACK
        ARGFRAME XSTACK, 47, STACK
        ARGFRAME IOVERLAY, 0, STATIC
        ARGFRAME DOVERLAY, 0, STATIC
        FUNCALL HalLcdWriteStringValueValue, _ltoa
        LOCFRAME ISTACK, 0, STACK
        LOCFRAME PSTACK, 0, STACK
        LOCFRAME XSTACK, 46, STACK
        LOCFRAME IOVERLAY, 0, STATIC
        LOCFRAME DOVERLAY, 0, STATIC
        ARGFRAME ISTACK, 0, STACK
        ARGFRAME PSTACK, 0, STACK
        ARGFRAME XSTACK, 46, STACK
        ARGFRAME IOVERLAY, 0, STATIC
        ARGFRAME DOVERLAY, 0, STATIC
        FUNCALL HalLcdWriteStringValueValue, osal_strlen
        LOCFRAME ISTACK, 0, STACK
        LOCFRAME PSTACK, 0, STACK
        LOCFRAME XSTACK, 44, STACK
        LOCFRAME IOVERLAY, 0, STATIC
        LOCFRAME DOVERLAY, 0, STATIC
        ARGFRAME ISTACK, 0, STACK
        ARGFRAME PSTACK, 0, STACK
        ARGFRAME XSTACK, 44, STACK
        ARGFRAME IOVERLAY, 0, STATIC
        ARGFRAME DOVERLAY, 0, STATIC
        FUNCALL HalLcdWriteStringValueValue, _ltoa
        LOCFRAME ISTACK, 0, STACK
        LOCFRAME PSTACK, 0, STACK
        LOCFRAME XSTACK, 46, STACK
        LOCFRAME IOVERLAY, 0, STATIC
        LOCFRAME DOVERLAY, 0, STATIC
        ARGFRAME ISTACK, 0, STACK
        ARGFRAME PSTACK, 0, STACK
        ARGFRAME XSTACK, 46, STACK
        ARGFRAME IOVERLAY, 0, STATIC
        ARGFRAME DOVERLAY, 0, STATIC
        FUNCALL HalLcdWriteStringValueValue, HalLcdWriteString
        LOCFRAME ISTACK, 0, STACK
        LOCFRAME PSTACK, 0, STACK
        LOCFRAME XSTACK, 44, STACK
        LOCFRAME IOVERLAY, 0, STATIC
        LOCFRAME DOVERLAY, 0, STATIC
        ARGFRAME ISTACK, 0, STACK
        ARGFRAME PSTACK, 0, STACK
        ARGFRAME XSTACK, 44, STACK
        ARGFRAME IOVERLAY, 0, STATIC
        ARGFRAME DOVERLAY, 0, STATIC
        MOV     A,#-0x13
        LCALL   ?BANKED_ENTER_XDATA
        CFI DPH0 load(1, XDATA, add(CFA_XSP16, literal(-1)))
        CFI DPL0 load(1, XDATA, add(CFA_XSP16, literal(-2)))
        CFI ?BRET_EXT load(1, XDATA, add(CFA_XSP16, literal(-3)))
        CFI ?RET_HIGH load(1, XDATA, add(CFA_XSP16, literal(-4)))
        CFI ?RET_LOW load(1, XDATA, add(CFA_XSP16, literal(-5)))
        CFI R7 load(1, XDATA, add(CFA_XSP16, literal(-6)))
        CFI V10 load(1, XDATA, add(CFA_XSP16, literal(-7)))
        CFI V9 load(1, XDATA, add(CFA_XSP16, literal(-8)))
        CFI V8 load(1, XDATA, add(CFA_XSP16, literal(-9)))
        CFI V7 load(1, XDATA, add(CFA_XSP16, literal(-10)))
        CFI V6 load(1, XDATA, add(CFA_XSP16, literal(-11)))
        CFI V5 load(1, XDATA, add(CFA_XSP16, literal(-12)))
        CFI V4 load(1, XDATA, add(CFA_XSP16, literal(-13)))
        CFI V3 load(1, XDATA, add(CFA_XSP16, literal(-14)))
        CFI V2 load(1, XDATA, add(CFA_XSP16, literal(-15)))
        CFI V1 load(1, XDATA, add(CFA_XSP16, literal(-16)))
        CFI V0 load(1, XDATA, add(CFA_XSP16, literal(-17)))
        CFI VB load(1, XDATA, add(CFA_XSP16, literal(-18)))
        CFI R6 load(1, XDATA, add(CFA_XSP16, literal(-19)))
        CFI CFA_SP SP+0
        CFI CFA_XSP16 add(XSP16, 19)
        ; Saved register size: 19
        ; Auto size: 25
        MOV     A,#-0x19
        LCALL   ?ALLOC_XSTACK8
        CFI CFA_XSP16 add(XSP16, 44)
        MOV     A,R2
        MOV     R6,A
        MOV     A,R3
        MOV     R7,A
        MOV     ?V0 + 2,R4
        MOV     ?V0 + 3,R5
        MOV     ?V0 + 5,R1
        MOV     A,#0x2c
        LCALL   ?XSTACK_DISP0_8
        MOVX    A,@DPTR
        MOV     ?V0 + 0,A
        INC     DPTR
        MOVX    A,@DPTR
        MOV     ?V0 + 1,A
        MOV     A,#0x2e
        LCALL   ?XSTACK_DISP0_8
        MOVX    A,@DPTR
        MOV     ?V0 + 4,A
        MOV     A,#0x2f
        LCALL   ?XSTACK_DISP0_8
        MOVX    A,@DPTR
        MOV     ?V0 + 7,A
//  412 
//  413 #if (HAL_LCD == TRUE)
//  414 
//  415   uint8 tmpLen;
//  416   uint8 buf[LCD_MAX_BUF];
//  417   uint32 err;
//  418 
//  419   tmpLen = (uint8)osal_strlen( (char*)title );
        ; Setup parameters for call to function osal_strlen
        LCALL   ??osal_strlen?relay
        MOV     A,R2
        MOV     ?V0 + 6,A
//  420   if ( tmpLen )
        JZ      ??HalLcdWriteStringValueValue_0
//  421   {
//  422     osal_memcpy( buf, title, tmpLen );
        ; Setup parameters for call to function osal_memcpy
        MOV     ?V0 + 8,R6
        MOV     ?V0 + 9,R7
        MOV     ?V0 + 10,#0x0
        MOV     R0,#?V0 + 8
        LCALL   ?PUSH_XSTACK_I_THREE
        CFI CFA_XSP16 add(XSP16, 47)
        MOV     ?V0 + 8,R2
        MOV     R4,?V0 + 8
        MOV     R5,#0x0
        MOV     A,#0x3
        LCALL   ?XSTACK_DISP0_8
        LCALL   ?Subroutine4 & 0xFFFF
??CrossCallReturnLabel_11:
        LCALL   ?DEALLOC_XSTACK8
        CFI CFA_XSP16 add(XSP16, 44)
//  423     buf[tmpLen++] = ' ';
        MOV     DPL,?XSP + 0
        MOV     DPH,?XSP + 1
        MOV     A,DPL
        ADD     A,?V0 + 8
        LCALL   ??Subroutine11_0 & 0xFFFF
//  424   }
??CrossCallReturnLabel_17:
        INC     ?V0 + 6
//  425 
//  426   err = (uint32)(value1);
//  427   _ltoa( err, &buf[tmpLen], format1 );
??HalLcdWriteStringValueValue_0:
        ; Setup parameters for call to function _ltoa
        MOV     ?V0 + 8,?V0 + 6
        MOV     DPL,?XSP + 0
        MOV     DPH,?XSP + 1
        MOV     A,DPL
        ADD     A,?V0 + 8
        MOV     ?V0 + 8,A
        MOV     A,DPH
        ADDC    A,#0x0
        MOV     ?V0 + 9,A
        MOV     R0,#?V0 + 8
        LCALL   ?PUSH_XSTACK_I_TWO
        CFI CFA_XSP16 add(XSP16, 46)
        MOV     R1,?V0 + 5
        MOV     R2,?V0 + 2
        MOV     R3,?V0 + 3
        LCALL   ?Subroutine5 & 0xFFFF
??CrossCallReturnLabel_6:
        LCALL   ?DEALLOC_XSTACK8
        CFI CFA_XSP16 add(XSP16, 44)
//  428   tmpLen = (uint8)osal_strlen( (char*)buf );
        ; Setup parameters for call to function osal_strlen
        MOV     DPL,?XSP + 0
        MOV     DPH,?XSP + 1
        MOV     R2,DPL
        MOV     R3,DPH
        LCALL   ??osal_strlen?relay
        MOV     A,R2
        MOV     ?V0 + 6,A
//  429 
//  430   buf[tmpLen++] = ',';
        MOV     ?V0 + 2,A
        MOV     DPL,?XSP + 0
        MOV     DPH,?XSP + 1
        MOV     A,DPL
        ADD     A,?V0 + 2
        MOV     DPL,A
        MOV     A,DPH
        ADDC    A,#0x0
        MOV     DPH,A
        MOV     A,#0x2c
        MOVX    @DPTR,A
        INC     ?V0 + 6
//  431   buf[tmpLen++] = ' ';
        MOV     ?V0 + 2,?V0 + 6
        LCALL   ?Subroutine3 & 0xFFFF
//  432   err = (uint32)(value2);
//  433   _ltoa( err, &buf[tmpLen], format2 );
??CrossCallReturnLabel_19:
        ; Setup parameters for call to function _ltoa
        MOV     A,#0x1
        ADD     A,?V0 + 6
        MOV     R0,A
        MOV     DPL,?XSP + 0
        MOV     DPH,?XSP + 1
        MOV     A,DPL
        ADD     A,R0
        MOV     ?V0 + 2,A
        MOV     A,DPH
        ADDC    A,#0x0
        MOV     ?V0 + 3,A
        MOV     R0,#?V0 + 2
        LCALL   ?PUSH_XSTACK_I_TWO
        CFI CFA_XSP16 add(XSP16, 46)
        MOV     R1,?V0 + 4
        MOV     R2,?V0 + 0
        MOV     R3,?V0 + 1
        LCALL   ?Subroutine5 & 0xFFFF
??CrossCallReturnLabel_7:
        LCALL   ?DEALLOC_XSTACK8
        CFI CFA_XSP16 add(XSP16, 44)
//  434 
//  435   HalLcdWriteString( (char *)buf, line );		
        ; Setup parameters for call to function HalLcdWriteString
        MOV     R1,?V0 + 7
        MOV     DPL,?XSP + 0
        MOV     DPH,?XSP + 1
        MOV     R2,DPL
        MOV     R3,DPH
        LCALL   ??HalLcdWriteString?relay
//  436 
//  437 #endif
//  438 }
        MOV     A,#0x19
        LCALL   ?DEALLOC_XSTACK8
        CFI CFA_XSP16 add(XSP16, 19)
        MOV     R7,#0xb
        LJMP    ?BANKED_LEAVE_XDATA
        CFI EndBlock cfiBlock25

        RSEG BANKED_CODE:CODE:NOROOT(0)
?Subroutine4:
        CFI Block cfiCond26 Using cfiCommon0
        CFI NoFunction
        CFI Conditional ??CrossCallReturnLabel_10
        CFI R6 load(1, XDATA, add(CFA_XSP16, literal(-18)))
        CFI VB load(1, XDATA, add(CFA_XSP16, literal(-17)))
        CFI V0 load(1, XDATA, add(CFA_XSP16, literal(-16)))
        CFI V1 load(1, XDATA, add(CFA_XSP16, literal(-15)))
        CFI V2 load(1, XDATA, add(CFA_XSP16, literal(-14)))
        CFI V3 load(1, XDATA, add(CFA_XSP16, literal(-13)))
        CFI V4 load(1, XDATA, add(CFA_XSP16, literal(-12)))
        CFI V5 load(1, XDATA, add(CFA_XSP16, literal(-11)))
        CFI V6 load(1, XDATA, add(CFA_XSP16, literal(-10)))
        CFI V7 load(1, XDATA, add(CFA_XSP16, literal(-9)))
        CFI V8 load(1, XDATA, add(CFA_XSP16, literal(-8)))
        CFI V9 load(1, XDATA, add(CFA_XSP16, literal(-7)))
        CFI R7 load(1, XDATA, add(CFA_XSP16, literal(-6)))
        CFI ?RET_LOW load(1, XDATA, add(CFA_XSP16, literal(-5)))
        CFI ?RET_HIGH load(1, XDATA, add(CFA_XSP16, literal(-4)))
        CFI ?BRET_EXT load(1, XDATA, add(CFA_XSP16, literal(-3)))
        CFI DPL0 load(1, XDATA, add(CFA_XSP16, literal(-2)))
        CFI DPH0 load(1, XDATA, add(CFA_XSP16, literal(-1)))
        CFI CFA_SP SP+0
        CFI CFA_XSP16 add(XSP16, 46)
        CFI Block cfiCond27 Using cfiCommon0
        CFI (cfiCond27) NoFunction
        CFI (cfiCond27) Conditional ??CrossCallReturnLabel_11
        CFI (cfiCond27) R6 load(1, XDATA, add(CFA_XSP16, literal(-19)))
        CFI (cfiCond27) VB load(1, XDATA, add(CFA_XSP16, literal(-18)))
        CFI (cfiCond27) V0 load(1, XDATA, add(CFA_XSP16, literal(-17)))
        CFI (cfiCond27) V1 load(1, XDATA, add(CFA_XSP16, literal(-16)))
        CFI (cfiCond27) V2 load(1, XDATA, add(CFA_XSP16, literal(-15)))
        CFI (cfiCond27) V3 load(1, XDATA, add(CFA_XSP16, literal(-14)))
        CFI (cfiCond27) V4 load(1, XDATA, add(CFA_XSP16, literal(-13)))
        CFI (cfiCond27) V5 load(1, XDATA, add(CFA_XSP16, literal(-12)))
        CFI (cfiCond27) V6 load(1, XDATA, add(CFA_XSP16, literal(-11)))
        CFI (cfiCond27) V7 load(1, XDATA, add(CFA_XSP16, literal(-10)))
        CFI (cfiCond27) V8 load(1, XDATA, add(CFA_XSP16, literal(-9)))
        CFI (cfiCond27) V9 load(1, XDATA, add(CFA_XSP16, literal(-8)))
        CFI (cfiCond27) V10 load(1, XDATA, add(CFA_XSP16, literal(-7)))
        CFI (cfiCond27) R7 load(1, XDATA, add(CFA_XSP16, literal(-6)))
        CFI (cfiCond27) ?RET_LOW load(1, XDATA, add(CFA_XSP16, literal(-5)))
        CFI (cfiCond27) ?RET_HIGH load(1, XDATA, add(CFA_XSP16, literal(-4)))
        CFI (cfiCond27) ?BRET_EXT load(1, XDATA, add(CFA_XSP16, literal(-3)))
        CFI (cfiCond27) DPL0 load(1, XDATA, add(CFA_XSP16, literal(-2)))
        CFI (cfiCond27) DPH0 load(1, XDATA, add(CFA_XSP16, literal(-1)))
        CFI (cfiCond27) CFA_SP SP+0
        CFI (cfiCond27) CFA_XSP16 add(XSP16, 47)
        CFI Block cfiCond28 Using cfiCommon0
        CFI (cfiCond28) NoFunction
        CFI (cfiCond28) Conditional ??CrossCallReturnLabel_12
        CFI (cfiCond28) R6 load(1, XDATA, add(CFA_XSP16, literal(-12)))
        CFI (cfiCond28) VB load(1, XDATA, add(CFA_XSP16, literal(-11)))
        CFI (cfiCond28) V0 load(1, XDATA, add(CFA_XSP16, literal(-10)))
        CFI (cfiCond28) V1 load(1, XDATA, add(CFA_XSP16, literal(-9)))
        CFI (cfiCond28) V2 load(1, XDATA, add(CFA_XSP16, literal(-8)))
        CFI (cfiCond28) V3 load(1, XDATA, add(CFA_XSP16, literal(-7)))
        CFI (cfiCond28) R7 load(1, XDATA, add(CFA_XSP16, literal(-6)))
        CFI (cfiCond28) ?RET_LOW load(1, XDATA, add(CFA_XSP16, literal(-5)))
        CFI (cfiCond28) ?RET_HIGH load(1, XDATA, add(CFA_XSP16, literal(-4)))
        CFI (cfiCond28) ?BRET_EXT load(1, XDATA, add(CFA_XSP16, literal(-3)))
        CFI (cfiCond28) DPL0 load(1, XDATA, add(CFA_XSP16, literal(-2)))
        CFI (cfiCond28) DPH0 load(1, XDATA, add(CFA_XSP16, literal(-1)))
        CFI (cfiCond28) CFA_SP SP+0
        CFI (cfiCond28) CFA_XSP16 add(XSP16, 32)
        CFI Block cfiPicker29 Using cfiCommon1
        CFI (cfiPicker29) NoFunction
        CFI (cfiPicker29) Picker
        MOV     R2,DPL
        MOV     R3,DPH
        CFI EndBlock cfiCond26
        CFI EndBlock cfiCond27
        CFI EndBlock cfiCond28
        CFI EndBlock cfiPicker29
        REQUIRE ??Subroutine10_0
        ; // Fall through to label ??Subroutine10_0

        RSEG BANKED_CODE:CODE:NOROOT(0)
??Subroutine10_0:
        CFI Block cfiCond30 Using cfiCommon0
        CFI NoFunction
        CFI Conditional ??CrossCallReturnLabel_13
        CFI R6 load(1, XDATA, add(CFA_XSP16, literal(-17)))
        CFI VB load(1, XDATA, add(CFA_XSP16, literal(-16)))
        CFI V0 load(1, XDATA, add(CFA_XSP16, literal(-15)))
        CFI V1 load(1, XDATA, add(CFA_XSP16, literal(-14)))
        CFI V2 load(1, XDATA, add(CFA_XSP16, literal(-13)))
        CFI V3 load(1, XDATA, add(CFA_XSP16, literal(-12)))
        CFI V4 load(1, XDATA, add(CFA_XSP16, literal(-11)))
        CFI V5 load(1, XDATA, add(CFA_XSP16, literal(-10)))
        CFI V6 load(1, XDATA, add(CFA_XSP16, literal(-9)))
        CFI V7 load(1, XDATA, add(CFA_XSP16, literal(-8)))
        CFI V8 load(1, XDATA, add(CFA_XSP16, literal(-7)))
        CFI R7 load(1, XDATA, add(CFA_XSP16, literal(-6)))
        CFI ?RET_LOW load(1, XDATA, add(CFA_XSP16, literal(-5)))
        CFI ?RET_HIGH load(1, XDATA, add(CFA_XSP16, literal(-4)))
        CFI ?BRET_EXT load(1, XDATA, add(CFA_XSP16, literal(-3)))
        CFI DPL0 load(1, XDATA, add(CFA_XSP16, literal(-2)))
        CFI DPH0 load(1, XDATA, add(CFA_XSP16, literal(-1)))
        CFI CFA_SP SP+0
        CFI CFA_XSP16 add(XSP16, 20)
        CFI Block cfiCond31 Using cfiCommon0
        CFI (cfiCond31) NoFunction
        CFI (cfiCond31) Conditional ??CrossCallReturnLabel_14
        CFI (cfiCond31) R6 load(1, XDATA, add(CFA_XSP16, literal(-17)))
        CFI (cfiCond31) VB load(1, XDATA, add(CFA_XSP16, literal(-16)))
        CFI (cfiCond31) V0 load(1, XDATA, add(CFA_XSP16, literal(-15)))
        CFI (cfiCond31) V1 load(1, XDATA, add(CFA_XSP16, literal(-14)))
        CFI (cfiCond31) V2 load(1, XDATA, add(CFA_XSP16, literal(-13)))
        CFI (cfiCond31) V3 load(1, XDATA, add(CFA_XSP16, literal(-12)))
        CFI (cfiCond31) V4 load(1, XDATA, add(CFA_XSP16, literal(-11)))
        CFI (cfiCond31) V5 load(1, XDATA, add(CFA_XSP16, literal(-10)))
        CFI (cfiCond31) V6 load(1, XDATA, add(CFA_XSP16, literal(-9)))
        CFI (cfiCond31) V7 load(1, XDATA, add(CFA_XSP16, literal(-8)))
        CFI (cfiCond31) V8 load(1, XDATA, add(CFA_XSP16, literal(-7)))
        CFI (cfiCond31) R7 load(1, XDATA, add(CFA_XSP16, literal(-6)))
        CFI (cfiCond31) ?RET_LOW load(1, XDATA, add(CFA_XSP16, literal(-5)))
        CFI (cfiCond31) ?RET_HIGH load(1, XDATA, add(CFA_XSP16, literal(-4)))
        CFI (cfiCond31) ?BRET_EXT load(1, XDATA, add(CFA_XSP16, literal(-3)))
        CFI (cfiCond31) DPL0 load(1, XDATA, add(CFA_XSP16, literal(-2)))
        CFI (cfiCond31) DPH0 load(1, XDATA, add(CFA_XSP16, literal(-1)))
        CFI (cfiCond31) CFA_SP SP+0
        CFI (cfiCond31) CFA_XSP16 add(XSP16, 20)
        CFI Block cfiCond32 Using cfiCommon0
        CFI (cfiCond32) NoFunction
        CFI (cfiCond32) Conditional ??CrossCallReturnLabel_15
        CFI (cfiCond32) R6 load(1, XDATA, add(CFA_XSP16, literal(-17)))
        CFI (cfiCond32) VB load(1, XDATA, add(CFA_XSP16, literal(-16)))
        CFI (cfiCond32) V0 load(1, XDATA, add(CFA_XSP16, literal(-15)))
        CFI (cfiCond32) V1 load(1, XDATA, add(CFA_XSP16, literal(-14)))
        CFI (cfiCond32) V2 load(1, XDATA, add(CFA_XSP16, literal(-13)))
        CFI (cfiCond32) V3 load(1, XDATA, add(CFA_XSP16, literal(-12)))
        CFI (cfiCond32) V4 load(1, XDATA, add(CFA_XSP16, literal(-11)))
        CFI (cfiCond32) V5 load(1, XDATA, add(CFA_XSP16, literal(-10)))
        CFI (cfiCond32) V6 load(1, XDATA, add(CFA_XSP16, literal(-9)))
        CFI (cfiCond32) V7 load(1, XDATA, add(CFA_XSP16, literal(-8)))
        CFI (cfiCond32) V8 load(1, XDATA, add(CFA_XSP16, literal(-7)))
        CFI (cfiCond32) R7 load(1, XDATA, add(CFA_XSP16, literal(-6)))
        CFI (cfiCond32) ?RET_LOW load(1, XDATA, add(CFA_XSP16, literal(-5)))
        CFI (cfiCond32) ?RET_HIGH load(1, XDATA, add(CFA_XSP16, literal(-4)))
        CFI (cfiCond32) ?BRET_EXT load(1, XDATA, add(CFA_XSP16, literal(-3)))
        CFI (cfiCond32) DPL0 load(1, XDATA, add(CFA_XSP16, literal(-2)))
        CFI (cfiCond32) DPH0 load(1, XDATA, add(CFA_XSP16, literal(-1)))
        CFI (cfiCond32) CFA_SP SP+0
        CFI (cfiCond32) CFA_XSP16 add(XSP16, 20)
        CFI Block cfiCond33 Using cfiCommon0
        CFI (cfiCond33) NoFunction
        CFI (cfiCond33) Conditional ??CrossCallReturnLabel_10
        CFI (cfiCond33) R6 load(1, XDATA, add(CFA_XSP16, literal(-18)))
        CFI (cfiCond33) VB load(1, XDATA, add(CFA_XSP16, literal(-17)))
        CFI (cfiCond33) V0 load(1, XDATA, add(CFA_XSP16, literal(-16)))
        CFI (cfiCond33) V1 load(1, XDATA, add(CFA_XSP16, literal(-15)))
        CFI (cfiCond33) V2 load(1, XDATA, add(CFA_XSP16, literal(-14)))
        CFI (cfiCond33) V3 load(1, XDATA, add(CFA_XSP16, literal(-13)))
        CFI (cfiCond33) V4 load(1, XDATA, add(CFA_XSP16, literal(-12)))
        CFI (cfiCond33) V5 load(1, XDATA, add(CFA_XSP16, literal(-11)))
        CFI (cfiCond33) V6 load(1, XDATA, add(CFA_XSP16, literal(-10)))
        CFI (cfiCond33) V7 load(1, XDATA, add(CFA_XSP16, literal(-9)))
        CFI (cfiCond33) V8 load(1, XDATA, add(CFA_XSP16, literal(-8)))
        CFI (cfiCond33) V9 load(1, XDATA, add(CFA_XSP16, literal(-7)))
        CFI (cfiCond33) R7 load(1, XDATA, add(CFA_XSP16, literal(-6)))
        CFI (cfiCond33) ?RET_LOW load(1, XDATA, add(CFA_XSP16, literal(-5)))
        CFI (cfiCond33) ?RET_HIGH load(1, XDATA, add(CFA_XSP16, literal(-4)))
        CFI (cfiCond33) ?BRET_EXT load(1, XDATA, add(CFA_XSP16, literal(-3)))
        CFI (cfiCond33) DPL0 load(1, XDATA, add(CFA_XSP16, literal(-2)))
        CFI (cfiCond33) DPH0 load(1, XDATA, add(CFA_XSP16, literal(-1)))
        CFI (cfiCond33) CFA_SP SP+0
        CFI (cfiCond33) CFA_XSP16 add(XSP16, 46)
        CFI Block cfiCond34 Using cfiCommon0
        CFI (cfiCond34) NoFunction
        CFI (cfiCond34) Conditional ??CrossCallReturnLabel_11
        CFI (cfiCond34) R6 load(1, XDATA, add(CFA_XSP16, literal(-19)))
        CFI (cfiCond34) VB load(1, XDATA, add(CFA_XSP16, literal(-18)))
        CFI (cfiCond34) V0 load(1, XDATA, add(CFA_XSP16, literal(-17)))
        CFI (cfiCond34) V1 load(1, XDATA, add(CFA_XSP16, literal(-16)))
        CFI (cfiCond34) V2 load(1, XDATA, add(CFA_XSP16, literal(-15)))
        CFI (cfiCond34) V3 load(1, XDATA, add(CFA_XSP16, literal(-14)))
        CFI (cfiCond34) V4 load(1, XDATA, add(CFA_XSP16, literal(-13)))
        CFI (cfiCond34) V5 load(1, XDATA, add(CFA_XSP16, literal(-12)))
        CFI (cfiCond34) V6 load(1, XDATA, add(CFA_XSP16, literal(-11)))
        CFI (cfiCond34) V7 load(1, XDATA, add(CFA_XSP16, literal(-10)))
        CFI (cfiCond34) V8 load(1, XDATA, add(CFA_XSP16, literal(-9)))
        CFI (cfiCond34) V9 load(1, XDATA, add(CFA_XSP16, literal(-8)))
        CFI (cfiCond34) V10 load(1, XDATA, add(CFA_XSP16, literal(-7)))
        CFI (cfiCond34) R7 load(1, XDATA, add(CFA_XSP16, literal(-6)))
        CFI (cfiCond34) ?RET_LOW load(1, XDATA, add(CFA_XSP16, literal(-5)))
        CFI (cfiCond34) ?RET_HIGH load(1, XDATA, add(CFA_XSP16, literal(-4)))
        CFI (cfiCond34) ?BRET_EXT load(1, XDATA, add(CFA_XSP16, literal(-3)))
        CFI (cfiCond34) DPL0 load(1, XDATA, add(CFA_XSP16, literal(-2)))
        CFI (cfiCond34) DPH0 load(1, XDATA, add(CFA_XSP16, literal(-1)))
        CFI (cfiCond34) CFA_SP SP+0
        CFI (cfiCond34) CFA_XSP16 add(XSP16, 47)
        CFI Block cfiCond35 Using cfiCommon0
        CFI (cfiCond35) NoFunction
        CFI (cfiCond35) Conditional ??CrossCallReturnLabel_12
        CFI (cfiCond35) R6 load(1, XDATA, add(CFA_XSP16, literal(-12)))
        CFI (cfiCond35) VB load(1, XDATA, add(CFA_XSP16, literal(-11)))
        CFI (cfiCond35) V0 load(1, XDATA, add(CFA_XSP16, literal(-10)))
        CFI (cfiCond35) V1 load(1, XDATA, add(CFA_XSP16, literal(-9)))
        CFI (cfiCond35) V2 load(1, XDATA, add(CFA_XSP16, literal(-8)))
        CFI (cfiCond35) V3 load(1, XDATA, add(CFA_XSP16, literal(-7)))
        CFI (cfiCond35) R7 load(1, XDATA, add(CFA_XSP16, literal(-6)))
        CFI (cfiCond35) ?RET_LOW load(1, XDATA, add(CFA_XSP16, literal(-5)))
        CFI (cfiCond35) ?RET_HIGH load(1, XDATA, add(CFA_XSP16, literal(-4)))
        CFI (cfiCond35) ?BRET_EXT load(1, XDATA, add(CFA_XSP16, literal(-3)))
        CFI (cfiCond35) DPL0 load(1, XDATA, add(CFA_XSP16, literal(-2)))
        CFI (cfiCond35) DPH0 load(1, XDATA, add(CFA_XSP16, literal(-1)))
        CFI (cfiCond35) CFA_SP SP+0
        CFI (cfiCond35) CFA_XSP16 add(XSP16, 32)
        CFI Block cfiPicker36 Using cfiCommon1
        CFI (cfiPicker36) NoFunction
        CFI (cfiPicker36) Picker
        LCALL   ??osal_memcpy?relay
        MOV     A,#0x3
        RET
        CFI EndBlock cfiCond30
        CFI EndBlock cfiCond31
        CFI EndBlock cfiCond32
        CFI EndBlock cfiCond33
        CFI EndBlock cfiCond34
        CFI EndBlock cfiCond35
        CFI EndBlock cfiPicker36

        RSEG BANKED_CODE:CODE:NOROOT(0)
?Subroutine3:
        CFI Block cfiCond37 Using cfiCommon0
        CFI NoFunction
        CFI Conditional ??CrossCallReturnLabel_18
        CFI R6 load(1, XDATA, add(CFA_XSP16, literal(-18)))
        CFI VB load(1, XDATA, add(CFA_XSP16, literal(-17)))
        CFI V0 load(1, XDATA, add(CFA_XSP16, literal(-16)))
        CFI V1 load(1, XDATA, add(CFA_XSP16, literal(-15)))
        CFI V2 load(1, XDATA, add(CFA_XSP16, literal(-14)))
        CFI V3 load(1, XDATA, add(CFA_XSP16, literal(-13)))
        CFI V4 load(1, XDATA, add(CFA_XSP16, literal(-12)))
        CFI V5 load(1, XDATA, add(CFA_XSP16, literal(-11)))
        CFI V6 load(1, XDATA, add(CFA_XSP16, literal(-10)))
        CFI V7 load(1, XDATA, add(CFA_XSP16, literal(-9)))
        CFI V8 load(1, XDATA, add(CFA_XSP16, literal(-8)))
        CFI V9 load(1, XDATA, add(CFA_XSP16, literal(-7)))
        CFI R7 load(1, XDATA, add(CFA_XSP16, literal(-6)))
        CFI ?RET_LOW load(1, XDATA, add(CFA_XSP16, literal(-5)))
        CFI ?RET_HIGH load(1, XDATA, add(CFA_XSP16, literal(-4)))
        CFI ?BRET_EXT load(1, XDATA, add(CFA_XSP16, literal(-3)))
        CFI DPL0 load(1, XDATA, add(CFA_XSP16, literal(-2)))
        CFI DPH0 load(1, XDATA, add(CFA_XSP16, literal(-1)))
        CFI CFA_SP SP+0
        CFI CFA_XSP16 add(XSP16, 43)
        CFI Block cfiCond38 Using cfiCommon0
        CFI (cfiCond38) NoFunction
        CFI (cfiCond38) Conditional ??CrossCallReturnLabel_19
        CFI (cfiCond38) R6 load(1, XDATA, add(CFA_XSP16, literal(-19)))
        CFI (cfiCond38) VB load(1, XDATA, add(CFA_XSP16, literal(-18)))
        CFI (cfiCond38) V0 load(1, XDATA, add(CFA_XSP16, literal(-17)))
        CFI (cfiCond38) V1 load(1, XDATA, add(CFA_XSP16, literal(-16)))
        CFI (cfiCond38) V2 load(1, XDATA, add(CFA_XSP16, literal(-15)))
        CFI (cfiCond38) V3 load(1, XDATA, add(CFA_XSP16, literal(-14)))
        CFI (cfiCond38) V4 load(1, XDATA, add(CFA_XSP16, literal(-13)))
        CFI (cfiCond38) V5 load(1, XDATA, add(CFA_XSP16, literal(-12)))
        CFI (cfiCond38) V6 load(1, XDATA, add(CFA_XSP16, literal(-11)))
        CFI (cfiCond38) V7 load(1, XDATA, add(CFA_XSP16, literal(-10)))
        CFI (cfiCond38) V8 load(1, XDATA, add(CFA_XSP16, literal(-9)))
        CFI (cfiCond38) V9 load(1, XDATA, add(CFA_XSP16, literal(-8)))
        CFI (cfiCond38) V10 load(1, XDATA, add(CFA_XSP16, literal(-7)))
        CFI (cfiCond38) R7 load(1, XDATA, add(CFA_XSP16, literal(-6)))
        CFI (cfiCond38) ?RET_LOW load(1, XDATA, add(CFA_XSP16, literal(-5)))
        CFI (cfiCond38) ?RET_HIGH load(1, XDATA, add(CFA_XSP16, literal(-4)))
        CFI (cfiCond38) ?BRET_EXT load(1, XDATA, add(CFA_XSP16, literal(-3)))
        CFI (cfiCond38) DPL0 load(1, XDATA, add(CFA_XSP16, literal(-2)))
        CFI (cfiCond38) DPH0 load(1, XDATA, add(CFA_XSP16, literal(-1)))
        CFI (cfiCond38) CFA_SP SP+0
        CFI (cfiCond38) CFA_XSP16 add(XSP16, 44)
        CFI Block cfiPicker39 Using cfiCommon1
        CFI (cfiPicker39) NoFunction
        CFI (cfiPicker39) Picker
        MOV     DPL,?XSP + 0
        MOV     DPH,?XSP + 1
        MOV     A,DPL
        ADD     A,?V0 + 2
        CFI EndBlock cfiCond37
        CFI EndBlock cfiCond38
        CFI EndBlock cfiPicker39
        REQUIRE ??Subroutine11_0
        ; // Fall through to label ??Subroutine11_0

        RSEG BANKED_CODE:CODE:NOROOT(0)
??Subroutine11_0:
        CFI Block cfiCond40 Using cfiCommon0
        CFI NoFunction
        CFI Conditional ??CrossCallReturnLabel_17
        CFI R6 load(1, XDATA, add(CFA_XSP16, literal(-19)))
        CFI VB load(1, XDATA, add(CFA_XSP16, literal(-18)))
        CFI V0 load(1, XDATA, add(CFA_XSP16, literal(-17)))
        CFI V1 load(1, XDATA, add(CFA_XSP16, literal(-16)))
        CFI V2 load(1, XDATA, add(CFA_XSP16, literal(-15)))
        CFI V3 load(1, XDATA, add(CFA_XSP16, literal(-14)))
        CFI V4 load(1, XDATA, add(CFA_XSP16, literal(-13)))
        CFI V5 load(1, XDATA, add(CFA_XSP16, literal(-12)))
        CFI V6 load(1, XDATA, add(CFA_XSP16, literal(-11)))
        CFI V7 load(1, XDATA, add(CFA_XSP16, literal(-10)))
        CFI V8 load(1, XDATA, add(CFA_XSP16, literal(-9)))
        CFI V9 load(1, XDATA, add(CFA_XSP16, literal(-8)))
        CFI V10 load(1, XDATA, add(CFA_XSP16, literal(-7)))
        CFI R7 load(1, XDATA, add(CFA_XSP16, literal(-6)))
        CFI ?RET_LOW load(1, XDATA, add(CFA_XSP16, literal(-5)))
        CFI ?RET_HIGH load(1, XDATA, add(CFA_XSP16, literal(-4)))
        CFI ?BRET_EXT load(1, XDATA, add(CFA_XSP16, literal(-3)))
        CFI DPL0 load(1, XDATA, add(CFA_XSP16, literal(-2)))
        CFI DPH0 load(1, XDATA, add(CFA_XSP16, literal(-1)))
        CFI CFA_SP SP+0
        CFI CFA_XSP16 add(XSP16, 44)
        CFI Block cfiCond41 Using cfiCommon0
        CFI (cfiCond41) NoFunction
        CFI (cfiCond41) Conditional ??CrossCallReturnLabel_18
        CFI (cfiCond41) R6 load(1, XDATA, add(CFA_XSP16, literal(-18)))
        CFI (cfiCond41) VB load(1, XDATA, add(CFA_XSP16, literal(-17)))
        CFI (cfiCond41) V0 load(1, XDATA, add(CFA_XSP16, literal(-16)))
        CFI (cfiCond41) V1 load(1, XDATA, add(CFA_XSP16, literal(-15)))
        CFI (cfiCond41) V2 load(1, XDATA, add(CFA_XSP16, literal(-14)))
        CFI (cfiCond41) V3 load(1, XDATA, add(CFA_XSP16, literal(-13)))
        CFI (cfiCond41) V4 load(1, XDATA, add(CFA_XSP16, literal(-12)))
        CFI (cfiCond41) V5 load(1, XDATA, add(CFA_XSP16, literal(-11)))
        CFI (cfiCond41) V6 load(1, XDATA, add(CFA_XSP16, literal(-10)))
        CFI (cfiCond41) V7 load(1, XDATA, add(CFA_XSP16, literal(-9)))
        CFI (cfiCond41) V8 load(1, XDATA, add(CFA_XSP16, literal(-8)))
        CFI (cfiCond41) V9 load(1, XDATA, add(CFA_XSP16, literal(-7)))
        CFI (cfiCond41) R7 load(1, XDATA, add(CFA_XSP16, literal(-6)))
        CFI (cfiCond41) ?RET_LOW load(1, XDATA, add(CFA_XSP16, literal(-5)))
        CFI (cfiCond41) ?RET_HIGH load(1, XDATA, add(CFA_XSP16, literal(-4)))
        CFI (cfiCond41) ?BRET_EXT load(1, XDATA, add(CFA_XSP16, literal(-3)))
        CFI (cfiCond41) DPL0 load(1, XDATA, add(CFA_XSP16, literal(-2)))
        CFI (cfiCond41) DPH0 load(1, XDATA, add(CFA_XSP16, literal(-1)))
        CFI (cfiCond41) CFA_SP SP+0
        CFI (cfiCond41) CFA_XSP16 add(XSP16, 43)
        CFI Block cfiCond42 Using cfiCommon0
        CFI (cfiCond42) NoFunction
        CFI (cfiCond42) Conditional ??CrossCallReturnLabel_19
        CFI (cfiCond42) R6 load(1, XDATA, add(CFA_XSP16, literal(-19)))
        CFI (cfiCond42) VB load(1, XDATA, add(CFA_XSP16, literal(-18)))
        CFI (cfiCond42) V0 load(1, XDATA, add(CFA_XSP16, literal(-17)))
        CFI (cfiCond42) V1 load(1, XDATA, add(CFA_XSP16, literal(-16)))
        CFI (cfiCond42) V2 load(1, XDATA, add(CFA_XSP16, literal(-15)))
        CFI (cfiCond42) V3 load(1, XDATA, add(CFA_XSP16, literal(-14)))
        CFI (cfiCond42) V4 load(1, XDATA, add(CFA_XSP16, literal(-13)))
        CFI (cfiCond42) V5 load(1, XDATA, add(CFA_XSP16, literal(-12)))
        CFI (cfiCond42) V6 load(1, XDATA, add(CFA_XSP16, literal(-11)))
        CFI (cfiCond42) V7 load(1, XDATA, add(CFA_XSP16, literal(-10)))
        CFI (cfiCond42) V8 load(1, XDATA, add(CFA_XSP16, literal(-9)))
        CFI (cfiCond42) V9 load(1, XDATA, add(CFA_XSP16, literal(-8)))
        CFI (cfiCond42) V10 load(1, XDATA, add(CFA_XSP16, literal(-7)))
        CFI (cfiCond42) R7 load(1, XDATA, add(CFA_XSP16, literal(-6)))
        CFI (cfiCond42) ?RET_LOW load(1, XDATA, add(CFA_XSP16, literal(-5)))
        CFI (cfiCond42) ?RET_HIGH load(1, XDATA, add(CFA_XSP16, literal(-4)))
        CFI (cfiCond42) ?BRET_EXT load(1, XDATA, add(CFA_XSP16, literal(-3)))
        CFI (cfiCond42) DPL0 load(1, XDATA, add(CFA_XSP16, literal(-2)))
        CFI (cfiCond42) DPH0 load(1, XDATA, add(CFA_XSP16, literal(-1)))
        CFI (cfiCond42) CFA_SP SP+0
        CFI (cfiCond42) CFA_XSP16 add(XSP16, 44)
        CFI Block cfiPicker43 Using cfiCommon1
        CFI (cfiPicker43) NoFunction
        CFI (cfiPicker43) Picker
        MOV     DPL,A
        MOV     A,DPH
        CFI EndBlock cfiCond40
        CFI EndBlock cfiCond41
        CFI EndBlock cfiCond42
        CFI EndBlock cfiPicker43
        REQUIRE ??Subroutine12_0
        ; // Fall through to label ??Subroutine12_0

        RSEG BANKED_CODE:CODE:NOROOT(0)
??Subroutine12_0:
        CFI Block cfiCond44 Using cfiCommon0
        CFI NoFunction
        CFI Conditional ??CrossCallReturnLabel_16
        CFI R6 load(1, XDATA, add(CFA_XSP16, literal(-17)))
        CFI VB load(1, XDATA, add(CFA_XSP16, literal(-16)))
        CFI V0 load(1, XDATA, add(CFA_XSP16, literal(-15)))
        CFI V1 load(1, XDATA, add(CFA_XSP16, literal(-14)))
        CFI V2 load(1, XDATA, add(CFA_XSP16, literal(-13)))
        CFI V3 load(1, XDATA, add(CFA_XSP16, literal(-12)))
        CFI V4 load(1, XDATA, add(CFA_XSP16, literal(-11)))
        CFI V5 load(1, XDATA, add(CFA_XSP16, literal(-10)))
        CFI V6 load(1, XDATA, add(CFA_XSP16, literal(-9)))
        CFI V7 load(1, XDATA, add(CFA_XSP16, literal(-8)))
        CFI V8 load(1, XDATA, add(CFA_XSP16, literal(-7)))
        CFI R7 load(1, XDATA, add(CFA_XSP16, literal(-6)))
        CFI ?RET_LOW load(1, XDATA, add(CFA_XSP16, literal(-5)))
        CFI ?RET_HIGH load(1, XDATA, add(CFA_XSP16, literal(-4)))
        CFI ?BRET_EXT load(1, XDATA, add(CFA_XSP16, literal(-3)))
        CFI DPL0 load(1, XDATA, add(CFA_XSP16, literal(-2)))
        CFI DPH0 load(1, XDATA, add(CFA_XSP16, literal(-1)))
        CFI CFA_SP SP+0
        CFI CFA_XSP16 add(XSP16, 17)
        CFI Block cfiCond45 Using cfiCommon0
        CFI (cfiCond45) NoFunction
        CFI (cfiCond45) Conditional ??CrossCallReturnLabel_17
        CFI (cfiCond45) R6 load(1, XDATA, add(CFA_XSP16, literal(-19)))
        CFI (cfiCond45) VB load(1, XDATA, add(CFA_XSP16, literal(-18)))
        CFI (cfiCond45) V0 load(1, XDATA, add(CFA_XSP16, literal(-17)))
        CFI (cfiCond45) V1 load(1, XDATA, add(CFA_XSP16, literal(-16)))
        CFI (cfiCond45) V2 load(1, XDATA, add(CFA_XSP16, literal(-15)))
        CFI (cfiCond45) V3 load(1, XDATA, add(CFA_XSP16, literal(-14)))
        CFI (cfiCond45) V4 load(1, XDATA, add(CFA_XSP16, literal(-13)))
        CFI (cfiCond45) V5 load(1, XDATA, add(CFA_XSP16, literal(-12)))
        CFI (cfiCond45) V6 load(1, XDATA, add(CFA_XSP16, literal(-11)))
        CFI (cfiCond45) V7 load(1, XDATA, add(CFA_XSP16, literal(-10)))
        CFI (cfiCond45) V8 load(1, XDATA, add(CFA_XSP16, literal(-9)))
        CFI (cfiCond45) V9 load(1, XDATA, add(CFA_XSP16, literal(-8)))
        CFI (cfiCond45) V10 load(1, XDATA, add(CFA_XSP16, literal(-7)))
        CFI (cfiCond45) R7 load(1, XDATA, add(CFA_XSP16, literal(-6)))
        CFI (cfiCond45) ?RET_LOW load(1, XDATA, add(CFA_XSP16, literal(-5)))
        CFI (cfiCond45) ?RET_HIGH load(1, XDATA, add(CFA_XSP16, literal(-4)))
        CFI (cfiCond45) ?BRET_EXT load(1, XDATA, add(CFA_XSP16, literal(-3)))
        CFI (cfiCond45) DPL0 load(1, XDATA, add(CFA_XSP16, literal(-2)))
        CFI (cfiCond45) DPH0 load(1, XDATA, add(CFA_XSP16, literal(-1)))
        CFI (cfiCond45) CFA_SP SP+0
        CFI (cfiCond45) CFA_XSP16 add(XSP16, 44)
        CFI Block cfiCond46 Using cfiCommon0
        CFI (cfiCond46) NoFunction
        CFI (cfiCond46) Conditional ??CrossCallReturnLabel_18
        CFI (cfiCond46) R6 load(1, XDATA, add(CFA_XSP16, literal(-18)))
        CFI (cfiCond46) VB load(1, XDATA, add(CFA_XSP16, literal(-17)))
        CFI (cfiCond46) V0 load(1, XDATA, add(CFA_XSP16, literal(-16)))
        CFI (cfiCond46) V1 load(1, XDATA, add(CFA_XSP16, literal(-15)))
        CFI (cfiCond46) V2 load(1, XDATA, add(CFA_XSP16, literal(-14)))
        CFI (cfiCond46) V3 load(1, XDATA, add(CFA_XSP16, literal(-13)))
        CFI (cfiCond46) V4 load(1, XDATA, add(CFA_XSP16, literal(-12)))
        CFI (cfiCond46) V5 load(1, XDATA, add(CFA_XSP16, literal(-11)))
        CFI (cfiCond46) V6 load(1, XDATA, add(CFA_XSP16, literal(-10)))
        CFI (cfiCond46) V7 load(1, XDATA, add(CFA_XSP16, literal(-9)))
        CFI (cfiCond46) V8 load(1, XDATA, add(CFA_XSP16, literal(-8)))
        CFI (cfiCond46) V9 load(1, XDATA, add(CFA_XSP16, literal(-7)))
        CFI (cfiCond46) R7 load(1, XDATA, add(CFA_XSP16, literal(-6)))
        CFI (cfiCond46) ?RET_LOW load(1, XDATA, add(CFA_XSP16, literal(-5)))
        CFI (cfiCond46) ?RET_HIGH load(1, XDATA, add(CFA_XSP16, literal(-4)))
        CFI (cfiCond46) ?BRET_EXT load(1, XDATA, add(CFA_XSP16, literal(-3)))
        CFI (cfiCond46) DPL0 load(1, XDATA, add(CFA_XSP16, literal(-2)))
        CFI (cfiCond46) DPH0 load(1, XDATA, add(CFA_XSP16, literal(-1)))
        CFI (cfiCond46) CFA_SP SP+0
        CFI (cfiCond46) CFA_XSP16 add(XSP16, 43)
        CFI Block cfiCond47 Using cfiCommon0
        CFI (cfiCond47) NoFunction
        CFI (cfiCond47) Conditional ??CrossCallReturnLabel_19
        CFI (cfiCond47) R6 load(1, XDATA, add(CFA_XSP16, literal(-19)))
        CFI (cfiCond47) VB load(1, XDATA, add(CFA_XSP16, literal(-18)))
        CFI (cfiCond47) V0 load(1, XDATA, add(CFA_XSP16, literal(-17)))
        CFI (cfiCond47) V1 load(1, XDATA, add(CFA_XSP16, literal(-16)))
        CFI (cfiCond47) V2 load(1, XDATA, add(CFA_XSP16, literal(-15)))
        CFI (cfiCond47) V3 load(1, XDATA, add(CFA_XSP16, literal(-14)))
        CFI (cfiCond47) V4 load(1, XDATA, add(CFA_XSP16, literal(-13)))
        CFI (cfiCond47) V5 load(1, XDATA, add(CFA_XSP16, literal(-12)))
        CFI (cfiCond47) V6 load(1, XDATA, add(CFA_XSP16, literal(-11)))
        CFI (cfiCond47) V7 load(1, XDATA, add(CFA_XSP16, literal(-10)))
        CFI (cfiCond47) V8 load(1, XDATA, add(CFA_XSP16, literal(-9)))
        CFI (cfiCond47) V9 load(1, XDATA, add(CFA_XSP16, literal(-8)))
        CFI (cfiCond47) V10 load(1, XDATA, add(CFA_XSP16, literal(-7)))
        CFI (cfiCond47) R7 load(1, XDATA, add(CFA_XSP16, literal(-6)))
        CFI (cfiCond47) ?RET_LOW load(1, XDATA, add(CFA_XSP16, literal(-5)))
        CFI (cfiCond47) ?RET_HIGH load(1, XDATA, add(CFA_XSP16, literal(-4)))
        CFI (cfiCond47) ?BRET_EXT load(1, XDATA, add(CFA_XSP16, literal(-3)))
        CFI (cfiCond47) DPL0 load(1, XDATA, add(CFA_XSP16, literal(-2)))
        CFI (cfiCond47) DPH0 load(1, XDATA, add(CFA_XSP16, literal(-1)))
        CFI (cfiCond47) CFA_SP SP+0
        CFI (cfiCond47) CFA_XSP16 add(XSP16, 44)
        CFI Block cfiPicker48 Using cfiCommon1
        CFI (cfiPicker48) NoFunction
        CFI (cfiPicker48) Picker
        ADDC    A,#0x0
        MOV     DPH,A
        MOV     A,#0x20
        MOVX    @DPTR,A
        RET
        CFI EndBlock cfiCond44
        CFI EndBlock cfiCond45
        CFI EndBlock cfiCond46
        CFI EndBlock cfiCond47
        CFI EndBlock cfiPicker48
//  439 
//  440 /**************************************************************************************************
//  441  * @fn      HalLcdDisplayPercentBar
//  442  *
//  443  * @brief   Display percentage bar on the LCD
//  444  *
//  445  * @param   title   -
//  446  *          value   -
//  447  *
//  448  * @return  None
//  449  **************************************************************************************************/

        RSEG BANKED_CODE:CODE:NOROOT(0)
//  450 void HalLcdDisplayPercentBar( char *title, uint8 value )
HalLcdDisplayPercentBar:
        CFI Block cfiBlock49 Using cfiCommon0
        CFI Function HalLcdDisplayPercentBar
        CODE
//  451 {
        FUNCALL HalLcdDisplayPercentBar, HalLcdWriteString
        LOCFRAME ISTACK, 0, STACK
        LOCFRAME PSTACK, 0, STACK
        LOCFRAME XSTACK, 29, STACK
        LOCFRAME IOVERLAY, 0, STATIC
        LOCFRAME DOVERLAY, 0, STATIC
        ARGFRAME ISTACK, 0, STACK
        ARGFRAME PSTACK, 0, STACK
        ARGFRAME XSTACK, 29, STACK
        ARGFRAME IOVERLAY, 0, STATIC
        ARGFRAME DOVERLAY, 0, STATIC
        FUNCALL HalLcdDisplayPercentBar, osal_memcpy
        LOCFRAME ISTACK, 0, STACK
        LOCFRAME PSTACK, 0, STACK
        LOCFRAME XSTACK, 32, STACK
        LOCFRAME IOVERLAY, 0, STATIC
        LOCFRAME DOVERLAY, 0, STATIC
        ARGFRAME ISTACK, 0, STACK
        ARGFRAME PSTACK, 0, STACK
        ARGFRAME XSTACK, 32, STACK
        ARGFRAME IOVERLAY, 0, STATIC
        ARGFRAME DOVERLAY, 0, STATIC
        FUNCALL HalLcdDisplayPercentBar, _ltoa
        LOCFRAME ISTACK, 0, STACK
        LOCFRAME PSTACK, 0, STACK
        LOCFRAME XSTACK, 31, STACK
        LOCFRAME IOVERLAY, 0, STATIC
        LOCFRAME DOVERLAY, 0, STATIC
        ARGFRAME ISTACK, 0, STACK
        ARGFRAME PSTACK, 0, STACK
        ARGFRAME XSTACK, 31, STACK
        ARGFRAME IOVERLAY, 0, STATIC
        ARGFRAME DOVERLAY, 0, STATIC
        FUNCALL HalLcdDisplayPercentBar, HalLcdWriteString
        LOCFRAME ISTACK, 0, STACK
        LOCFRAME PSTACK, 0, STACK
        LOCFRAME XSTACK, 29, STACK
        LOCFRAME IOVERLAY, 0, STATIC
        LOCFRAME DOVERLAY, 0, STATIC
        ARGFRAME ISTACK, 0, STACK
        ARGFRAME PSTACK, 0, STACK
        ARGFRAME XSTACK, 29, STACK
        ARGFRAME IOVERLAY, 0, STATIC
        ARGFRAME DOVERLAY, 0, STATIC
        MOV     A,#-0xc
        LCALL   ?BANKED_ENTER_XDATA
        CFI DPH0 load(1, XDATA, add(CFA_XSP16, literal(-1)))
        CFI DPL0 load(1, XDATA, add(CFA_XSP16, literal(-2)))
        CFI ?BRET_EXT load(1, XDATA, add(CFA_XSP16, literal(-3)))
        CFI ?RET_HIGH load(1, XDATA, add(CFA_XSP16, literal(-4)))
        CFI ?RET_LOW load(1, XDATA, add(CFA_XSP16, literal(-5)))
        CFI R7 load(1, XDATA, add(CFA_XSP16, literal(-6)))
        CFI V3 load(1, XDATA, add(CFA_XSP16, literal(-7)))
        CFI V2 load(1, XDATA, add(CFA_XSP16, literal(-8)))
        CFI V1 load(1, XDATA, add(CFA_XSP16, literal(-9)))
        CFI V0 load(1, XDATA, add(CFA_XSP16, literal(-10)))
        CFI VB load(1, XDATA, add(CFA_XSP16, literal(-11)))
        CFI R6 load(1, XDATA, add(CFA_XSP16, literal(-12)))
        CFI CFA_SP SP+0
        CFI CFA_XSP16 add(XSP16, 12)
        ; Saved register size: 12
        ; Auto size: 17
        MOV     A,#-0x11
        LCALL   ?ALLOC_XSTACK8
        CFI CFA_XSP16 add(XSP16, 29)
        MOV     A,R1
        MOV     R6,A
//  452 #if (HAL_LCD == TRUE)
//  453 
//  454   uint8 percent;
//  455   uint8 leftOver;
//  456   uint8 buf[17];
//  457   uint32 err;
//  458   uint8 x;
//  459 
//  460   /* Write the title: */
//  461   HalLcdWriteString( title, HAL_LCD_LINE_1 );
        ; Setup parameters for call to function HalLcdWriteString
        MOV     R1,#0x1
        LCALL   ??HalLcdWriteString?relay
//  462 
//  463   if ( value > 100 )
        MOV     A,R6
        CLR     C
        SUBB    A,#0x65
        JC      ??HalLcdDisplayPercentBar_0
//  464     value = 100;
        MOV     R6,#0x64
//  465 
//  466   /* convert to blocks */
//  467   percent = (uint8)(value / 10);
??HalLcdDisplayPercentBar_0:
        MOV     B,#0xa
        MOV     A,R6
        DIV     AB
        MOV     ?V0 + 3,A
//  468   leftOver = (uint8)(value % 10);
        MOV     A,R6
        MOV     B,#0xa
        DIV     AB
        MOV     R7,B
//  469 
//  470   /* Make window */
//  471   osal_memcpy( buf, "[          ]  ", 15 );
        ; Setup parameters for call to function osal_memcpy
        MOV     ?V0 + 0,#`?<Constant "[          ]  ">` & 0xff
        MOV     ?V0 + 1,#(`?<Constant "[          ]  ">` >> 8) & 0xff
        MOV     ?V0 + 2,#0x0
        MOV     R0,#?V0 + 0
        LCALL   ?PUSH_XSTACK_I_THREE
        CFI CFA_XSP16 add(XSP16, 32)
        MOV     R4,#0xf
        MOV     R5,#0x0
        MOV     A,#0x3
        LCALL   ?XSTACK_DISP0_8
        LCALL   ?Subroutine4 & 0xFFFF
??CrossCallReturnLabel_12:
        LCALL   ?DEALLOC_XSTACK8
        CFI CFA_XSP16 add(XSP16, 29)
//  472 
//  473   for ( x = 0; x < percent; x ++ )
        MOV     A,?V0 + 3
        JZ      ??HalLcdDisplayPercentBar_1
//  474   {
//  475     buf[1+x] = '>';
        MOV     R0,A
        MOV     R1,#0x0
        MOV     R2,#0x3e
        MOV     A,#0x1
        LCALL   ?XSTACK_DISP0_8
??HalLcdDisplayPercentBar_2:
        MOV     A,R2
        MOVX    @DPTR,A
        INC     DPTR
        MOV     A,R0
        ADD     A,#-0x1
        DEC     R0
        MOV     A,R1
        ADDC    A,#-0x1
        MOV     R1,A
        ORL     A,R0
        JNZ     ??HalLcdDisplayPercentBar_2
//  476   }
        MOV     ?V0 + 2,?V0 + 3
//  477 
//  478   if ( leftOver >= 5 )
??HalLcdDisplayPercentBar_1:
        MOV     A,R7
        CLR     C
        SUBB    A,#0x5
        JC      ??HalLcdDisplayPercentBar_3
//  479     buf[1+x] = '+';
        MOV     ?V0 + 0,?V0 + 2
        MOV     DPL,?XSP + 0
        MOV     DPH,?XSP + 1
        MOV     A,DPL
        ADD     A,?V0 + 0
        MOV     DPL,A
        MOV     A,DPH
        ADDC    A,#0x0
        MOV     DPH,A
        INC     DPTR
        MOV     A,#0x2b
        MOVX    @DPTR,A
//  480 
//  481   err = (uint32)value;
//  482   _ltoa( err, (uint8*)&buf[13], 10 );
??HalLcdDisplayPercentBar_3:
        ; Setup parameters for call to function _ltoa
        MOV     A,#0xd
        LCALL   ?XSTACK_DISP0_8
        MOV     ?V0 + 0,DPL
        MOV     ?V0 + 1,DPH
        MOV     R0,#?V0 + 0
        LCALL   ?PUSH_XSTACK_I_TWO
        CFI CFA_XSP16 add(XSP16, 31)
        MOV     R1,#0xa
        MOV     A,R6
        MOV     R2,A
        CLR     A
        MOV     R3,A
        LCALL   ??Subroutine8_0 & 0xFFFF
??CrossCallReturnLabel_8:
        LCALL   ?DEALLOC_XSTACK8
        CFI CFA_XSP16 add(XSP16, 29)
//  483 
//  484   HalLcdWriteString( (char*)buf, HAL_LCD_LINE_2 );
        ; Setup parameters for call to function HalLcdWriteString
        MOV     R1,#0x2
        MOV     DPL,?XSP + 0
        MOV     DPH,?XSP + 1
        MOV     R2,DPL
        MOV     R3,DPH
        LCALL   ??HalLcdWriteString?relay
//  485 
//  486 #endif
//  487 
//  488 }
        MOV     A,#0x11
        LCALL   ?DEALLOC_XSTACK8
        CFI CFA_XSP16 add(XSP16, 12)
        MOV     R7,#0x4
        LJMP    ?BANKED_LEAVE_XDATA
        CFI EndBlock cfiBlock49
//  489 
//  490 #if (HAL_LCD == TRUE)
//  491 /**************************************************************************************************
//  492  *                                    HARDWARE LCD
//  493  **************************************************************************************************/
//  494 
//  495 /**************************************************************************************************
//  496  * @fn      halLcd_ConfigIO
//  497  *
//  498  * @brief   Configure IO lines needed for LCD control.
//  499  *
//  500  * @param   None
//  501  *
//  502  * @return  None
//  503  **************************************************************************************************/
//  504 static void halLcd_ConfigIO(void)
//  505 {
//  506   /* GPIO configuration */
//  507   HAL_CONFIG_IO_OUTPUT(HAL_LCD_MODE_PORT,  HAL_LCD_MODE_PIN,  1);
//  508   HAL_CONFIG_IO_OUTPUT(HAL_LCD_RESET_PORT, HAL_LCD_RESET_PIN, 1);
//  509   HAL_CONFIG_IO_OUTPUT(HAL_LCD_CS_PORT,    HAL_LCD_CS_PIN,    1);
//  510 }
//  511 
//  512 /**************************************************************************************************
//  513  * @fn      halLcd_ConfigSPI
//  514  *
//  515  * @brief   Configure SPI lines needed for talking to LCD.
//  516  *
//  517  * @param   None
//  518  *
//  519  * @return  None
//  520  **************************************************************************************************/
//  521 static void halLcd_ConfigSPI(void)
//  522 {
//  523   /* UART/SPI Peripheral configuration */
//  524 
//  525    uint8 baud_exponent;
//  526    uint8 baud_mantissa;
//  527 
//  528   /* Set SPI on UART 1 alternative 2 */
//  529   PERCFG |= 0x02;
//  530 
//  531   /* Configure clk, master out and master in lines */
//  532   HAL_CONFIG_IO_PERIPHERAL(HAL_LCD_CLK_PORT,  HAL_LCD_CLK_PIN);
//  533   HAL_CONFIG_IO_PERIPHERAL(HAL_LCD_MOSI_PORT, HAL_LCD_MOSI_PIN);
//  534   HAL_CONFIG_IO_PERIPHERAL(HAL_LCD_MISO_PORT, HAL_LCD_MISO_PIN);
//  535 
//  536 
//  537   /* Set SPI speed to 1 MHz (the values assume system clk of 32MHz)
//  538    * Confirm on board that this results in 1MHz spi clk.
//  539    */
//  540   baud_exponent = 15;
//  541   baud_mantissa =  0;
//  542 
//  543   /* Configure SPI */
//  544   U1UCR  = 0x80;      /* Flush and goto IDLE state. 8-N-1. */
//  545   U1CSR  = 0x00;      /* SPI mode, master. */
//  546   U1GCR  = HAL_SPI_TRANSFER_MSB_FIRST | HAL_SPI_CLOCK_PHA_0 | HAL_SPI_CLOCK_POL_LO | baud_exponent;
//  547   U1BAUD = baud_mantissa;
//  548 }
//  549 
//  550 /**************************************************************************************************
//  551  * @fn      HalLcd_HW_Init
//  552  *
//  553  * @brief   Initilize HW LCD Driver.
//  554  *
//  555  * @param   None
//  556  *
//  557  * @return  None
//  558  **************************************************************************************************/

        RSEG BANKED_CODE:CODE:NOROOT(0)
//  559 void HalLcd_HW_Init(void)
HalLcd_HW_Init:
        CFI Block cfiBlock50 Using cfiCommon0
        CFI Function HalLcd_HW_Init
        CODE
//  560 {
        FUNCALL HalLcd_HW_Init, HalLcd_HW_WaitUs
        LOCFRAME ISTACK, 2, STACK
        LOCFRAME PSTACK, 0, STACK
        LOCFRAME XSTACK, 0, STACK
        LOCFRAME IOVERLAY, 0, STATIC
        LOCFRAME DOVERLAY, 0, STATIC
        ARGFRAME ISTACK, 2, STACK
        ARGFRAME PSTACK, 0, STACK
        ARGFRAME XSTACK, 0, STACK
        ARGFRAME IOVERLAY, 0, STATIC
        ARGFRAME DOVERLAY, 0, STATIC
        FUNCALL HalLcd_HW_Init, HalLcd_HW_WaitUs
        LOCFRAME ISTACK, 2, STACK
        LOCFRAME PSTACK, 0, STACK
        LOCFRAME XSTACK, 0, STACK
        LOCFRAME IOVERLAY, 0, STATIC
        LOCFRAME DOVERLAY, 0, STATIC
        ARGFRAME ISTACK, 2, STACK
        ARGFRAME PSTACK, 0, STACK
        ARGFRAME XSTACK, 0, STACK
        ARGFRAME IOVERLAY, 0, STATIC
        ARGFRAME DOVERLAY, 0, STATIC
        FUNCALL HalLcd_HW_Init, HalLcd_HW_Control
        LOCFRAME ISTACK, 2, STACK
        LOCFRAME PSTACK, 0, STACK
        LOCFRAME XSTACK, 0, STACK
        LOCFRAME IOVERLAY, 0, STATIC
        LOCFRAME DOVERLAY, 0, STATIC
        ARGFRAME ISTACK, 2, STACK
        ARGFRAME PSTACK, 0, STACK
        ARGFRAME XSTACK, 0, STACK
        ARGFRAME IOVERLAY, 0, STATIC
        ARGFRAME DOVERLAY, 0, STATIC
        FUNCALL HalLcd_HW_Init, HalLcd_HW_SetContrast
        LOCFRAME ISTACK, 2, STACK
        LOCFRAME PSTACK, 0, STACK
        LOCFRAME XSTACK, 0, STACK
        LOCFRAME IOVERLAY, 0, STATIC
        LOCFRAME DOVERLAY, 0, STATIC
        ARGFRAME ISTACK, 2, STACK
        ARGFRAME PSTACK, 0, STACK
        ARGFRAME XSTACK, 0, STACK
        ARGFRAME IOVERLAY, 0, STATIC
        ARGFRAME DOVERLAY, 0, STATIC
        FUNCALL HalLcd_HW_Init, HalLcd_HW_Control
        LOCFRAME ISTACK, 2, STACK
        LOCFRAME PSTACK, 0, STACK
        LOCFRAME XSTACK, 0, STACK
        LOCFRAME IOVERLAY, 0, STATIC
        LOCFRAME DOVERLAY, 0, STATIC
        ARGFRAME ISTACK, 2, STACK
        ARGFRAME PSTACK, 0, STACK
        ARGFRAME XSTACK, 0, STACK
        ARGFRAME IOVERLAY, 0, STATIC
        ARGFRAME DOVERLAY, 0, STATIC
        FUNCALL HalLcd_HW_Init, HalLcd_HW_Control
        LOCFRAME ISTACK, 2, STACK
        LOCFRAME PSTACK, 0, STACK
        LOCFRAME XSTACK, 0, STACK
        LOCFRAME IOVERLAY, 0, STATIC
        LOCFRAME DOVERLAY, 0, STATIC
        ARGFRAME ISTACK, 2, STACK
        ARGFRAME PSTACK, 0, STACK
        ARGFRAME XSTACK, 0, STACK
        ARGFRAME IOVERLAY, 0, STATIC
        ARGFRAME DOVERLAY, 0, STATIC
        FUNCALL HalLcd_HW_Init, HalLcd_HW_Control
        LOCFRAME ISTACK, 2, STACK
        LOCFRAME PSTACK, 0, STACK
        LOCFRAME XSTACK, 0, STACK
        LOCFRAME IOVERLAY, 0, STATIC
        LOCFRAME DOVERLAY, 0, STATIC
        ARGFRAME ISTACK, 2, STACK
        ARGFRAME PSTACK, 0, STACK
        ARGFRAME XSTACK, 0, STACK
        ARGFRAME IOVERLAY, 0, STATIC
        ARGFRAME DOVERLAY, 0, STATIC
        FUNCALL HalLcd_HW_Init, HalLcd_HW_WaitUs
        LOCFRAME ISTACK, 2, STACK
        LOCFRAME PSTACK, 0, STACK
        LOCFRAME XSTACK, 0, STACK
        LOCFRAME IOVERLAY, 0, STATIC
        LOCFRAME DOVERLAY, 0, STATIC
        ARGFRAME ISTACK, 2, STACK
        ARGFRAME PSTACK, 0, STACK
        ARGFRAME XSTACK, 0, STACK
        ARGFRAME IOVERLAY, 0, STATIC
        ARGFRAME DOVERLAY, 0, STATIC
        FUNCALL HalLcd_HW_Init, HalLcd_HW_Clear
        LOCFRAME ISTACK, 2, STACK
        LOCFRAME PSTACK, 0, STACK
        LOCFRAME XSTACK, 0, STACK
        LOCFRAME IOVERLAY, 0, STATIC
        LOCFRAME DOVERLAY, 0, STATIC
        ARGFRAME ISTACK, 2, STACK
        ARGFRAME PSTACK, 0, STACK
        ARGFRAME XSTACK, 0, STACK
        ARGFRAME IOVERLAY, 0, STATIC
        ARGFRAME DOVERLAY, 0, STATIC
        FUNCALL HalLcd_HW_Init, HalLcd_HW_ClearAllSpecChars
        LOCFRAME ISTACK, 2, STACK
        LOCFRAME PSTACK, 0, STACK
        LOCFRAME XSTACK, 0, STACK
        LOCFRAME IOVERLAY, 0, STATIC
        LOCFRAME DOVERLAY, 0, STATIC
        ARGFRAME ISTACK, 2, STACK
        ARGFRAME PSTACK, 0, STACK
        ARGFRAME XSTACK, 0, STACK
        ARGFRAME IOVERLAY, 0, STATIC
        ARGFRAME DOVERLAY, 0, STATIC
        FUNCALL HalLcd_HW_Init, HalLcd_HW_Control
        LOCFRAME ISTACK, 2, STACK
        LOCFRAME PSTACK, 0, STACK
        LOCFRAME XSTACK, 0, STACK
        LOCFRAME IOVERLAY, 0, STATIC
        LOCFRAME DOVERLAY, 0, STATIC
        ARGFRAME ISTACK, 2, STACK
        ARGFRAME PSTACK, 0, STACK
        ARGFRAME XSTACK, 0, STACK
        ARGFRAME IOVERLAY, 0, STATIC
        ARGFRAME DOVERLAY, 0, STATIC
        PUSH    DPL
        CFI DPL0 Frame(CFA_SP, 4)
        CFI CFA_SP SP+-4
        PUSH    DPH
        CFI DPH0 Frame(CFA_SP, 5)
        CFI CFA_SP SP+-5
        ; Saved register size: 2
        ; Auto size: 0
//  561   /* Initialize LCD IO lines */
//  562   halLcd_ConfigIO();
        ANL     0xf3,#0xfe
        SETB    0x80.0
        ORL     0xfd,#0x1
        ANL     0xf4,#0xfd
        SETB    0x90.1
        ORL     0xfe,#0x2
        ANL     0xf4,#0xfb
        SETB    0x90.2
        ORL     0xfe,#0x4
//  563 
//  564   /* Initialize SPI */
//  565   halLcd_ConfigSPI();
        ORL     0xf1,#0x2
        ORL     0xf4,#0x20
        ORL     0xf4,#0x40
        ORL     0xf4,#0x80
        MOV     0xfb,#-0x80
        MOV     0xf8,#0x0
        MOV     0xfc,#0x2f
        MOV     0xfa,#0x0
//  566 
//  567   /* Perform reset */
//  568   LCD_ACTIVATE_RESET();
        CLR     0x90.1
//  569   HalLcd_HW_WaitUs(15000); // 15 ms
        ; Setup parameters for call to function HalLcd_HW_WaitUs
        MOV     R2,#-0x68
        MOV     R3,#0x3a
        LCALL   ??HalLcd_HW_WaitUs?relay
//  570   LCD_RELEASE_RESET();
        SETB    0x90.1
//  571   HalLcd_HW_WaitUs(15); // 15 us
        ; Setup parameters for call to function HalLcd_HW_WaitUs
        MOV     R2,#0xf
        MOV     R3,#0x0
        LCALL   ??HalLcd_HW_WaitUs?relay
//  572 
//  573   /* Perform the initialization sequence */
//  574   FUNCTION_SET(CGRAM | COM_FORWARD | THREE_LINE);
        ; Setup parameters for call to function HalLcd_HW_Control
        MOV     R1,#0x15
        LCALL   ??HalLcd_HW_Control?relay
//  575 
//  576   /* Set contrast */
//  577   HalLcd_HW_SetContrast(15);
        ; Setup parameters for call to function HalLcd_HW_SetContrast
        MOV     R1,#0xf
        LCALL   ??HalLcd_HW_SetContrast?relay
//  578 
//  579   /* Set power */
//  580   SET_POWER_SAVE_MODE(OSC_OFF | POWER_SAVE_ON);
        ; Setup parameters for call to function HalLcd_HW_Control
        MOV     R1,#0xe
        LCALL   ??HalLcd_HW_Control?relay
//  581   SET_POWER_CTRL(VOLTAGE_DIVIDER_ON | CONVERTER_AND_REG_ON);
        ; Setup parameters for call to function HalLcd_HW_Control
        MOV     R1,#0x25
        LCALL   ??HalLcd_HW_Control?relay
//  582   SET_BIAS_CTRL(BIAS_1_5);
        ; Setup parameters for call to function HalLcd_HW_Control
        MOV     R1,#0x1c
        LCALL   ??HalLcd_HW_Control?relay
//  583   HalLcd_HW_WaitUs(21000);// 21 ms
        ; Setup parameters for call to function HalLcd_HW_WaitUs
        MOV     R2,#0x8
        MOV     R3,#0x52
        LCALL   ??HalLcd_HW_WaitUs?relay
//  584 
//  585   /* Clear the display */
//  586   HalLcd_HW_Clear();
        ; Setup parameters for call to function HalLcd_HW_Clear
        LCALL   ??HalLcd_HW_Clear?relay
//  587   HalLcd_HW_ClearAllSpecChars();
        ; Setup parameters for call to function HalLcd_HW_ClearAllSpecChars
        LCALL   ??HalLcd_HW_ClearAllSpecChars?relay
//  588   SET_DISPLAY_CTRL(DISPLAY_CTRL_ON | DISPLAY_CTRL_BLINK_OFF | DISPLAY_CTRL_CURSOR_OFF);
        ; Setup parameters for call to function HalLcd_HW_Control
        MOV     R1,#0x29
        LCALL   ??HalLcd_HW_Control?relay
//  589 }
        LJMP    ?Subroutine1 & 0xFFFF
        CFI EndBlock cfiBlock50
        REQUIRE _A_P1
        REQUIRE PERCFG
        REQUIRE P1SEL
        REQUIRE U1UCR
        REQUIRE _A_U1CSR
        REQUIRE U1GCR
        REQUIRE U1BAUD
        REQUIRE P0SEL
        REQUIRE _A_P0
        REQUIRE P0DIR
        REQUIRE P1DIR
//  590 
//  591 /**************************************************************************************************
//  592  * @fn      HalLcd_HW_Control
//  593  *
//  594  * @brief   Write 1 command to the LCD
//  595  *
//  596  * @param   uint8 cmd - command to be written to the LCD
//  597  *
//  598  * @return  None
//  599  **************************************************************************************************/

        RSEG BANKED_CODE:CODE:NOROOT(0)
//  600 void HalLcd_HW_Control(uint8 cmd)
HalLcd_HW_Control:
        CFI Block cfiBlock51 Using cfiCommon0
        CFI Function HalLcd_HW_Control
        CODE
//  601 {
        ; Saved register size: 0
        ; Auto size: 0
//  602   LCD_SPI_BEGIN();
        CLR     0x90.2
//  603   LCD_DO_CONTROL();
        CLR     0x80.0
//  604   LCD_SPI_TX(cmd);
        ANL     0xf8,#0xf9
        MOV     0xf9,R1
??HalLcd_HW_Control_0:
        MOV     C,0xf8.1
        JNC     ??HalLcd_HW_Control_0
//  605   LCD_SPI_WAIT_RXRDY();
??HalLcd_HW_Control_1:
        MOV     C,0xf8.1
        JNC     ??HalLcd_HW_Control_1
        CFI EndBlock cfiBlock51
//  606   LCD_SPI_END();
        REQUIRE ?Subroutine0
        REQUIRE _A_P1
        REQUIRE _A_P0
        REQUIRE _A_U1CSR
        REQUIRE U1DBUF
        ; // Fall through to label ?Subroutine0
//  607 }

        RSEG BANKED_CODE:CODE:NOROOT(0)
?Subroutine0:
        CFI Block cfiBlock52 Using cfiCommon0
        CFI NoFunction
        NOP
        NOP
        NOP
        NOP
        SETB    0x90.2
        LJMP    ?BRET
        CFI EndBlock cfiBlock52
//  608 
//  609 /**************************************************************************************************
//  610  * @fn      HalLcd_HW_Write
//  611  *
//  612  * @brief   Write 1 byte to the LCD
//  613  *
//  614  * @param   uint8 data - data to be written to the LCD
//  615  *
//  616  * @return  None
//  617  **************************************************************************************************/

        RSEG BANKED_CODE:CODE:NOROOT(0)
//  618 void HalLcd_HW_Write(uint8 data)
HalLcd_HW_Write:
        CFI Block cfiBlock53 Using cfiCommon0
        CFI Function HalLcd_HW_Write
        CODE
//  619 {
        ; Saved register size: 0
        ; Auto size: 0
//  620   LCD_SPI_BEGIN();
        CLR     0x90.2
//  621   LCD_DO_WRITE();
        SETB    0x80.0
//  622   LCD_SPI_TX(data);
        ANL     0xf8,#0xf9
        MOV     0xf9,R1
??HalLcd_HW_Write_0:
        MOV     C,0xf8.1
        JNC     ??HalLcd_HW_Write_0
//  623   LCD_SPI_WAIT_RXRDY();
??HalLcd_HW_Write_1:
        MOV     C,0xf8.1
        JNC     ??HalLcd_HW_Write_1
//  624   LCD_SPI_END();
        SJMP    ?Subroutine0
        CFI EndBlock cfiBlock53
        REQUIRE _A_P1
        REQUIRE _A_P0
        REQUIRE _A_U1CSR
        REQUIRE U1DBUF
//  625 }
//  626 
//  627 /**************************************************************************************************
//  628  * @fn          HalLcd_HW_SetContrast
//  629  *
//  630  * @brief       Set display contrast
//  631  *
//  632  * @param       uint8 value - contrast value
//  633  *
//  634  * @return      none
//  635  **************************************************************************************************/

        RSEG BANKED_CODE:CODE:NOROOT(0)
//  636 void HalLcd_HW_SetContrast(uint8 value)
HalLcd_HW_SetContrast:
        CFI Block cfiBlock54 Using cfiCommon0
        CFI Function HalLcd_HW_SetContrast
        CODE
//  637 {
        FUNCALL HalLcd_HW_SetContrast, HalLcd_HW_Control
        LOCFRAME ISTACK, 0, STACK
        LOCFRAME PSTACK, 0, STACK
        LOCFRAME XSTACK, 9, STACK
        LOCFRAME IOVERLAY, 0, STATIC
        LOCFRAME DOVERLAY, 0, STATIC
        ARGFRAME ISTACK, 0, STACK
        ARGFRAME PSTACK, 0, STACK
        ARGFRAME XSTACK, 9, STACK
        ARGFRAME IOVERLAY, 0, STATIC
        ARGFRAME DOVERLAY, 0, STATIC
        FUNCALL HalLcd_HW_SetContrast, HalLcd_HW_Write
        LOCFRAME ISTACK, 0, STACK
        LOCFRAME PSTACK, 0, STACK
        LOCFRAME XSTACK, 9, STACK
        LOCFRAME IOVERLAY, 0, STATIC
        LOCFRAME DOVERLAY, 0, STATIC
        ARGFRAME ISTACK, 0, STACK
        ARGFRAME PSTACK, 0, STACK
        ARGFRAME XSTACK, 9, STACK
        ARGFRAME IOVERLAY, 0, STATIC
        ARGFRAME DOVERLAY, 0, STATIC
        MOV     A,#-0x9
        LCALL   ?BANKED_ENTER_XDATA
        CFI DPH0 load(1, XDATA, add(CFA_XSP16, literal(-1)))
        CFI DPL0 load(1, XDATA, add(CFA_XSP16, literal(-2)))
        CFI ?BRET_EXT load(1, XDATA, add(CFA_XSP16, literal(-3)))
        CFI ?RET_HIGH load(1, XDATA, add(CFA_XSP16, literal(-4)))
        CFI ?RET_LOW load(1, XDATA, add(CFA_XSP16, literal(-5)))
        CFI R7 load(1, XDATA, add(CFA_XSP16, literal(-6)))
        CFI V0 load(1, XDATA, add(CFA_XSP16, literal(-7)))
        CFI VB load(1, XDATA, add(CFA_XSP16, literal(-8)))
        CFI R6 load(1, XDATA, add(CFA_XSP16, literal(-9)))
        CFI CFA_SP SP+0
        CFI CFA_XSP16 add(XSP16, 9)
        ; Saved register size: 9
        ; Auto size: 0
        MOV     A,R1
        MOV     R6,A
//  638   SET_ICONRAM_ADDR(CONTRAST_CTRL_REGISTER);
        ; Setup parameters for call to function HalLcd_HW_Control
        MOV     R1,#0x50
        LCALL   ?Subroutine7 & 0xFFFF
//  639   HalLcd_HW_Write(value);
//  640 }
??CrossCallReturnLabel_3:
        SJMP    ?Subroutine2
        CFI EndBlock cfiBlock54
//  641 
//  642 /**************************************************************************************************
//  643  * @fn      HalLcd_HW_Clear
//  644  *
//  645  * @brief   Clear the HW LCD
//  646  *
//  647  * @param   None
//  648  *
//  649  * @return  None
//  650  **************************************************************************************************/

        RSEG BANKED_CODE:CODE:NOROOT(0)
//  651 void HalLcd_HW_Clear(void)
HalLcd_HW_Clear:
        CFI Block cfiBlock55 Using cfiCommon0
        CFI Function HalLcd_HW_Clear
        CODE
//  652 {
        FUNCALL HalLcd_HW_Clear, HalLcd_HW_Control
        LOCFRAME ISTACK, 0, STACK
        LOCFRAME PSTACK, 0, STACK
        LOCFRAME XSTACK, 9, STACK
        LOCFRAME IOVERLAY, 0, STATIC
        LOCFRAME DOVERLAY, 0, STATIC
        ARGFRAME ISTACK, 0, STACK
        ARGFRAME PSTACK, 0, STACK
        ARGFRAME XSTACK, 9, STACK
        ARGFRAME IOVERLAY, 0, STATIC
        ARGFRAME DOVERLAY, 0, STATIC
        FUNCALL HalLcd_HW_Clear, HalLcd_HW_Write
        LOCFRAME ISTACK, 0, STACK
        LOCFRAME PSTACK, 0, STACK
        LOCFRAME XSTACK, 9, STACK
        LOCFRAME IOVERLAY, 0, STATIC
        LOCFRAME DOVERLAY, 0, STATIC
        ARGFRAME ISTACK, 0, STACK
        ARGFRAME PSTACK, 0, STACK
        ARGFRAME XSTACK, 9, STACK
        ARGFRAME IOVERLAY, 0, STATIC
        ARGFRAME DOVERLAY, 0, STATIC
        MOV     A,#-0x9
        LCALL   ?BANKED_ENTER_XDATA
        CFI DPH0 load(1, XDATA, add(CFA_XSP16, literal(-1)))
        CFI DPL0 load(1, XDATA, add(CFA_XSP16, literal(-2)))
        CFI ?BRET_EXT load(1, XDATA, add(CFA_XSP16, literal(-3)))
        CFI ?RET_HIGH load(1, XDATA, add(CFA_XSP16, literal(-4)))
        CFI ?RET_LOW load(1, XDATA, add(CFA_XSP16, literal(-5)))
        CFI R7 load(1, XDATA, add(CFA_XSP16, literal(-6)))
        CFI V0 load(1, XDATA, add(CFA_XSP16, literal(-7)))
        CFI VB load(1, XDATA, add(CFA_XSP16, literal(-8)))
        CFI R6 load(1, XDATA, add(CFA_XSP16, literal(-9)))
        CFI CFA_SP SP+0
        CFI CFA_XSP16 add(XSP16, 9)
        ; Saved register size: 9
        ; Auto size: 0
//  653   uint8 n;
//  654 
//  655   SET_DDRAM_ADDR(0x00);
        ; Setup parameters for call to function HalLcd_HW_Control
        MOV     R1,#-0x80
        LCALL   ??HalLcd_HW_Control?relay
//  656   for (n = 0; n < (LCD_MAX_LINE_COUNT * LCD_MAX_LINE_LENGTH); n++)
        MOV     R6,#0x30
//  657   {
//  658     HalLcd_HW_Write(' ');
??HalLcd_HW_Clear_0:
        ; Setup parameters for call to function HalLcd_HW_Write
        MOV     R1,#0x20
        LCALL   ??HalLcd_HW_Write?relay
//  659   }
        DEC     R6
        MOV     A,R6
        JNZ     ??HalLcd_HW_Clear_0
        CFI EndBlock cfiBlock55
//  660 }
        REQUIRE ?Subroutine2
        ; // Fall through to label ?Subroutine2

        RSEG BANKED_CODE:CODE:NOROOT(0)
?Subroutine2:
        CFI Block cfiBlock56 Using cfiCommon0
        CFI NoFunction
        CFI CFA_SP SP+0
        CFI CFA_XSP16 add(XSP16, 9)
        CFI VB load(1, XDATA, add(CFA_XSP16, literal(-8)))
        CFI DPL0 load(1, XDATA, add(CFA_XSP16, literal(-2)))
        CFI DPH0 load(1, XDATA, add(CFA_XSP16, literal(-1)))
        CFI R6 load(1, XDATA, add(CFA_XSP16, literal(-9)))
        CFI R7 load(1, XDATA, add(CFA_XSP16, literal(-6)))
        CFI V0 load(1, XDATA, add(CFA_XSP16, literal(-7)))
        CFI ?BRET_EXT load(1, XDATA, add(CFA_XSP16, literal(-3)))
        CFI ?RET_HIGH load(1, XDATA, add(CFA_XSP16, literal(-4)))
        CFI ?RET_LOW load(1, XDATA, add(CFA_XSP16, literal(-5)))
        MOV     R7,#0x1
        LJMP    ?BANKED_LEAVE_XDATA
        CFI EndBlock cfiBlock56
//  661 
//  662 /**************************************************************************************************
//  663  * @fn      HalLcd_HW_ClearAllSpecChars
//  664  *
//  665  * @brief   Clear all special chars
//  666  *
//  667  * @param   None
//  668  *
//  669  * @return  None
//  670  **************************************************************************************************/

        RSEG BANKED_CODE:CODE:NOROOT(0)
//  671 void HalLcd_HW_ClearAllSpecChars(void)
HalLcd_HW_ClearAllSpecChars:
        CFI Block cfiBlock57 Using cfiCommon0
        CFI Function HalLcd_HW_ClearAllSpecChars
        CODE
//  672 {
        FUNCALL HalLcd_HW_ClearAllSpecChars, HalLcd_HW_Control
        LOCFRAME ISTACK, 0, STACK
        LOCFRAME PSTACK, 0, STACK
        LOCFRAME XSTACK, 9, STACK
        LOCFRAME IOVERLAY, 0, STATIC
        LOCFRAME DOVERLAY, 0, STATIC
        ARGFRAME ISTACK, 0, STACK
        ARGFRAME PSTACK, 0, STACK
        ARGFRAME XSTACK, 9, STACK
        ARGFRAME IOVERLAY, 0, STATIC
        ARGFRAME DOVERLAY, 0, STATIC
        FUNCALL HalLcd_HW_ClearAllSpecChars, HalLcd_HW_Write
        LOCFRAME ISTACK, 0, STACK
        LOCFRAME PSTACK, 0, STACK
        LOCFRAME XSTACK, 9, STACK
        LOCFRAME IOVERLAY, 0, STATIC
        LOCFRAME DOVERLAY, 0, STATIC
        ARGFRAME ISTACK, 0, STACK
        ARGFRAME PSTACK, 0, STACK
        ARGFRAME XSTACK, 9, STACK
        ARGFRAME IOVERLAY, 0, STATIC
        ARGFRAME DOVERLAY, 0, STATIC
        MOV     A,#-0x9
        LCALL   ?BANKED_ENTER_XDATA
        CFI DPH0 load(1, XDATA, add(CFA_XSP16, literal(-1)))
        CFI DPL0 load(1, XDATA, add(CFA_XSP16, literal(-2)))
        CFI ?BRET_EXT load(1, XDATA, add(CFA_XSP16, literal(-3)))
        CFI ?RET_HIGH load(1, XDATA, add(CFA_XSP16, literal(-4)))
        CFI ?RET_LOW load(1, XDATA, add(CFA_XSP16, literal(-5)))
        CFI R7 load(1, XDATA, add(CFA_XSP16, literal(-6)))
        CFI V0 load(1, XDATA, add(CFA_XSP16, literal(-7)))
        CFI VB load(1, XDATA, add(CFA_XSP16, literal(-8)))
        CFI R6 load(1, XDATA, add(CFA_XSP16, literal(-9)))
        CFI CFA_SP SP+0
        CFI CFA_XSP16 add(XSP16, 9)
        ; Saved register size: 9
        ; Auto size: 0
//  673   uint8 n = 0;
//  674 
//  675   SET_GCRAM_CHAR(0);
        ; Setup parameters for call to function HalLcd_HW_Control
        MOV     R1,#-0x40
        LCALL   ??HalLcd_HW_Control?relay
//  676   for (n = 0; n < (8 * 8); n++)
        MOV     R6,#0x40
//  677   {
//  678     HalLcd_HW_Write(0x00);
??HalLcd_HW_ClearAllSpecChars_0:
        ; Setup parameters for call to function HalLcd_HW_Write
        MOV     R1,#0x0
        LCALL   ??HalLcd_HW_Write?relay
//  679   }
        DEC     R6
        MOV     A,R6
        JNZ     ??HalLcd_HW_ClearAllSpecChars_0
//  680 }
        SJMP    ?Subroutine2
        CFI EndBlock cfiBlock57
//  681 
//  682 /**************************************************************************************************
//  683  * @fn      HalLcd_HW_WriteChar
//  684  *
//  685  * @brief   Write one char to the display
//  686  *
//  687  * @param   uint8 line - line number that the char will be displayed
//  688  *          uint8 col - colum where the char will be displayed
//  689  *
//  690  * @return  None
//  691  **************************************************************************************************/

        RSEG BANKED_CODE:CODE:NOROOT(0)
//  692 void HalLcd_HW_WriteChar(uint8 line, uint8 col, char text)
HalLcd_HW_WriteChar:
        CFI Block cfiBlock58 Using cfiCommon0
        CFI Function HalLcd_HW_WriteChar
        CODE
//  693 {
        FUNCALL HalLcd_HW_WriteChar, HalLcd_HW_Control
        LOCFRAME ISTACK, 0, STACK
        LOCFRAME PSTACK, 0, STACK
        LOCFRAME XSTACK, 9, STACK
        LOCFRAME IOVERLAY, 0, STATIC
        LOCFRAME DOVERLAY, 0, STATIC
        ARGFRAME ISTACK, 0, STACK
        ARGFRAME PSTACK, 0, STACK
        ARGFRAME XSTACK, 9, STACK
        ARGFRAME IOVERLAY, 0, STATIC
        ARGFRAME DOVERLAY, 0, STATIC
        FUNCALL HalLcd_HW_WriteChar, HalLcd_HW_Write
        LOCFRAME ISTACK, 0, STACK
        LOCFRAME PSTACK, 0, STACK
        LOCFRAME XSTACK, 9, STACK
        LOCFRAME IOVERLAY, 0, STATIC
        LOCFRAME DOVERLAY, 0, STATIC
        ARGFRAME ISTACK, 0, STACK
        ARGFRAME PSTACK, 0, STACK
        ARGFRAME XSTACK, 9, STACK
        ARGFRAME IOVERLAY, 0, STATIC
        ARGFRAME DOVERLAY, 0, STATIC
        MOV     A,#-0x9
        LCALL   ?BANKED_ENTER_XDATA
        CFI DPH0 load(1, XDATA, add(CFA_XSP16, literal(-1)))
        CFI DPL0 load(1, XDATA, add(CFA_XSP16, literal(-2)))
        CFI ?BRET_EXT load(1, XDATA, add(CFA_XSP16, literal(-3)))
        CFI ?RET_HIGH load(1, XDATA, add(CFA_XSP16, literal(-4)))
        CFI ?RET_LOW load(1, XDATA, add(CFA_XSP16, literal(-5)))
        CFI R7 load(1, XDATA, add(CFA_XSP16, literal(-6)))
        CFI V0 load(1, XDATA, add(CFA_XSP16, literal(-7)))
        CFI VB load(1, XDATA, add(CFA_XSP16, literal(-8)))
        CFI R6 load(1, XDATA, add(CFA_XSP16, literal(-9)))
        CFI CFA_SP SP+0
        CFI CFA_XSP16 add(XSP16, 9)
        ; Saved register size: 9
        ; Auto size: 0
        MOV     A,R1
        MOV     R7,A
        MOV     ?V0 + 0,R2
        MOV     A,R3
        MOV     R6,A
//  694   if (col < LCD_MAX_LINE_LENGTH)
        MOV     A,R2
        CLR     C
        SUBB    A,#0x10
        JNC     ??CrossCallReturnLabel_4
//  695   {
//  696     SET_DDRAM_ADDR((line - 1) * LCD_MAX_LINE_LENGTH + col);
        ; Setup parameters for call to function HalLcd_HW_Control
        MOV     A,#-0x1
        ADD     A,R7
        SWAP    A
        ANL     A,#0xf0
        ADD     A,?V0 + 0
        ORL     A,#0x80
        MOV     R1,A
        LCALL   ?Subroutine7 & 0xFFFF
//  697     HalLcd_HW_Write(text);
//  698   }
//  699   else
//  700   {
//  701     return;
//  702   }
//  703 }
??CrossCallReturnLabel_4:
        SJMP    ?Subroutine2
        CFI EndBlock cfiBlock58

        RSEG BANKED_CODE:CODE:NOROOT(0)
?Subroutine7:
        CFI Block cfiCond59 Using cfiCommon0
        CFI NoFunction
        CFI Conditional ??CrossCallReturnLabel_3
        CFI R6 load(1, XDATA, add(CFA_XSP16, literal(-9)))
        CFI VB load(1, XDATA, add(CFA_XSP16, literal(-8)))
        CFI V0 load(1, XDATA, add(CFA_XSP16, literal(-7)))
        CFI R7 load(1, XDATA, add(CFA_XSP16, literal(-6)))
        CFI ?RET_LOW load(1, XDATA, add(CFA_XSP16, literal(-5)))
        CFI ?RET_HIGH load(1, XDATA, add(CFA_XSP16, literal(-4)))
        CFI ?BRET_EXT load(1, XDATA, add(CFA_XSP16, literal(-3)))
        CFI DPL0 load(1, XDATA, add(CFA_XSP16, literal(-2)))
        CFI DPH0 load(1, XDATA, add(CFA_XSP16, literal(-1)))
        CFI CFA_SP SP+0
        CFI CFA_XSP16 add(XSP16, 9)
        CFI Block cfiCond60 Using cfiCommon0
        CFI (cfiCond60) NoFunction
        CFI (cfiCond60) Conditional ??CrossCallReturnLabel_4
        CFI (cfiCond60) R6 load(1, XDATA, add(CFA_XSP16, literal(-9)))
        CFI (cfiCond60) VB load(1, XDATA, add(CFA_XSP16, literal(-8)))
        CFI (cfiCond60) V0 load(1, XDATA, add(CFA_XSP16, literal(-7)))
        CFI (cfiCond60) R7 load(1, XDATA, add(CFA_XSP16, literal(-6)))
        CFI (cfiCond60) ?RET_LOW load(1, XDATA, add(CFA_XSP16, literal(-5)))
        CFI (cfiCond60) ?RET_HIGH load(1, XDATA, add(CFA_XSP16, literal(-4)))
        CFI (cfiCond60) ?BRET_EXT load(1, XDATA, add(CFA_XSP16, literal(-3)))
        CFI (cfiCond60) DPL0 load(1, XDATA, add(CFA_XSP16, literal(-2)))
        CFI (cfiCond60) DPH0 load(1, XDATA, add(CFA_XSP16, literal(-1)))
        CFI (cfiCond60) CFA_SP SP+0
        CFI (cfiCond60) CFA_XSP16 add(XSP16, 9)
        CFI Block cfiPicker61 Using cfiCommon1
        CFI (cfiPicker61) NoFunction
        CFI (cfiPicker61) Picker
        LCALL   ??HalLcd_HW_Control?relay
        ; Setup parameters for call to function HalLcd_HW_Write
        ; Setup parameters for call to function HalLcd_HW_Write
        MOV     A,R6
        MOV     R1,A
        LCALL   ??HalLcd_HW_Write?relay
        RET
        CFI EndBlock cfiCond59
        CFI EndBlock cfiCond60
        CFI EndBlock cfiPicker61
//  704 
//  705 /**************************************************************************************************
//  706  * @fn          halLcdWriteLine
//  707  *
//  708  * @brief       Write one line on display
//  709  *
//  710  * @param       uint8 line - display line
//  711  *              char *pText - text buffer to write
//  712  *
//  713  * @return      none
//  714  **************************************************************************************************/

        RSEG BANKED_CODE:CODE:NOROOT(0)
//  715 void HalLcd_HW_WriteLine(uint8 line, const char *pText)
HalLcd_HW_WriteLine:
        CFI Block cfiBlock62 Using cfiCommon0
        CFI Function HalLcd_HW_WriteLine
        CODE
//  716 {
        FUNCALL HalLcd_HW_WriteLine, osal_strlen
        LOCFRAME ISTACK, 0, STACK
        LOCFRAME PSTACK, 0, STACK
        LOCFRAME XSTACK, 11, STACK
        LOCFRAME IOVERLAY, 0, STATIC
        LOCFRAME DOVERLAY, 0, STATIC
        ARGFRAME ISTACK, 0, STACK
        ARGFRAME PSTACK, 0, STACK
        ARGFRAME XSTACK, 11, STACK
        ARGFRAME IOVERLAY, 0, STATIC
        ARGFRAME DOVERLAY, 0, STATIC
        FUNCALL HalLcd_HW_WriteLine, HalLcd_HW_WriteChar
        LOCFRAME ISTACK, 0, STACK
        LOCFRAME PSTACK, 0, STACK
        LOCFRAME XSTACK, 11, STACK
        LOCFRAME IOVERLAY, 0, STATIC
        LOCFRAME DOVERLAY, 0, STATIC
        ARGFRAME ISTACK, 0, STACK
        ARGFRAME PSTACK, 0, STACK
        ARGFRAME XSTACK, 11, STACK
        ARGFRAME IOVERLAY, 0, STATIC
        ARGFRAME DOVERLAY, 0, STATIC
        FUNCALL HalLcd_HW_WriteLine, HalLcd_HW_WriteChar
        LOCFRAME ISTACK, 0, STACK
        LOCFRAME PSTACK, 0, STACK
        LOCFRAME XSTACK, 11, STACK
        LOCFRAME IOVERLAY, 0, STATIC
        LOCFRAME DOVERLAY, 0, STATIC
        ARGFRAME ISTACK, 0, STACK
        ARGFRAME PSTACK, 0, STACK
        ARGFRAME XSTACK, 11, STACK
        ARGFRAME IOVERLAY, 0, STATIC
        ARGFRAME DOVERLAY, 0, STATIC
        MOV     A,#-0xb
        LCALL   ?BANKED_ENTER_XDATA
        CFI DPH0 load(1, XDATA, add(CFA_XSP16, literal(-1)))
        CFI DPL0 load(1, XDATA, add(CFA_XSP16, literal(-2)))
        CFI ?BRET_EXT load(1, XDATA, add(CFA_XSP16, literal(-3)))
        CFI ?RET_HIGH load(1, XDATA, add(CFA_XSP16, literal(-4)))
        CFI ?RET_LOW load(1, XDATA, add(CFA_XSP16, literal(-5)))
        CFI R7 load(1, XDATA, add(CFA_XSP16, literal(-6)))
        CFI V2 load(1, XDATA, add(CFA_XSP16, literal(-7)))
        CFI V1 load(1, XDATA, add(CFA_XSP16, literal(-8)))
        CFI V0 load(1, XDATA, add(CFA_XSP16, literal(-9)))
        CFI VB load(1, XDATA, add(CFA_XSP16, literal(-10)))
        CFI R6 load(1, XDATA, add(CFA_XSP16, literal(-11)))
        CFI CFA_SP SP+0
        CFI CFA_XSP16 add(XSP16, 11)
        ; Saved register size: 11
        ; Auto size: 0
        MOV     ?V0 + 1,R1
        MOV     A,R2
        MOV     R6,A
        MOV     A,R3
        MOV     R7,A
//  717   uint8 count;
//  718   uint8 totalLength = (uint8)osal_strlen( (char *)pText );
        ; Setup parameters for call to function osal_strlen
        LCALL   ?Subroutine6 & 0xFFFF
//  719 
//  720   /* Write the content first */
//  721   for (count=0; count<totalLength; count++)
??CrossCallReturnLabel_2:
        MOV     ?V0 + 0,#0x0
        SJMP    ??HalLcd_HW_WriteLine_0
//  722   {
//  723     HalLcd_HW_WriteChar(line, count, (*(pText++)));
??HalLcd_HW_WriteLine_1:
        ; Setup parameters for call to function HalLcd_HW_WriteChar
        MOV     DPL,R6
        MOV     DPH,R7
        MOVX    A,@DPTR
        MOV     R3,A
        MOV     R2,?V0 + 0
        MOV     R1,?V0 + 1
        LCALL   ??HalLcd_HW_WriteChar?relay
        MOV     DPL,R6
        MOV     DPH,R7
        INC     DPTR
        MOV     R6,DPL
        MOV     R7,DPH
//  724   }
        INC     ?V0 + 0
??HalLcd_HW_WriteLine_0:
        MOV     A,?V0 + 0
        CLR     C
        SUBB    A,?V0 + 2
        JC      ??HalLcd_HW_WriteLine_1
//  725 
//  726   /* Write blank spaces to rest of the line */
//  727   for(count=totalLength; count<LCD_MAX_LINE_LENGTH;count++)
        MOV     ?V0 + 0,?V0 + 2
        SJMP    ??HalLcd_HW_WriteLine_2
//  728   {
//  729     HalLcd_HW_WriteChar(line, count, ' ');
??HalLcd_HW_WriteLine_3:
        ; Setup parameters for call to function HalLcd_HW_WriteChar
        MOV     R3,#0x20
        MOV     R2,?V0 + 0
        MOV     R1,?V0 + 1
        LCALL   ??HalLcd_HW_WriteChar?relay
//  730   }
        INC     ?V0 + 0
??HalLcd_HW_WriteLine_2:
        MOV     A,?V0 + 0
        CLR     C
        SUBB    A,#0x10
        JC      ??HalLcd_HW_WriteLine_3
//  731 }
        MOV     R7,#0x3
        LJMP    ?BANKED_LEAVE_XDATA
        CFI EndBlock cfiBlock62
//  732 
//  733 /**************************************************************************************************
//  734  * @fn      HalLcd_HW_WaitUs
//  735  *
//  736  * @brief   wait for x us. @ 32MHz MCU clock it takes 32 "nop"s for 1 us delay.
//  737  *
//  738  * @param   x us. range[0-65536]
//  739  *
//  740  * @return  None
//  741  **************************************************************************************************/

        RSEG BANKED_CODE:CODE:NOROOT(0)
//  742 void HalLcd_HW_WaitUs(uint16 microSecs)
HalLcd_HW_WaitUs:
        CFI Block cfiBlock63 Using cfiCommon0
        CFI Function HalLcd_HW_WaitUs
        CODE
//  743 {
        ; Saved register size: 0
        ; Auto size: 0
        SJMP    ??HalLcd_HW_WaitUs_0
//  744   while(microSecs--)
//  745   {
//  746     /* 32 NOPs == 1 usecs */
//  747     asm("nop"); asm("nop"); asm("nop"); asm("nop"); asm("nop");
??HalLcd_HW_WaitUs_1:
        nop
        nop
        nop
        nop
        nop
//  748     asm("nop"); asm("nop"); asm("nop"); asm("nop"); asm("nop");
        nop
        nop
        nop
        nop
        nop
//  749     asm("nop"); asm("nop"); asm("nop"); asm("nop"); asm("nop");
        nop
        nop
        nop
        nop
        nop
//  750     asm("nop"); asm("nop"); asm("nop"); asm("nop"); asm("nop");
        nop
        nop
        nop
        nop
        nop
//  751     asm("nop"); asm("nop"); asm("nop"); asm("nop"); asm("nop");
        nop
        nop
        nop
        nop
        nop
//  752     asm("nop"); asm("nop"); asm("nop"); asm("nop"); asm("nop");
        nop
        nop
        nop
        nop
        nop
//  753     asm("nop"); asm("nop");
        nop
        nop
//  754   }
??HalLcd_HW_WaitUs_0:
        MOV     A,R2
        MOV     R0,A
        MOV     A,R3
        MOV     R1,A
        MOV     A,R0
        ADD     A,#-0x1
        DEC     R2
        MOV     A,R1
        ADDC    A,#-0x1
        MOV     R3,A
        MOV     A,R0
        ORL     A,R1
        JNZ     ??HalLcd_HW_WaitUs_1
//  755 }
        LJMP    ?BRET
        CFI EndBlock cfiBlock63

        RSEG BANK_RELAYS:CODE:REORDER:NOROOT(0)
??HalLcdInit?relay:
        LCALL   ?BDISPATCH
        DATA
        DC24    HalLcdInit

        RSEG BANK_RELAYS:CODE:REORDER:NOROOT(0)
??HalLcdWriteString?relay:
        LCALL   ?BDISPATCH
        DATA
        DC24    HalLcdWriteString

        RSEG BANK_RELAYS:CODE:REORDER:NOROOT(0)
??HalLcdWriteValue?relay:
        LCALL   ?BDISPATCH
        DATA
        DC24    HalLcdWriteValue

        RSEG BANK_RELAYS:CODE:REORDER:NOROOT(0)
??HalLcdWriteScreen?relay:
        LCALL   ?BDISPATCH
        DATA
        DC24    HalLcdWriteScreen

        RSEG BANK_RELAYS:CODE:REORDER:NOROOT(0)
??HalLcdWriteStringValue?relay:
        LCALL   ?BDISPATCH
        DATA
        DC24    HalLcdWriteStringValue

        RSEG BANK_RELAYS:CODE:REORDER:NOROOT(0)
??HalLcdWriteStringValueValue?relay:
        LCALL   ?BDISPATCH
        DATA
        DC24    HalLcdWriteStringValueValue

        RSEG BANK_RELAYS:CODE:REORDER:NOROOT(0)
??HalLcdDisplayPercentBar?relay:
        LCALL   ?BDISPATCH
        DATA
        DC24    HalLcdDisplayPercentBar

        RSEG BANK_RELAYS:CODE:REORDER:NOROOT(0)
??HalLcd_HW_Init?relay:
        LCALL   ?BDISPATCH
        DATA
        DC24    HalLcd_HW_Init

        RSEG BANK_RELAYS:CODE:REORDER:NOROOT(0)
??HalLcd_HW_Control?relay:
        LCALL   ?BDISPATCH
        DATA
        DC24    HalLcd_HW_Control

        RSEG BANK_RELAYS:CODE:REORDER:NOROOT(0)
??HalLcd_HW_Write?relay:
        LCALL   ?BDISPATCH
        DATA
        DC24    HalLcd_HW_Write

        RSEG BANK_RELAYS:CODE:REORDER:NOROOT(0)
??HalLcd_HW_SetContrast?relay:
        LCALL   ?BDISPATCH
        DATA
        DC24    HalLcd_HW_SetContrast

        RSEG BANK_RELAYS:CODE:REORDER:NOROOT(0)
??HalLcd_HW_Clear?relay:
        LCALL   ?BDISPATCH
        DATA
        DC24    HalLcd_HW_Clear

        RSEG BANK_RELAYS:CODE:REORDER:NOROOT(0)
??HalLcd_HW_ClearAllSpecChars?relay:
        LCALL   ?BDISPATCH
        DATA
        DC24    HalLcd_HW_ClearAllSpecChars

        RSEG BANK_RELAYS:CODE:REORDER:NOROOT(0)
??HalLcd_HW_WriteChar?relay:
        LCALL   ?BDISPATCH
        DATA
        DC24    HalLcd_HW_WriteChar

        RSEG BANK_RELAYS:CODE:REORDER:NOROOT(0)
??HalLcd_HW_WriteLine?relay:
        LCALL   ?BDISPATCH
        DATA
        DC24    HalLcd_HW_WriteLine

        RSEG BANK_RELAYS:CODE:REORDER:NOROOT(0)
??HalLcd_HW_WaitUs?relay:
        LCALL   ?BDISPATCH
        DATA
        DC24    HalLcd_HW_WaitUs

        RSEG XDATA_ROM_C:CONST:REORDER:NOROOT(0)
        DATA8
`?<Constant "TexasInstruments">`:
        DB "TexasInstruments"

        RSEG XDATA_ROM_C:CONST:REORDER:NOROOT(0)
        DATA8
`?<Constant "[          ]  ">`:
        DB "[          ]  "

        END
//  756 #endif
//  757 
//  758 
//  759 /**************************************************************************************************
//  760 **************************************************************************************************/
//  761 
//  762 
//  763 
// 
// 1 374 bytes in segment BANKED_CODE
//    96 bytes in segment BANK_RELAYS
//    12 bytes in segment SFR_AN
//    32 bytes in segment XDATA_ROM_C
//     2 bytes in segment XDATA_Z
// 
// 1 470 bytes of CODE  memory
//    32 bytes of CONST memory
//     0 bytes of DATA  memory (+ 12 bytes shared)
//     2 bytes of XDATA memory
//
//Errors: none
//Warnings: none
