///////////////////////////////////////////////////////////////////////////////
//                                                                            /
// IAR C/C++ Compiler V8.10.1.10194/W32 for 8051        28/Dec/2020  22:12:44 /
// Copyright 2004-2011 IAR Systems AB.                                        /
//                                                                            /
//    Core               =  plain                                             /
//    Code model         =  banked                                            /
//    Data model         =  large                                             /
//    Calling convention =  xdata reentrant                                   /
//    Constant location  =  data_rom                                          /
//    Dptr setup         =  1,16                                              /
//    Source file        =  D:\developer_tool_install\IAR\ZStack-CC2530-2.5.1 /
//                          a\Components\stack\sapi\sapi.c                    /
//    Command line       =  -f D:\developer_tool_install\IAR\ZStack-CC2530-2. /
//                          5.1a\Projects\zstack\Samples\SmartHome\CC2530DB\. /
//                          .\..\..\Tools\CC2530DB\f8wEndev.cfg (-DCPU32MHZ   /
//                          -DROOT=__near_func -DMAC_CFG_TX_DATA_MAX=3        /
//                          -DMAC_CFG_TX_MAX=6 -DMAC_CFG_RX_MAX=3) -f         /
//                          D:\developer_tool_install\IAR\ZStack-CC2530-2.5.1 /
//                          a\Projects\zstack\Samples\SmartHome\CC2530DB\..\. /
//                          .\..\Tools\CC2530DB\f8wConfig.cfg (-DZIGBEEPRO    /
//                          -DSECURE=0 -DZG_SECURE_DYNAMIC=0 -DREFLECTOR      /
//                          -DDEFAULT_CHANLIST=0x00010000                     /
//                          -DZDAPP_CONFIG_PAN_ID=0xFFAA                      /
//                          -DNWK_START_DELAY=100 -DEXTENDED_JOINING_RANDOM_M /
//                          ASK=0x007F -DBEACON_REQUEST_DELAY=100             /
//                          -DBEACON_REQ_DELAY_MASK=0x00FF                    /
//                          -DLINK_STATUS_JITTER_MASK=0x007F                  /
//                          -DROUTE_EXPIRY_TIME=30 -DAPSC_ACK_WAIT_DURATION_P /
//                          OLLED=3000 -DNWK_INDIRECT_MSG_TIMEOUT=7           /
//                          -DMAX_RREQ_ENTRIES=8 -DAPSC_MAX_FRAME_RETRIES=3   /
//                          -DNWK_MAX_DATA_RETRIES=2                          /
//                          -DMAX_POLL_FAILURE_RETRIES=2 -DMAX_BCAST=9        /
//                          -DAPS_MAX_GROUPS=16 -DMAX_RTG_ENTRIES=40          /
//                          -DNWK_MAX_BINDING_ENTRIES=4                       /
//                          -DMAX_BINDING_CLUSTER_IDS=4                       /
//                          "-DDEFAULT_KEY={0x01, 0x03, 0x05, 0x07, 0x09,     /
//                          0x0B, 0x0D, 0x0F, 0x00, 0x02, 0x04, 0x06, 0x08,   /
//                          0x0A, 0x0C, 0x0D}" -DMAC_MAX_FRAME_SIZE=116       /
//                          -DZDNWKMGR_MIN_TRANSMISSIONS=20 "-DCONST=const    /
//                          __code" -DGENERIC=__generic                       /
//                          -DRFD_RCVC_ALWAYS_ON=FALSE -DPOLL_RATE=1000       /
//                          -DQUEUED_POLL_RATE=100 -DRESPONSE_POLL_RATE=100)  /
//                          -DREJOIN_POLL_RATE=440 D:\developer_tool_install\ /
//                          IAR\ZStack-CC2530-2.5.1a\Components\stack\sapi\sa /
//                          pi.c -D xNWK_AUTO_POLL -D ZTOOL_P1 -D             /
//                          xRFD_RCVC_ALWAYS_ON=TRUE -D xMT_TASK -D           /
//                          xMT_SYS_FUNC -D xMT_ZDO_FUNC -D                   /
//                          xLCD_SUPPORTED=DEBUG -D xPOWER_SAVING -lC         /
//                          D:\developer_tool_install\IAR\ZStack-CC2530-2.5.1 /
//                          a\Projects\zstack\Samples\SmartHome\CC2530DB\LedD /
//                          evice\List\ -lA D:\developer_tool_install\IAR\ZSt /
//                          ack-CC2530-2.5.1a\Projects\zstack\Samples\SmartHo /
//                          me\CC2530DB\LedDevice\List\ --diag_suppress       /
//                          Pe001,Pa010 -o D:\developer_tool_install\IAR\ZSta /
//                          ck-CC2530-2.5.1a\Projects\zstack\Samples\SmartHom /
//                          e\CC2530DB\LedDevice\Obj\ -e --no_code_motion     /
//                          --debug --core=plain --dptr=16,1                  /
//                          --data_model=large --code_model=banked            /
//                          --calling_convention=xdata_reentrant              /
//                          --place_constants=data_rom --nr_virtual_regs 16   /
//                          -I D:\developer_tool_install\IAR\ZStack-CC2530-2. /
//                          5.1a\Projects\zstack\Samples\SmartHome\CC2530DB\  /
//                          -I D:\developer_tool_install\IAR\ZStack-CC2530-2. /
//                          5.1a\Projects\zstack\Samples\SmartHome\CC2530DB\. /
//                          .\Source\ -I D:\developer_tool_install\IAR\ZStack /
//                          -CC2530-2.5.1a\Projects\zstack\Samples\SmartHome\ /
//                          CC2530DB\..\..\..\ZMain\TI2530DB\ -I              /
//                          D:\developer_tool_install\IAR\ZStack-CC2530-2.5.1 /
//                          a\Projects\zstack\Samples\SmartHome\CC2530DB\..\. /
//                          .\..\..\..\Components\hal\include\ -I             /
//                          D:\developer_tool_install\IAR\ZStack-CC2530-2.5.1 /
//                          a\Projects\zstack\Samples\SmartHome\CC2530DB\..\. /
//                          .\..\..\..\Components\hal\target\CC2530EB\ -I     /
//                          D:\developer_tool_install\IAR\ZStack-CC2530-2.5.1 /
//                          a\Projects\zstack\Samples\SmartHome\CC2530DB\..\. /
//                          .\..\..\..\Components\mac\include\ -I             /
//                          D:\developer_tool_install\IAR\ZStack-CC2530-2.5.1 /
//                          a\Projects\zstack\Samples\SmartHome\CC2530DB\..\. /
//                          .\..\..\..\Components\mac\high_level\ -I          /
//                          D:\developer_tool_install\IAR\ZStack-CC2530-2.5.1 /
//                          a\Projects\zstack\Samples\SmartHome\CC2530DB\..\. /
//                          .\..\..\..\Components\mac\low_level\srf04\ -I     /
//                          D:\developer_tool_install\IAR\ZStack-CC2530-2.5.1 /
//                          a\Projects\zstack\Samples\SmartHome\CC2530DB\..\. /
//                          .\..\..\..\Components\mac\low_level\srf04\single_ /
//                          chip\ -I D:\developer_tool_install\IAR\ZStack-CC2 /
//                          530-2.5.1a\Projects\zstack\Samples\SmartHome\CC25 /
//                          30DB\..\..\..\..\..\Components\mt\ -I             /
//                          D:\developer_tool_install\IAR\ZStack-CC2530-2.5.1 /
//                          a\Projects\zstack\Samples\SmartHome\CC2530DB\..\. /
//                          .\..\..\..\Components\osal\include\ -I            /
//                          D:\developer_tool_install\IAR\ZStack-CC2530-2.5.1 /
//                          a\Projects\zstack\Samples\SmartHome\CC2530DB\..\. /
//                          .\..\..\..\Components\services\saddr\ -I          /
//                          D:\developer_tool_install\IAR\ZStack-CC2530-2.5.1 /
//                          a\Projects\zstack\Samples\SmartHome\CC2530DB\..\. /
//                          .\..\..\..\Components\services\sdata\ -I          /
//                          D:\developer_tool_install\IAR\ZStack-CC2530-2.5.1 /
//                          a\Projects\zstack\Samples\SmartHome\CC2530DB\..\. /
//                          .\..\..\..\Components\stack\af\ -I                /
//                          D:\developer_tool_install\IAR\ZStack-CC2530-2.5.1 /
//                          a\Projects\zstack\Samples\SmartHome\CC2530DB\..\. /
//                          .\..\..\..\Components\stack\nwk\ -I               /
//                          D:\developer_tool_install\IAR\ZStack-CC2530-2.5.1 /
//                          a\Projects\zstack\Samples\SmartHome\CC2530DB\..\. /
//                          .\..\..\..\Components\stack\sapi\ -I              /
//                          D:\developer_tool_install\IAR\ZStack-CC2530-2.5.1 /
//                          a\Projects\zstack\Samples\SmartHome\CC2530DB\..\. /
//                          .\..\..\..\Components\stack\sec\ -I               /
//                          D:\developer_tool_install\IAR\ZStack-CC2530-2.5.1 /
//                          a\Projects\zstack\Samples\SmartHome\CC2530DB\..\. /
//                          .\..\..\..\Components\stack\sys\ -I               /
//                          D:\developer_tool_install\IAR\ZStack-CC2530-2.5.1 /
//                          a\Projects\zstack\Samples\SmartHome\CC2530DB\..\. /
//                          .\..\..\..\Components\stack\zdo\ -I               /
//                          D:\developer_tool_install\IAR\ZStack-CC2530-2.5.1 /
//                          a\Projects\zstack\Samples\SmartHome\CC2530DB\..\. /
//                          .\..\..\..\Components\zmac\ -I                    /
//                          D:\developer_tool_install\IAR\ZStack-CC2530-2.5.1 /
//                          a\Projects\zstack\Samples\SmartHome\CC2530DB\..\. /
//                          .\..\..\..\Components\zmac\f8w\ -Ohz              /
//                          --require_prototypes                              /
//    List file          =  D:\developer_tool_install\IAR\ZStack-CC2530-2.5.1 /
//                          a\Projects\zstack\Samples\SmartHome\CC2530DB\LedD /
//                          evice\List\sapi.s51                               /
//                                                                            /
//                                                                            /
///////////////////////////////////////////////////////////////////////////////

        NAME sapi

        RTMODEL "__SystemLibrary", "CLib"
        RTMODEL "__calling_convention", "xdata_reentrant"
        RTMODEL "__code_model", "banked"
        RTMODEL "__core", "plain"
        RTMODEL "__data_model", "large"
        RTMODEL "__dptr_size", "16"
        RTMODEL "__extended_stack", "disabled"
        RTMODEL "__location_for_constants", "data"
        RTMODEL "__number_of_dptrs", "1"
        RTMODEL "__rt_version", "1"

        RSEG DOVERLAY:DATA:NOROOT(0)
        RSEG IOVERLAY:IDATA:NOROOT(0)
        RSEG ISTACK:IDATA:NOROOT(0)
        RSEG PSTACK:XDATA:NOROOT(0)
        RSEG XSTACK:XDATA:NOROOT(0)

        EXTERN ?ALLOC_XSTACK8
        EXTERN ?BANKED_ENTER_XDATA
        EXTERN ?BANKED_LEAVE_XDATA
        EXTERN ?BDISPATCH
        EXTERN ?BRET
        EXTERN ?DEALLOC_XSTACK8
        EXTERN ?PUSH_XSTACK8_X_TWO
        EXTERN ?PUSH_XSTACK_I_ONE
        EXTERN ?PUSH_XSTACK_I_THREE
        EXTERN ?PUSH_XSTACK_I_TWO
        EXTERN ?US_SWITCH_SPARSE
        EXTERN ?V0
        EXTERN ?XSP
        EXTERN ?XSTACK_DISP0_8
        EXTERN __INIT_XDATA_Z

        PUBLIC ??SAPI_Init?relay
        FUNCTION ??SAPI_Init?relay,0203H
        PUBLIC ??SAPI_ProcessEvent?relay
        FUNCTION ??SAPI_ProcessEvent?relay,0203H
        PUBLIC ??SAPI_ProcessZDOMsgs?relay
        FUNCTION ??SAPI_ProcessZDOMsgs?relay,0203H
        FUNCTION ??SAPI_SendCback?relay,0203H
        PUBLIC ??osalInitTasks?relay
        FUNCTION ??osalInitTasks?relay,0203H
        PUBLIC ??zb_AllowBind?relay
        FUNCTION ??zb_AllowBind?relay,0203H
        PUBLIC ??zb_BindDevice?relay
        FUNCTION ??zb_BindDevice?relay,0203H
        PUBLIC ??zb_FindDeviceRequest?relay
        FUNCTION ??zb_FindDeviceRequest?relay,0203H
        PUBLIC ??zb_GetDeviceInfo?relay
        FUNCTION ??zb_GetDeviceInfo?relay,0203H
        PUBLIC ??zb_PermitJoiningRequest?relay
        FUNCTION ??zb_PermitJoiningRequest?relay,0203H
        PUBLIC ??zb_ReadConfiguration?relay
        FUNCTION ??zb_ReadConfiguration?relay,0203H
        PUBLIC ??zb_SendDataRequest?relay
        FUNCTION ??zb_SendDataRequest?relay,0203H
        PUBLIC ??zb_StartRequest?relay
        FUNCTION ??zb_StartRequest?relay,0203H
        PUBLIC ??zb_SystemReset?relay
        FUNCTION ??zb_SystemReset?relay,0203H
        PUBLIC ??zb_WriteConfiguration?relay
        FUNCTION ??zb_WriteConfiguration?relay,0203H
        PUBLIC SAPI_Init
        FUNCTION SAPI_Init,021203H
        ARGFRAME XSTACK, 0, STACK
        ARGFRAME IOVERLAY, 0, STATIC
        ARGFRAME DOVERLAY, 0, STATIC
        LOCFRAME XSTACK, 10, STACK
        PUBLIC SAPI_ProcessEvent
        FUNCTION SAPI_ProcessEvent,021603H
        ARGFRAME XSTACK, 0, STACK
        LOCFRAME XSTACK, 19, STACK
        PUBLIC SAPI_ProcessZDOMsgs
        FUNCTION SAPI_ProcessZDOMsgs,0a1203H
        ARGFRAME XSTACK, 15, STACK
        ARGFRAME IOVERLAY, 0, STATIC
        ARGFRAME DOVERLAY, 0, STATIC
        LOCFRAME XSTACK, 20, STACK
        FUNCTION SAPI_SendCback,021203H
        ARGFRAME XSTACK, 26, STACK
        ARGFRAME IOVERLAY, 0, STATIC
        ARGFRAME DOVERLAY, 0, STATIC
        LOCFRAME ISTACK, 1, STACK
        LOCFRAME XSTACK, 12, STACK
        PUBLIC osalInitTasks
        FUNCTION osalInitTasks,021203H
        ARGFRAME XSTACK, 0, STACK
        LOCFRAME ISTACK, 2, STACK
        PUBLIC sapi_TaskID
        PUBLIC sapi_epDesc
        PUBLIC tasksArr
        PUBLIC tasksCnt
        PUBLIC tasksEvents
        PUBLIC zb_AllowBind
        FUNCTION zb_AllowBind,021203H
        ARGFRAME XSTACK, 0, STACK
        LOCFRAME XSTACK, 9, STACK
        PUBLIC zb_BindDevice
        FUNCTION zb_BindDevice,021203H
        ARGFRAME XSTACK, 0, STACK
        LOCFRAME XSTACK, 31, STACK
        PUBLIC zb_FindDeviceRequest
        FUNCTION zb_FindDeviceRequest,021203H
        ARGFRAME XSTACK, 0, STACK
        LOCFRAME XSTACK, 9, STACK
        PUBLIC zb_GetDeviceInfo
        FUNCTION zb_GetDeviceInfo,021203H
        ARGFRAME XSTACK, 0, STACK
        LOCFRAME XSTACK, 14, STACK
        PUBLIC zb_PermitJoiningRequest
        FUNCTION zb_PermitJoiningRequest,0203H
        ARGFRAME XSTACK, 0, STACK
        PUBLIC zb_ReadConfiguration
        FUNCTION zb_ReadConfiguration,021203H
        ARGFRAME XSTACK, 15, STACK
        ARGFRAME IOVERLAY, 0, STATIC
        ARGFRAME DOVERLAY, 0, STATIC
        LOCFRAME XSTACK, 16, STACK
        PUBLIC zb_SendDataRequest
        FUNCTION zb_SendDataRequest,021203H
        ARGFRAME XSTACK, 5, STACK
        LOCFRAME ISTACK, 1, STACK
        LOCFRAME XSTACK, 35, STACK
        PUBLIC zb_StartRequest
        FUNCTION zb_StartRequest,021203H
        ARGFRAME XSTACK, 15, STACK
        ARGFRAME IOVERLAY, 0, STATIC
        ARGFRAME DOVERLAY, 0, STATIC
        LOCFRAME ISTACK, 2, STACK
        LOCFRAME XSTACK, 1, STACK
        PUBLIC zb_SystemReset
        FUNCTION zb_SystemReset,021203H
        ARGFRAME XSTACK, 0, STACK
        PUBLIC zb_WriteConfiguration
        FUNCTION zb_WriteConfiguration,021203H
        ARGFRAME XSTACK, 10, STACK
        ARGFRAME IOVERLAY, 0, STATIC
        ARGFRAME DOVERLAY, 0, STATIC
        LOCFRAME XSTACK, 14, STACK
        
        CFI Names cfiNames0
        CFI StackFrame CFA_SP SP IDATA
        CFI StackFrame CFA_PSP16 PSP16 XDATA
        CFI StackFrame CFA_XSP16 XSP16 XDATA
        CFI StaticOverlayFrame CFA_IOVERLAY IOVERLAY
        CFI StaticOverlayFrame CFA_DOVERLAY DOVERLAY
        CFI Resource `PSW.CY`:1, `B.BR0`:1, `B.BR1`:1, `B.BR2`:1, `B.BR3`:1
        CFI Resource `B.BR4`:1, `B.BR5`:1, `B.BR6`:1, `B.BR7`:1, `VB.BR8`:1
        CFI Resource `VB.BR9`:1, `VB.BR10`:1, `VB.BR11`:1, `VB.BR12`:1
        CFI Resource `VB.BR13`:1, `VB.BR14`:1, `VB.BR15`:1, VB:8, B:8, A:8
        CFI Resource PSW:8, DPL0:8, DPH0:8, R0:8, R1:8, R2:8, R3:8, R4:8, R5:8
        CFI Resource R6:8, R7:8, V0:8, V1:8, V2:8, V3:8, V4:8, V5:8, V6:8, V7:8
        CFI Resource V8:8, V9:8, V10:8, V11:8, V12:8, V13:8, V14:8, V15:8, SP:8
        CFI Resource PSPH:8, PSPL:8, PSP16:16, XSPH:8, XSPL:8, XSP16:16
        CFI VirtualResource ?RET:24
        CFI Resource ?BRET_EXT:8
        CFI VirtualResource ?RET_HIGH:8, ?RET_LOW:8
        CFI ResourceParts PSP16 PSPH, PSPL
        CFI ResourceParts XSP16 XSPH, XSPL
        CFI ResourceParts ?RET ?BRET_EXT, ?RET_HIGH, ?RET_LOW
        CFI EndNames cfiNames0
        
        CFI Common cfiCommon0 Using cfiNames0
        CFI CodeAlign 1
        CFI DataAlign -1
        CFI ReturnAddress ?RET CODE
        CFI CFA_DOVERLAY Used
        CFI CFA_IOVERLAY Used
        CFI CFA_SP SP+-3
        CFI CFA_PSP16 PSP16+0
        CFI CFA_XSP16 XSP16+0
        CFI `PSW.CY` SameValue
        CFI `B.BR0` SameValue
        CFI `B.BR1` SameValue
        CFI `B.BR2` SameValue
        CFI `B.BR3` SameValue
        CFI `B.BR4` SameValue
        CFI `B.BR5` SameValue
        CFI `B.BR6` SameValue
        CFI `B.BR7` SameValue
        CFI `VB.BR8` SameValue
        CFI `VB.BR9` SameValue
        CFI `VB.BR10` SameValue
        CFI `VB.BR11` SameValue
        CFI `VB.BR12` SameValue
        CFI `VB.BR13` SameValue
        CFI `VB.BR14` SameValue
        CFI `VB.BR15` SameValue
        CFI VB SameValue
        CFI B Undefined
        CFI A Undefined
        CFI PSW SameValue
        CFI DPL0 SameValue
        CFI DPH0 SameValue
        CFI R0 Undefined
        CFI R1 Undefined
        CFI R2 Undefined
        CFI R3 Undefined
        CFI R4 Undefined
        CFI R5 Undefined
        CFI R6 SameValue
        CFI R7 SameValue
        CFI V0 SameValue
        CFI V1 SameValue
        CFI V2 SameValue
        CFI V3 SameValue
        CFI V4 SameValue
        CFI V5 SameValue
        CFI V6 SameValue
        CFI V7 SameValue
        CFI V8 SameValue
        CFI V9 SameValue
        CFI V10 SameValue
        CFI V11 SameValue
        CFI V12 SameValue
        CFI V13 SameValue
        CFI V14 SameValue
        CFI V15 SameValue
        CFI PSPH Undefined
        CFI PSPL Undefined
        CFI XSPH Undefined
        CFI XSPL Undefined
        CFI ?RET Concat
        CFI ?BRET_EXT Frame(CFA_SP, 3)
        CFI ?RET_HIGH Frame(CFA_SP, 2)
        CFI ?RET_LOW Frame(CFA_SP, 1)
        CFI EndCommon cfiCommon0
        
        
        CFI Common cfiCommon1 Using cfiNames0
        CFI CodeAlign 1
        CFI DataAlign -1
        CFI ReturnAddress ?RET CODE
        CFI CFA_DOVERLAY Used
        CFI CFA_IOVERLAY Used
        CFI CFA_SP SP+-2
        CFI CFA_PSP16 PSP16+0
        CFI CFA_XSP16 XSP16+0
        CFI `PSW.CY` SameValue
        CFI `B.BR0` SameValue
        CFI `B.BR1` SameValue
        CFI `B.BR2` SameValue
        CFI `B.BR3` SameValue
        CFI `B.BR4` SameValue
        CFI `B.BR5` SameValue
        CFI `B.BR6` SameValue
        CFI `B.BR7` SameValue
        CFI `VB.BR8` SameValue
        CFI `VB.BR9` SameValue
        CFI `VB.BR10` SameValue
        CFI `VB.BR11` SameValue
        CFI `VB.BR12` SameValue
        CFI `VB.BR13` SameValue
        CFI `VB.BR14` SameValue
        CFI `VB.BR15` SameValue
        CFI VB SameValue
        CFI B SameValue
        CFI A SameValue
        CFI PSW SameValue
        CFI DPL0 SameValue
        CFI DPH0 SameValue
        CFI R0 SameValue
        CFI R1 SameValue
        CFI R2 SameValue
        CFI R3 SameValue
        CFI R4 SameValue
        CFI R5 SameValue
        CFI R6 SameValue
        CFI R7 SameValue
        CFI V0 SameValue
        CFI V1 SameValue
        CFI V2 SameValue
        CFI V3 SameValue
        CFI V4 SameValue
        CFI V5 SameValue
        CFI V6 SameValue
        CFI V7 SameValue
        CFI V8 SameValue
        CFI V9 SameValue
        CFI V10 SameValue
        CFI V11 SameValue
        CFI V12 SameValue
        CFI V13 SameValue
        CFI V14 SameValue
        CFI V15 SameValue
        CFI PSPH Undefined
        CFI PSPL Undefined
        CFI XSPH Undefined
        CFI XSPL Undefined
        CFI ?RET Concat
        CFI ?BRET_EXT SameValue
        CFI ?RET_HIGH Frame(CFA_SP, 2)
        CFI ?RET_LOW Frame(CFA_SP, 1)
        CFI EndCommon cfiCommon1
        
ZDOInitDevice       SYMBOL "ZDOInitDevice"
sAddrExtCpy         SYMBOL "sAddrExtCpy"
APSME_BindRequest   SYMBOL "APSME_BindRequest"
ZDP_NwkAddrReq      SYMBOL "ZDP_NwkAddrReq"
osal_start_timerEx  SYMBOL "osal_start_timerEx"
ZDO_AnyClusterMatches SYMBOL "ZDO_AnyClusterMatches"
ZDP_MatchDescReq    SYMBOL "ZDP_MatchDescReq"
bindRemoveEntry     SYMBOL "bindRemoveEntry"
bindFind            SYMBOL "bindFind"
osal_stop_timerEx   SYMBOL "osal_stop_timerEx"
afSetMatch          SYMBOL "afSetMatch"
NLME_IsAddressBroadcast SYMBOL "NLME_IsAddressBroadcast"
AF_DataRequest      SYMBOL "AF_DataRequest"
osal_nv_item_len    SYMBOL "osal_nv_item_len"
osal_nv_read        SYMBOL "osal_nv_read"
osal_nv_write       SYMBOL "osal_nv_write"
osal_memcpy         SYMBOL "osal_memcpy"
osal_msg_receive    SYMBOL "osal_msg_receive"
zb_StartConfirm     SYMBOL "zb_StartConfirm"
osal_msg_deallocate SYMBOL "osal_msg_deallocate"
zb_SendDataConfirm  SYMBOL "zb_SendDataConfirm"
zb_ReceiveDataIndication SYMBOL "zb_ReceiveDataIndication"
zb_AllowBindConfirm SYMBOL "zb_AllowBindConfirm"
zb_HandleKeys       SYMBOL "zb_HandleKeys"
zb_BindConfirm      SYMBOL "zb_BindConfirm"
zb_HandleOsalEvent  SYMBOL "zb_HandleOsalEvent"
HalLedSet           SYMBOL "HalLedSet"
HalLedBlink         SYMBOL "HalLedBlink"
ZDO_ParseAddrRsp    SYMBOL "ZDO_ParseAddrRsp"
zb_FindDeviceConfirm SYMBOL "zb_FindDeviceConfirm"
ZDO_ParseEPListRsp  SYMBOL "ZDO_ParseEPListRsp"
ZDP_IEEEAddrReq     SYMBOL "ZDP_IEEEAddrReq"
afRegister          SYMBOL "afRegister"
ZDO_RegisterForZDOMsg SYMBOL "ZDO_RegisterForZDOMsg"
RegisterForKeys     SYMBOL "RegisterForKeys"
HalKeyRead          SYMBOL "HalKeyRead"
osal_set_event      SYMBOL "osal_set_event"
osal_msg_allocate   SYMBOL "osal_msg_allocate"
osal_msg_send       SYMBOL "osal_msg_send"
osal_mem_alloc      SYMBOL "osal_mem_alloc"
osal_memset         SYMBOL "osal_memset"
macTaskInit         SYMBOL "macTaskInit"
nwk_init            SYMBOL "nwk_init"
Hal_Init            SYMBOL "Hal_Init"
APS_Init            SYMBOL "APS_Init"
ZDApp_Init          SYMBOL "ZDApp_Init"
??AF_DataRequest?relay SYMBOL "?relay", AF_DataRequest
??APSME_BindRequest?relay SYMBOL "?relay", APSME_BindRequest
??APS_Init?relay    SYMBOL "?relay", APS_Init
`?<Name APS_event_loop 50>` SYMBOL "APS_event_loop"
??APS_event_loop?relay SYMBOL "?relay", `?<Name APS_event_loop 50>`
??HalKeyRead?relay  SYMBOL "?relay", HalKeyRead
??HalLedBlink?relay SYMBOL "?relay", HalLedBlink
??HalLedSet?relay   SYMBOL "?relay", HalLedSet
??Hal_Init?relay    SYMBOL "?relay", Hal_Init
`?<Name Hal_ProcessEvent 56>` SYMBOL "Hal_ProcessEvent"
??Hal_ProcessEvent?relay SYMBOL "?relay", `?<Name Hal_ProcessEvent 56>`
??NLME_IsAddressBroadcast?relay SYMBOL "?relay", NLME_IsAddressBroadcast
??RegisterForKeys?relay SYMBOL "?relay", RegisterForKeys
??ZDApp_Init?relay  SYMBOL "?relay", ZDApp_Init
`?<Name ZDApp_event_loop 61>` SYMBOL "ZDApp_event_loop"
??ZDApp_event_loop?relay SYMBOL "?relay", `?<Name ZDApp_event_loop 61>`
??ZDOInitDevice?relay SYMBOL "?relay", ZDOInitDevice
??ZDO_AnyClusterMatches?relay SYMBOL "?relay", ZDO_AnyClusterMatches
??ZDO_ParseAddrRsp?relay SYMBOL "?relay", ZDO_ParseAddrRsp
??ZDO_ParseEPListRsp?relay SYMBOL "?relay", ZDO_ParseEPListRsp
??ZDO_RegisterForZDOMsg?relay SYMBOL "?relay", ZDO_RegisterForZDOMsg
??ZDP_IEEEAddrReq?relay SYMBOL "?relay", ZDP_IEEEAddrReq
??ZDP_MatchDescReq?relay SYMBOL "?relay", ZDP_MatchDescReq
??ZDP_NwkAddrReq?relay SYMBOL "?relay", ZDP_NwkAddrReq
??afRegister?relay  SYMBOL "?relay", afRegister
??afSetMatch?relay  SYMBOL "?relay", afSetMatch
??bindFind?relay    SYMBOL "?relay", bindFind
??bindRemoveEntry?relay SYMBOL "?relay", bindRemoveEntry
`?<Name macEventLoop 75>` SYMBOL "macEventLoop"
??macEventLoop?relay SYMBOL "?relay", `?<Name macEventLoop 75>`
??macTaskInit?relay SYMBOL "?relay", macTaskInit
`?<Name nwk_event_loop 78>` SYMBOL "nwk_event_loop"
??nwk_event_loop?relay SYMBOL "?relay", `?<Name nwk_event_loop 78>`
??nwk_init?relay    SYMBOL "?relay", nwk_init
??osal_mem_alloc?relay SYMBOL "?relay", osal_mem_alloc
??osal_memcpy?relay SYMBOL "?relay", osal_memcpy
??osal_memset?relay SYMBOL "?relay", osal_memset
??osal_msg_allocate?relay SYMBOL "?relay", osal_msg_allocate
??osal_msg_deallocate?relay SYMBOL "?relay", osal_msg_deallocate
??osal_msg_receive?relay SYMBOL "?relay", osal_msg_receive
??osal_msg_send?relay SYMBOL "?relay", osal_msg_send
??osal_nv_item_len?relay SYMBOL "?relay", osal_nv_item_len
??osal_nv_read?relay SYMBOL "?relay", osal_nv_read
??osal_nv_write?relay SYMBOL "?relay", osal_nv_write
??osal_set_event?relay SYMBOL "?relay", osal_set_event
??osal_start_timerEx?relay SYMBOL "?relay", osal_start_timerEx
??osal_stop_timerEx?relay SYMBOL "?relay", osal_stop_timerEx
??sAddrExtCpy?relay SYMBOL "?relay", sAddrExtCpy
??zb_AllowBindConfirm?relay SYMBOL "?relay", zb_AllowBindConfirm
??zb_BindConfirm?relay SYMBOL "?relay", zb_BindConfirm
??zb_FindDeviceConfirm?relay SYMBOL "?relay", zb_FindDeviceConfirm
??zb_HandleKeys?relay SYMBOL "?relay", zb_HandleKeys
??zb_HandleOsalEvent?relay SYMBOL "?relay", zb_HandleOsalEvent
??zb_ReceiveDataIndication?relay SYMBOL "?relay", zb_ReceiveDataIndication
??zb_SendDataConfirm?relay SYMBOL "?relay", zb_SendDataConfirm
??zb_StartConfirm?relay SYMBOL "?relay", zb_StartConfirm
SAPI_Init           SYMBOL "SAPI_Init"
??SAPI_Init?relay   SYMBOL "?relay", SAPI_Init
SAPI_ProcessEvent   SYMBOL "SAPI_ProcessEvent"
??SAPI_ProcessEvent?relay SYMBOL "?relay", SAPI_ProcessEvent
SAPI_ProcessZDOMsgs SYMBOL "SAPI_ProcessZDOMsgs"
??SAPI_ProcessZDOMsgs?relay SYMBOL "?relay", SAPI_ProcessZDOMsgs
osalInitTasks       SYMBOL "osalInitTasks"
??osalInitTasks?relay SYMBOL "?relay", osalInitTasks
zb_AllowBind        SYMBOL "zb_AllowBind"
??zb_AllowBind?relay SYMBOL "?relay", zb_AllowBind
zb_BindDevice       SYMBOL "zb_BindDevice"
??zb_BindDevice?relay SYMBOL "?relay", zb_BindDevice
zb_FindDeviceRequest SYMBOL "zb_FindDeviceRequest"
??zb_FindDeviceRequest?relay SYMBOL "?relay", zb_FindDeviceRequest
zb_GetDeviceInfo    SYMBOL "zb_GetDeviceInfo"
??zb_GetDeviceInfo?relay SYMBOL "?relay", zb_GetDeviceInfo
zb_PermitJoiningRequest SYMBOL "zb_PermitJoiningRequest"
??zb_PermitJoiningRequest?relay SYMBOL "?relay", zb_PermitJoiningRequest
zb_ReadConfiguration SYMBOL "zb_ReadConfiguration"
??zb_ReadConfiguration?relay SYMBOL "?relay", zb_ReadConfiguration
zb_SendDataRequest  SYMBOL "zb_SendDataRequest"
??zb_SendDataRequest?relay SYMBOL "?relay", zb_SendDataRequest
zb_StartRequest     SYMBOL "zb_StartRequest"
??zb_StartRequest?relay SYMBOL "?relay", zb_StartRequest
zb_SystemReset      SYMBOL "zb_SystemReset"
??zb_SystemReset?relay SYMBOL "?relay", zb_SystemReset
zb_WriteConfiguration SYMBOL "zb_WriteConfiguration"
??zb_WriteConfiguration?relay SYMBOL "?relay", zb_WriteConfiguration

        EXTERN Onboard_soft_reset
        FUNCTION Onboard_soft_reset,0202H
        ARGFRAME ISTACK, 0, STACK
        ARGFRAME PSTACK, 0, STACK
        ARGFRAME XSTACK, 10, STACK
        ARGFRAME IOVERLAY, 0, STATIC
        ARGFRAME DOVERLAY, 0, STATIC
        EXTERN ZDOInitDevice
        FUNCTION ZDOInitDevice,0202H
        ARGFRAME ISTACK, 2, STACK
        ARGFRAME PSTACK, 0, STACK
        ARGFRAME XSTACK, 1, STACK
        ARGFRAME IOVERLAY, 0, STATIC
        ARGFRAME DOVERLAY, 0, STATIC
        EXTERN sAddrExtCpy
        FUNCTION sAddrExtCpy,0202H
        ARGFRAME ISTACK, 0, STACK
        ARGFRAME PSTACK, 0, STACK
        ARGFRAME XSTACK, 23, STACK
        ARGFRAME IOVERLAY, 0, STATIC
        ARGFRAME DOVERLAY, 0, STATIC
        EXTERN APSME_BindRequest
        FUNCTION APSME_BindRequest,0202H
        ARGFRAME ISTACK, 0, STACK
        ARGFRAME PSTACK, 0, STACK
        ARGFRAME XSTACK, 24, STACK
        ARGFRAME IOVERLAY, 0, STATIC
        ARGFRAME DOVERLAY, 0, STATIC
        EXTERN ZDP_NwkAddrReq
        FUNCTION ZDP_NwkAddrReq,0202H
        ARGFRAME ISTACK, 0, STACK
        ARGFRAME PSTACK, 0, STACK
        ARGFRAME XSTACK, 23, STACK
        ARGFRAME IOVERLAY, 0, STATIC
        ARGFRAME DOVERLAY, 0, STATIC
        EXTERN osal_start_timerEx
        FUNCTION osal_start_timerEx,0202H
        ARGFRAME ISTACK, 0, STACK
        ARGFRAME PSTACK, 0, STACK
        ARGFRAME XSTACK, 23, STACK
        ARGFRAME IOVERLAY, 0, STATIC
        ARGFRAME DOVERLAY, 0, STATIC
        EXTERN ZDO_AnyClusterMatches
        FUNCTION ZDO_AnyClusterMatches,0202H
        ARGFRAME ISTACK, 0, STACK
        ARGFRAME PSTACK, 0, STACK
        ARGFRAME XSTACK, 25, STACK
        ARGFRAME IOVERLAY, 0, STATIC
        ARGFRAME DOVERLAY, 0, STATIC
        EXTERN ZDP_MatchDescReq
        FUNCTION ZDP_MatchDescReq,0202H
        ARGFRAME ISTACK, 0, STACK
        ARGFRAME PSTACK, 0, STACK
        ARGFRAME XSTACK, 31, STACK
        ARGFRAME IOVERLAY, 0, STATIC
        ARGFRAME DOVERLAY, 0, STATIC
        EXTERN bindRemoveEntry
        FUNCTION bindRemoveEntry,0202H
        ARGFRAME ISTACK, 0, STACK
        ARGFRAME PSTACK, 0, STACK
        ARGFRAME XSTACK, 23, STACK
        ARGFRAME IOVERLAY, 0, STATIC
        ARGFRAME DOVERLAY, 0, STATIC
        EXTERN bindFind
        FUNCTION bindFind,0202H
        ARGFRAME ISTACK, 0, STACK
        ARGFRAME PSTACK, 0, STACK
        ARGFRAME XSTACK, 23, STACK
        ARGFRAME IOVERLAY, 0, STATIC
        ARGFRAME DOVERLAY, 0, STATIC
        EXTERN osal_stop_timerEx
        FUNCTION osal_stop_timerEx,0202H
        ARGFRAME ISTACK, 0, STACK
        ARGFRAME PSTACK, 0, STACK
        ARGFRAME XSTACK, 19, STACK
        ARGFRAME IOVERLAY, 0, STATIC
        ARGFRAME DOVERLAY, 0, STATIC
        EXTERN afSetMatch
        FUNCTION afSetMatch,0202H
        ARGFRAME ISTACK, 0, STACK
        ARGFRAME PSTACK, 0, STACK
        ARGFRAME XSTACK, 15, STACK
        ARGFRAME IOVERLAY, 0, STATIC
        ARGFRAME DOVERLAY, 0, STATIC
        EXTERN NLME_IsAddressBroadcast
        FUNCTION NLME_IsAddressBroadcast,0202H
        ARGFRAME ISTACK, 0, STACK
        ARGFRAME PSTACK, 0, STACK
        ARGFRAME XSTACK, 26, STACK
        ARGFRAME IOVERLAY, 0, STATIC
        ARGFRAME DOVERLAY, 0, STATIC
        EXTERN AF_DataRequest
        FUNCTION AF_DataRequest,0202H
        ARGFRAME ISTACK, 0, STACK
        ARGFRAME PSTACK, 0, STACK
        ARGFRAME XSTACK, 35, STACK
        ARGFRAME IOVERLAY, 0, STATIC
        ARGFRAME DOVERLAY, 0, STATIC
        EXTERN osal_nv_item_len
        FUNCTION osal_nv_item_len,0202H
        ARGFRAME ISTACK, 0, STACK
        ARGFRAME PSTACK, 0, STACK
        ARGFRAME XSTACK, 12, STACK
        ARGFRAME IOVERLAY, 0, STATIC
        ARGFRAME DOVERLAY, 0, STATIC
        EXTERN osal_nv_read
        FUNCTION osal_nv_read,0202H
        ARGFRAME ISTACK, 0, STACK
        ARGFRAME PSTACK, 0, STACK
        ARGFRAME XSTACK, 16, STACK
        ARGFRAME IOVERLAY, 0, STATIC
        ARGFRAME DOVERLAY, 0, STATIC
        EXTERN osal_nv_write
        FUNCTION osal_nv_write,0202H
        ARGFRAME ISTACK, 0, STACK
        ARGFRAME PSTACK, 0, STACK
        ARGFRAME XSTACK, 14, STACK
        ARGFRAME IOVERLAY, 0, STATIC
        ARGFRAME DOVERLAY, 0, STATIC
        EXTERN osal_memcpy
        FUNCTION osal_memcpy,0202H
        ARGFRAME ISTACK, 0, STACK
        ARGFRAME PSTACK, 0, STACK
        ARGFRAME XSTACK, 14, STACK
        ARGFRAME IOVERLAY, 0, STATIC
        ARGFRAME DOVERLAY, 0, STATIC
        EXTERN osal_msg_receive
        FUNCTION osal_msg_receive,0202H
        ARGFRAME ISTACK, 0, STACK
        ARGFRAME PSTACK, 0, STACK
        ARGFRAME XSTACK, 15, STACK
        ARGFRAME IOVERLAY, 0, STATIC
        ARGFRAME DOVERLAY, 0, STATIC
        EXTERN zb_StartConfirm
        FUNCTION zb_StartConfirm,0202H
        ARGFRAME ISTACK, 0, STACK
        ARGFRAME PSTACK, 0, STACK
        ARGFRAME XSTACK, 15, STACK
        ARGFRAME IOVERLAY, 0, STATIC
        ARGFRAME DOVERLAY, 0, STATIC
        EXTERN osal_msg_deallocate
        FUNCTION osal_msg_deallocate,0202H
        ARGFRAME ISTACK, 0, STACK
        ARGFRAME PSTACK, 0, STACK
        ARGFRAME XSTACK, 15, STACK
        ARGFRAME IOVERLAY, 0, STATIC
        ARGFRAME DOVERLAY, 0, STATIC
        EXTERN zb_SendDataConfirm
        FUNCTION zb_SendDataConfirm,0202H
        ARGFRAME ISTACK, 0, STACK
        ARGFRAME PSTACK, 0, STACK
        ARGFRAME XSTACK, 15, STACK
        ARGFRAME IOVERLAY, 0, STATIC
        ARGFRAME DOVERLAY, 0, STATIC
        EXTERN zb_ReceiveDataIndication
        FUNCTION zb_ReceiveDataIndication,0202H
        ARGFRAME ISTACK, 0, STACK
        ARGFRAME PSTACK, 0, STACK
        ARGFRAME XSTACK, 19, STACK
        ARGFRAME IOVERLAY, 0, STATIC
        ARGFRAME DOVERLAY, 0, STATIC
        EXTERN zb_AllowBindConfirm
        FUNCTION zb_AllowBindConfirm,0202H
        ARGFRAME ISTACK, 0, STACK
        ARGFRAME PSTACK, 0, STACK
        ARGFRAME XSTACK, 15, STACK
        ARGFRAME IOVERLAY, 0, STATIC
        ARGFRAME DOVERLAY, 0, STATIC
        EXTERN zb_HandleKeys
        FUNCTION zb_HandleKeys,0202H
        ARGFRAME ISTACK, 0, STACK
        ARGFRAME PSTACK, 0, STACK
        ARGFRAME XSTACK, 15, STACK
        ARGFRAME IOVERLAY, 0, STATIC
        ARGFRAME DOVERLAY, 0, STATIC
        EXTERN zb_BindConfirm
        FUNCTION zb_BindConfirm,0202H
        ARGFRAME ISTACK, 0, STACK
        ARGFRAME PSTACK, 0, STACK
        ARGFRAME XSTACK, 19, STACK
        ARGFRAME IOVERLAY, 0, STATIC
        ARGFRAME DOVERLAY, 0, STATIC
        EXTERN zb_HandleOsalEvent
        FUNCTION zb_HandleOsalEvent,0202H
        ARGFRAME ISTACK, 0, STACK
        ARGFRAME PSTACK, 0, STACK
        ARGFRAME XSTACK, 15, STACK
        ARGFRAME IOVERLAY, 0, STATIC
        ARGFRAME DOVERLAY, 0, STATIC
        EXTERN HalLedSet
        FUNCTION HalLedSet,0202H
        ARGFRAME ISTACK, 0, STACK
        ARGFRAME PSTACK, 0, STACK
        ARGFRAME XSTACK, 15, STACK
        ARGFRAME IOVERLAY, 0, STATIC
        ARGFRAME DOVERLAY, 0, STATIC
        EXTERN HalLedBlink
        FUNCTION HalLedBlink,0202H
        ARGFRAME ISTACK, 0, STACK
        ARGFRAME PSTACK, 0, STACK
        ARGFRAME XSTACK, 15, STACK
        ARGFRAME IOVERLAY, 0, STATIC
        ARGFRAME DOVERLAY, 0, STATIC
        EXTERN ZDO_ParseAddrRsp
        FUNCTION ZDO_ParseAddrRsp,0202H
        ARGFRAME ISTACK, 0, STACK
        ARGFRAME PSTACK, 0, STACK
        ARGFRAME XSTACK, 19, STACK
        ARGFRAME IOVERLAY, 0, STATIC
        ARGFRAME DOVERLAY, 0, STATIC
        EXTERN zb_FindDeviceConfirm
        FUNCTION zb_FindDeviceConfirm,0202H
        ARGFRAME ISTACK, 0, STACK
        ARGFRAME PSTACK, 0, STACK
        ARGFRAME XSTACK, 19, STACK
        ARGFRAME IOVERLAY, 0, STATIC
        ARGFRAME DOVERLAY, 0, STATIC
        EXTERN ZDO_ParseEPListRsp
        FUNCTION ZDO_ParseEPListRsp,0202H
        ARGFRAME ISTACK, 0, STACK
        ARGFRAME PSTACK, 0, STACK
        ARGFRAME XSTACK, 19, STACK
        ARGFRAME IOVERLAY, 0, STATIC
        ARGFRAME DOVERLAY, 0, STATIC
        EXTERN ZDP_IEEEAddrReq
        FUNCTION ZDP_IEEEAddrReq,0202H
        ARGFRAME ISTACK, 0, STACK
        ARGFRAME PSTACK, 0, STACK
        ARGFRAME XSTACK, 19, STACK
        ARGFRAME IOVERLAY, 0, STATIC
        ARGFRAME DOVERLAY, 0, STATIC
        EXTERN afRegister
        FUNCTION afRegister,0202H
        ARGFRAME ISTACK, 0, STACK
        ARGFRAME PSTACK, 0, STACK
        ARGFRAME XSTACK, 10, STACK
        ARGFRAME IOVERLAY, 0, STATIC
        ARGFRAME DOVERLAY, 0, STATIC
        EXTERN ZDO_RegisterForZDOMsg
        FUNCTION ZDO_RegisterForZDOMsg,0202H
        ARGFRAME ISTACK, 0, STACK
        ARGFRAME PSTACK, 0, STACK
        ARGFRAME XSTACK, 10, STACK
        ARGFRAME IOVERLAY, 0, STATIC
        ARGFRAME DOVERLAY, 0, STATIC
        EXTERN RegisterForKeys
        FUNCTION RegisterForKeys,0202H
        ARGFRAME ISTACK, 0, STACK
        ARGFRAME PSTACK, 0, STACK
        ARGFRAME XSTACK, 10, STACK
        ARGFRAME IOVERLAY, 0, STATIC
        ARGFRAME DOVERLAY, 0, STATIC
        EXTERN HalKeyRead
        FUNCTION HalKeyRead,0202H
        ARGFRAME ISTACK, 0, STACK
        ARGFRAME PSTACK, 0, STACK
        ARGFRAME XSTACK, 10, STACK
        ARGFRAME IOVERLAY, 0, STATIC
        ARGFRAME DOVERLAY, 0, STATIC
        EXTERN osal_set_event
        FUNCTION osal_set_event,0202H
        ARGFRAME ISTACK, 0, STACK
        ARGFRAME PSTACK, 0, STACK
        ARGFRAME XSTACK, 10, STACK
        ARGFRAME IOVERLAY, 0, STATIC
        ARGFRAME DOVERLAY, 0, STATIC
        EXTERN osal_msg_allocate
        FUNCTION osal_msg_allocate,0202H
        ARGFRAME ISTACK, 0, STACK
        ARGFRAME PSTACK, 0, STACK
        ARGFRAME XSTACK, 12, STACK
        ARGFRAME IOVERLAY, 0, STATIC
        ARGFRAME DOVERLAY, 0, STATIC
        EXTERN osal_msg_send
        FUNCTION osal_msg_send,0202H
        ARGFRAME ISTACK, 0, STACK
        ARGFRAME PSTACK, 0, STACK
        ARGFRAME XSTACK, 12, STACK
        ARGFRAME IOVERLAY, 0, STATIC
        ARGFRAME DOVERLAY, 0, STATIC
        EXTERN osal_mem_alloc
        FUNCTION osal_mem_alloc,0202H
        ARGFRAME ISTACK, 2, STACK
        ARGFRAME PSTACK, 0, STACK
        ARGFRAME XSTACK, 0, STACK
        ARGFRAME IOVERLAY, 0, STATIC
        ARGFRAME DOVERLAY, 0, STATIC
        EXTERN osal_memset
        FUNCTION osal_memset,0202H
        ARGFRAME ISTACK, 2, STACK
        ARGFRAME PSTACK, 0, STACK
        ARGFRAME XSTACK, 0, STACK
        ARGFRAME IOVERLAY, 0, STATIC
        ARGFRAME DOVERLAY, 0, STATIC
        EXTERN macTaskInit
        FUNCTION macTaskInit,0202H
        ARGFRAME ISTACK, 2, STACK
        ARGFRAME PSTACK, 0, STACK
        ARGFRAME XSTACK, 0, STACK
        ARGFRAME IOVERLAY, 0, STATIC
        ARGFRAME DOVERLAY, 0, STATIC
        EXTERN nwk_init
        FUNCTION nwk_init,0202H
        ARGFRAME ISTACK, 2, STACK
        ARGFRAME PSTACK, 0, STACK
        ARGFRAME XSTACK, 0, STACK
        ARGFRAME IOVERLAY, 0, STATIC
        ARGFRAME DOVERLAY, 0, STATIC
        EXTERN Hal_Init
        FUNCTION Hal_Init,0202H
        ARGFRAME ISTACK, 2, STACK
        ARGFRAME PSTACK, 0, STACK
        ARGFRAME XSTACK, 0, STACK
        ARGFRAME IOVERLAY, 0, STATIC
        ARGFRAME DOVERLAY, 0, STATIC
        EXTERN APS_Init
        FUNCTION APS_Init,0202H
        ARGFRAME ISTACK, 2, STACK
        ARGFRAME PSTACK, 0, STACK
        ARGFRAME XSTACK, 0, STACK
        ARGFRAME IOVERLAY, 0, STATIC
        ARGFRAME DOVERLAY, 0, STATIC
        EXTERN ZDApp_Init
        FUNCTION ZDApp_Init,0202H
        ARGFRAME ISTACK, 2, STACK
        ARGFRAME PSTACK, 0, STACK
        ARGFRAME XSTACK, 0, STACK
        ARGFRAME IOVERLAY, 0, STATIC
        ARGFRAME DOVERLAY, 0, STATIC
        EXTERN ??AF_DataRequest?relay
        FUNCTION ??AF_DataRequest?relay,00H
        EXTERN ??APSME_BindRequest?relay
        FUNCTION ??APSME_BindRequest?relay,00H
        EXTERN ??APS_Init?relay
        FUNCTION ??APS_Init?relay,00H
        EXTERN ??APS_event_loop?relay
        FUNCTION ??APS_event_loop?relay,00H
        EXTERN ??HalKeyRead?relay
        FUNCTION ??HalKeyRead?relay,00H
        EXTERN ??HalLedBlink?relay
        FUNCTION ??HalLedBlink?relay,00H
        EXTERN ??HalLedSet?relay
        FUNCTION ??HalLedSet?relay,00H
        EXTERN ??Hal_Init?relay
        FUNCTION ??Hal_Init?relay,00H
        EXTERN ??Hal_ProcessEvent?relay
        FUNCTION ??Hal_ProcessEvent?relay,00H
        EXTERN ??NLME_IsAddressBroadcast?relay
        FUNCTION ??NLME_IsAddressBroadcast?relay,00H
        EXTERN ??RegisterForKeys?relay
        FUNCTION ??RegisterForKeys?relay,00H
        EXTERN ??ZDApp_Init?relay
        FUNCTION ??ZDApp_Init?relay,00H
        EXTERN ??ZDApp_event_loop?relay
        FUNCTION ??ZDApp_event_loop?relay,00H
        EXTERN ??ZDOInitDevice?relay
        FUNCTION ??ZDOInitDevice?relay,00H
        EXTERN ??ZDO_AnyClusterMatches?relay
        FUNCTION ??ZDO_AnyClusterMatches?relay,00H
        EXTERN ??ZDO_ParseAddrRsp?relay
        FUNCTION ??ZDO_ParseAddrRsp?relay,00H
        EXTERN ??ZDO_ParseEPListRsp?relay
        FUNCTION ??ZDO_ParseEPListRsp?relay,00H
        EXTERN ??ZDO_RegisterForZDOMsg?relay
        FUNCTION ??ZDO_RegisterForZDOMsg?relay,00H
        EXTERN ??ZDP_IEEEAddrReq?relay
        FUNCTION ??ZDP_IEEEAddrReq?relay,00H
        EXTERN ??ZDP_MatchDescReq?relay
        FUNCTION ??ZDP_MatchDescReq?relay,00H
        EXTERN ??ZDP_NwkAddrReq?relay
        FUNCTION ??ZDP_NwkAddrReq?relay,00H
        EXTERN ??afRegister?relay
        FUNCTION ??afRegister?relay,00H
        EXTERN ??afSetMatch?relay
        FUNCTION ??afSetMatch?relay,00H
        EXTERN ??bindFind?relay
        FUNCTION ??bindFind?relay,00H
        EXTERN ??bindRemoveEntry?relay
        FUNCTION ??bindRemoveEntry?relay,00H
        EXTERN ??macEventLoop?relay
        FUNCTION ??macEventLoop?relay,00H
        EXTERN ??macTaskInit?relay
        FUNCTION ??macTaskInit?relay,00H
        EXTERN ??nwk_event_loop?relay
        FUNCTION ??nwk_event_loop?relay,00H
        EXTERN ??nwk_init?relay
        FUNCTION ??nwk_init?relay,00H
        EXTERN ??osal_mem_alloc?relay
        FUNCTION ??osal_mem_alloc?relay,00H
        EXTERN ??osal_memcpy?relay
        FUNCTION ??osal_memcpy?relay,00H
        EXTERN ??osal_memset?relay
        FUNCTION ??osal_memset?relay,00H
        EXTERN ??osal_msg_allocate?relay
        FUNCTION ??osal_msg_allocate?relay,00H
        EXTERN ??osal_msg_deallocate?relay
        FUNCTION ??osal_msg_deallocate?relay,00H
        EXTERN ??osal_msg_receive?relay
        FUNCTION ??osal_msg_receive?relay,00H
        EXTERN ??osal_msg_send?relay
        FUNCTION ??osal_msg_send?relay,00H
        EXTERN ??osal_nv_item_len?relay
        FUNCTION ??osal_nv_item_len?relay,00H
        EXTERN ??osal_nv_read?relay
        FUNCTION ??osal_nv_read?relay,00H
        EXTERN ??osal_nv_write?relay
        FUNCTION ??osal_nv_write?relay,00H
        EXTERN ??osal_set_event?relay
        FUNCTION ??osal_set_event?relay,00H
        EXTERN ??osal_start_timerEx?relay
        FUNCTION ??osal_start_timerEx?relay,00H
        EXTERN ??osal_stop_timerEx?relay
        FUNCTION ??osal_stop_timerEx?relay,00H
        EXTERN ??sAddrExtCpy?relay
        FUNCTION ??sAddrExtCpy?relay,00H
        EXTERN ??zb_AllowBindConfirm?relay
        FUNCTION ??zb_AllowBindConfirm?relay,00H
        EXTERN ??zb_BindConfirm?relay
        FUNCTION ??zb_BindConfirm?relay,00H
        EXTERN ??zb_FindDeviceConfirm?relay
        FUNCTION ??zb_FindDeviceConfirm?relay,00H
        EXTERN ??zb_HandleKeys?relay
        FUNCTION ??zb_HandleKeys?relay,00H
        EXTERN ??zb_HandleOsalEvent?relay
        FUNCTION ??zb_HandleOsalEvent?relay,00H
        EXTERN ??zb_ReceiveDataIndication?relay
        FUNCTION ??zb_ReceiveDataIndication?relay,00H
        EXTERN ??zb_SendDataConfirm?relay
        FUNCTION ??zb_SendDataConfirm?relay,00H
        EXTERN ??zb_StartConfirm?relay
        FUNCTION ??zb_StartConfirm?relay,00H
        EXTERN ZDAppTaskID
        EXTERN _NIB
        EXTERN aExtendedAddress
        EXTERN devState
        EXTERN zb_SimpleDesc
        EXTERN zgApsDefaultMaxBindingTime
        EXTERN zgStartDelay

// D:\developer_tool_install\IAR\ZStack-CC2530-2.5.1a\Components\stack\sapi\sapi.c
//    1 /**************************************************************************************************
//    2   Filename:       sapi.c
//    3   Revised:        $Date: 2010-05-03 17:46:57 -0700 (Mon, 03 May 2010) $
//    4   Revision:       $Revision: 22364 $
//    5 
//    6   Description:    Z-Stack Simple Application Interface.
//    7 
//    8 
//    9   Copyright 2007-2010 Texas Instruments Incorporated. All rights reserved.
//   10 
//   11   IMPORTANT: Your use of this Software is limited to those specific rights
//   12   granted under the terms of a software license agreement between the user
//   13   who downloaded the software, his/her employer (which must be your employer)
//   14   and Texas Instruments Incorporated (the "License").  You may not use this
//   15   Software unless you agree to abide by the terms of the License. The License
//   16   limits your use, and you acknowledge, that the Software may not be modified,
//   17   copied or distributed unless embedded on a Texas Instruments microcontroller
//   18   or used solely and exclusively in conjunction with a Texas Instruments radio
//   19   frequency transceiver, which is integrated into your product.  Other than for
//   20   the foregoing purpose, you may not use, reproduce, copy, prepare derivative
//   21   works of, modify, distribute, perform, display or sell this Software and/or
//   22   its documentation for any purpose.
//   23 
//   24   YOU FURTHER ACKNOWLEDGE AND AGREE THAT THE SOFTWARE AND DOCUMENTATION ARE
//   25   PROVIDED “AS IS” WITHOUT WARRANTY OF ANY KIND, EITHER EXPRESS OR IMPLIED,
//   26   INCLUDING WITHOUT LIMITATION, ANY WARRANTY OF MERCHANTABILITY, TITLE,
//   27   NON-INFRINGEMENT AND FITNESS FOR A PARTICULAR PURPOSE. IN NO EVENT SHALL
//   28   TEXAS INSTRUMENTS OR ITS LICENSORS BE LIABLE OR OBLIGATED UNDER CONTRACT,
//   29   NEGLIGENCE, STRICT LIABILITY, CONTRIBUTION, BREACH OF WARRANTY, OR OTHER
//   30   LEGAL EQUITABLE THEORY ANY DIRECT OR INDIRECT DAMAGES OR EXPENSES
//   31   INCLUDING BUT NOT LIMITED TO ANY INCIDENTAL, SPECIAL, INDIRECT, PUNITIVE
//   32   OR CONSEQUENTIAL DAMAGES, LOST PROFITS OR LOST DATA, COST OF PROCUREMENT
//   33   OF SUBSTITUTE GOODS, TECHNOLOGY, SERVICES, OR ANY CLAIMS BY THIRD PARTIES
//   34   (INCLUDING BUT NOT LIMITED TO ANY DEFENSE THEREOF), OR OTHER SIMILAR COSTS.
//   35 
//   36   Should you have any questions regarding your right to use this Software,
//   37   contact Texas Instruments Incorporated at www.TI.com.
//   38 **************************************************************************************************/
//   39 
//   40 /******************************************************************************
//   41  * INCLUDES
//   42  */
//   43 
//   44 #include "ZComDef.h"
//   45 #include "hal_drivers.h"
//   46 #include "OSAL.h"
//   47 #include "OSAL_Tasks.h"
//   48 //#include "OSAL_Custom.h"
//   49 
//   50 #if defined ( MT_TASK )
//   51   #include "MT.h"
//   52   #include "MT_TASK.h"
//   53 #endif
//   54 
//   55 #include "nwk.h"
//   56 #include "APS.h"
//   57 #include "ZDApp.h"
//   58 
//   59 #include "osal_nv.h"
//   60 #include "NLMEDE.h"
//   61 #include "AF.h"
//   62 #include "OnBoard.h"
//   63 #include "nwk_util.h"
//   64 #include "ZDProfile.h"
//   65 #include "ZDObject.h"
//   66 #include "hal_led.h"
//   67 #include "hal_key.h"
//   68 #include "sapi.h"
//   69 #include "MT_SAPI.h"
//   70 
//   71 extern uint8 zgStartDelay;
//   72 extern uint8 zgSapiEndpoint;
//   73 /*********************************************************************
//   74  * CONSTANTS
//   75  */
//   76 
//   77 #if !defined OSAL_SAPI
//   78 #define OSAL_SAPI  TRUE
//   79 #endif
//   80 
//   81 #if !defined SAPI_CB_FUNC
//   82 #define SAPI_CB_FUNC  TRUE
//   83 #endif
//   84 
//   85 // Message ID's for application user messages must be in 0xE0-0xEF range
//   86 #define ZB_USER_MSG                       0xE0
//   87 #define SAPICB_DATA_CNF   0xE0
//   88 #define SAPICB_BIND_CNF   0xE1
//   89 #define SAPICB_START_CNF  0xE2
//   90 
//   91 /*********************************************************************
//   92  * TYPEDEFS
//   93  */
//   94 
//   95 /*********************************************************************
//   96  * GLOBAL VARIABLES
//   97  */
//   98 
//   99 #if OSAL_SAPI
//  100 // The order in this table must be identical to the task initialization calls below in osalInitTask.

        RSEG XDATA_ROM_C:CONST:REORDER:NOROOT(0)
        DATA8
//  101 const pTaskEventHandlerFn tasksArr[] = {
tasksArr:
        DATA16
        DW ??macEventLoop?relay
        DW ??nwk_event_loop?relay
        DW ??Hal_ProcessEvent?relay
        DW ??APS_event_loop?relay
        DW ??ZDApp_event_loop?relay
        DW ??SAPI_ProcessEvent?relay
//  102   macEventLoop,
//  103   nwk_event_loop,
//  104   Hal_ProcessEvent,
//  105 #if defined( MT_TASK )
//  106   MT_ProcessEvent,
//  107 #endif
//  108   APS_event_loop,
//  109   ZDApp_event_loop,
//  110 
//  111   SAPI_ProcessEvent
//  112 };
//  113 

        RSEG XDATA_ROM_C:CONST:REORDER:NOROOT(0)
        DATA8
//  114 const uint8 tasksCnt = sizeof( tasksArr ) / sizeof( tasksArr[0] );
tasksCnt:
        DB 6

        RSEG XDATA_Z:XDATA:NOROOT(0)
        DATA16
//  115 uint16 *tasksEvents;
tasksEvents:
        DS 2
        REQUIRE __INIT_XDATA_Z
//  116 #endif
//  117 

        RSEG XDATA_Z:XDATA:NOROOT(0)
        DATA8
//  118 endPointDesc_t sapi_epDesc;
sapi_epDesc:
        DS 6
        REQUIRE __INIT_XDATA_Z

        RSEG XDATA_Z:XDATA:NOROOT(0)
        DATA8
//  119 uint8 sapi_TaskID;
sapi_TaskID:
        DS 1
        REQUIRE __INIT_XDATA_Z

        RSEG XDATA_Z:XDATA:NOROOT(0)
        DATA16
//  120 static uint16 sapi_bindInProgress;
sapi_bindInProgress:
        DS 2
        REQUIRE __INIT_XDATA_Z
//  121 
//  122 /*********************************************************************
//  123  * LOCAL FUNCTIONS
//  124  */
//  125 
//  126 void SAPI_ProcessZDOMsgs( zdoIncomingMsg_t *inMsg );
//  127 static void SAPI_SendCback( uint8 event, uint8 status, uint16 data );
//  128 
//  129 static void SAPI_StartConfirm( uint8 status );
//  130 static void SAPI_SendDataConfirm( uint8 handle, uint8 status );
//  131 static void SAPI_BindConfirm( uint16 commandId, uint8 status );
//  132 static void SAPI_FindDeviceConfirm( uint8 searchType,
//  133                                         uint8 *searchKey, uint8 *result );
//  134 static void SAPI_ReceiveDataIndication( uint16 source,
//  135                               uint16 command, uint16 len, uint8 *pData  );
//  136 static void SAPI_AllowBindConfirm( uint16 source );
//  137 
//  138 /******************************************************************************
//  139  * @fn          zb_SystemReset
//  140  *
//  141  * @brief       The zb_SystemReset function reboots the ZigBee device.  The
//  142  *              zb_SystemReset function can be called after a call to
//  143  *              zb_WriteConfiguration to restart Z-Stack with the updated
//  144  *              configuration.
//  145  *
//  146  * @param       none
//  147  *
//  148  * @return      none
//  149  */

        RSEG BANKED_CODE:CODE:NOROOT(0)
//  150 void zb_SystemReset ( void )
zb_SystemReset:
        CFI Block cfiBlock0 Using cfiCommon0
        CFI Function zb_SystemReset
        CODE
//  151 {
        FUNCALL zb_SystemReset, Onboard_soft_reset
        LOCFRAME ISTACK, 0, STACK
        LOCFRAME PSTACK, 0, STACK
        LOCFRAME XSTACK, 0, STACK
        LOCFRAME IOVERLAY, 0, STATIC
        LOCFRAME DOVERLAY, 0, STATIC
        ARGFRAME ISTACK, 0, STACK
        ARGFRAME PSTACK, 0, STACK
        ARGFRAME XSTACK, 0, STACK
        ARGFRAME IOVERLAY, 0, STATIC
        ARGFRAME DOVERLAY, 0, STATIC
        ; Saved register size: 0
        ; Auto size: 0
//  152   SystemResetSoft();  // Especially useful for CC2531 to not break comm with USB Host.
        ; Setup parameters for call to function Onboard_soft_reset
        LCALL   Onboard_soft_reset & 0xFFFF
//  153 }
        LJMP    ?BRET
        CFI EndBlock cfiBlock0
//  154 
//  155 /******************************************************************************
//  156  * @fn          zb_StartRequest
//  157  *
//  158  * @brief       The zb_StartRequest function starts the ZigBee stack.  When the
//  159  *              ZigBee stack starts, the device reads configuration parameters
//  160  *              from Nonvolatile memory and the device joins its network.  The
//  161  *              ZigBee stack calls the zb_StartConrifm callback function when
//  162  *              the startup process completes.
//  163  *
//  164  * @param       none
//  165  *
//  166  * @return      none
//  167  */

        RSEG BANKED_CODE:CODE:NOROOT(0)
//  168 void zb_StartRequest()
zb_StartRequest:
        CFI Block cfiBlock1 Using cfiCommon0
        CFI Function zb_StartRequest
        CODE
//  169 {
        FUNCALL zb_StartRequest, zb_ReadConfiguration
        LOCFRAME ISTACK, 2, STACK
        LOCFRAME PSTACK, 0, STACK
        LOCFRAME XSTACK, 1, STACK
        LOCFRAME IOVERLAY, 0, STATIC
        LOCFRAME DOVERLAY, 0, STATIC
        ARGFRAME ISTACK, 2, STACK
        ARGFRAME PSTACK, 0, STACK
        ARGFRAME XSTACK, 1, STACK
        ARGFRAME IOVERLAY, 0, STATIC
        ARGFRAME DOVERLAY, 0, STATIC
        FUNCALL zb_StartRequest, SAPI_SendCback
        LOCFRAME ISTACK, 2, STACK
        LOCFRAME PSTACK, 0, STACK
        LOCFRAME XSTACK, 1, STACK
        LOCFRAME IOVERLAY, 0, STATIC
        LOCFRAME DOVERLAY, 0, STATIC
        ARGFRAME ISTACK, 2, STACK
        ARGFRAME PSTACK, 0, STACK
        ARGFRAME XSTACK, 1, STACK
        ARGFRAME IOVERLAY, 0, STATIC
        ARGFRAME DOVERLAY, 0, STATIC
        FUNCALL zb_StartRequest, ZDOInitDevice
        LOCFRAME ISTACK, 2, STACK
        LOCFRAME PSTACK, 0, STACK
        LOCFRAME XSTACK, 1, STACK
        LOCFRAME IOVERLAY, 0, STATIC
        LOCFRAME DOVERLAY, 0, STATIC
        ARGFRAME ISTACK, 2, STACK
        ARGFRAME PSTACK, 0, STACK
        ARGFRAME XSTACK, 1, STACK
        ARGFRAME IOVERLAY, 0, STATIC
        ARGFRAME DOVERLAY, 0, STATIC
        PUSH    DPL
        CFI DPL0 Frame(CFA_SP, 4)
        CFI CFA_SP SP+-4
        PUSH    DPH
        CFI DPH0 Frame(CFA_SP, 5)
        CFI CFA_SP SP+-5
        ; Saved register size: 2
        ; Auto size: 1
        MOV     A,#-0x1
        LCALL   ?ALLOC_XSTACK8
        CFI CFA_XSP16 add(XSP16, 1)
//  170   uint8 logicalType;
//  171 
//  172   zb_ReadConfiguration( ZCD_NV_LOGICAL_TYPE, sizeof(uint8), &logicalType );
        ; Setup parameters for call to function zb_ReadConfiguration
        MOV     DPL,?XSP + 0
        MOV     DPH,?XSP + 1
        MOV     R4,DPL
        MOV     R5,DPH
        MOV     R2,#0x1
        MOV     R1,#-0x79
        LCALL   ?Subroutine5 & 0xFFFF
//  173 
//  174   // Check for bad combinations of compile flag definitions and device type setting.
//  175   if ((logicalType > ZG_DEVICETYPE_ENDDEVICE)      ||
//  176 #if !ZG_BUILD_ENDDEVICE_TYPE   // Only RTR or Coord possible.
//  177       (logicalType == ZG_DEVICETYPE_ENDDEVICE)     ||
//  178 #endif
//  179 #if !ZG_BUILD_RTR_TYPE         // Only End Device possible.
//  180       (logicalType == ZG_DEVICETYPE_ROUTER)        ||
//  181       (logicalType == ZG_DEVICETYPE_COORDINATOR)   ||
//  182 #elif ZG_BUILD_RTRONLY_TYPE    // Only RTR possible.
//  183       (logicalType == ZG_DEVICETYPE_COORDINATOR)   ||
//  184 #elif !ZG_BUILD_JOINING_TYPE   // Only Coord possible.
//  185       (logicalType == ZG_DEVICETYPE_ROUTER)        ||
//  186 #endif
//  187       (0))
??CrossCallReturnLabel_0:
        CLR     C
        SUBB    A,#0x3
        JNC     ??zb_StartRequest_0
        MOVX    A,@DPTR
        XRL     A,#0x1
        JZ      ??zb_StartRequest_0
        MOVX    A,@DPTR
        JNZ     ??zb_StartRequest_1
//  188   {
//  189     logicalType = ZB_INVALID_PARAMETER;
??zb_StartRequest_0:
        MOV     A,#0x2
        MOVX    @DPTR,A
//  190     SAPI_SendCback(SAPICB_START_CNF, logicalType, 0);
        ; Setup parameters for call to function SAPI_SendCback
        MOV     R4,#0x0
        MOV     R5,#0x0
        MOV     R2,A
        MOV     R1,#-0x1e
        LCALL   ??SAPI_SendCback?relay
        SJMP    ??zb_StartRequest_2
//  191   }
//  192   else
//  193   {
//  194     logicalType = ZB_SUCCESS;
??zb_StartRequest_1:
        CLR     A
        MOVX    @DPTR,A
//  195     ZDOInitDevice(zgStartDelay);
        ; Setup parameters for call to function ZDOInitDevice
        MOV     DPTR,#zgStartDelay
        MOVX    A,@DPTR
        MOV     R2,A
        MOV     R3,#0x0
        LCALL   ??ZDOInitDevice?relay
//  196   }
//  197 
//  198   
//  199   return;
??zb_StartRequest_2:
        MOV     A,#0x1
        LCALL   ?DEALLOC_XSTACK8
        CFI EndBlock cfiBlock1
        REQUIRE ?Subroutine0
        ; // Fall through to label ?Subroutine0
//  200 }

        RSEG BANKED_CODE:CODE:NOROOT(0)
?Subroutine0:
        CFI Block cfiBlock2 Using cfiCommon0
        CFI NoFunction
        CFI CFA_SP SP+-5
        CFI DPL0 Frame(CFA_SP, 4)
        CFI DPH0 Frame(CFA_SP, 5)
        POP     DPH
        CFI CFA_SP SP+-4
        CFI DPH0 SameValue
        POP     DPL
        CFI CFA_SP SP+-3
        CFI DPL0 SameValue
        LJMP    ?BRET
        CFI EndBlock cfiBlock2
//  201 
//  202 /******************************************************************************
//  203  * @fn          zb_BindDevice
//  204  *
//  205  * @brief       The zb_BindDevice function establishes or removes a ‘binding’
//  206  *              between two devices.  Once bound, an application can send
//  207  *              messages to a device by referencing the commandId for the
//  208  *              binding.
//  209  *
//  210  * @param       create - TRUE to create a binding, FALSE to remove a binding
//  211  *              commandId - The identifier of the binding
//  212  *              pDestination - The 64-bit IEEE address of the device to bind to
//  213  *
//  214  * @return      The status of the bind operation is returned in the
//  215  *              zb_BindConfirm callback.
//  216  */

        RSEG BANKED_CODE:CODE:NOROOT(0)
//  217 void zb_BindDevice ( uint8 create, uint16 commandId, uint8 *pDestination )
zb_BindDevice:
        CFI Block cfiBlock3 Using cfiCommon0
        CFI Function zb_BindDevice
        CODE
//  218 {
        FUNCALL zb_BindDevice, sAddrExtCpy
        LOCFRAME ISTACK, 0, STACK
        LOCFRAME PSTACK, 0, STACK
        LOCFRAME XSTACK, 23, STACK
        LOCFRAME IOVERLAY, 0, STATIC
        LOCFRAME DOVERLAY, 0, STATIC
        ARGFRAME ISTACK, 0, STACK
        ARGFRAME PSTACK, 0, STACK
        ARGFRAME XSTACK, 23, STACK
        ARGFRAME IOVERLAY, 0, STATIC
        ARGFRAME DOVERLAY, 0, STATIC
        FUNCALL zb_BindDevice, APSME_BindRequest
        LOCFRAME ISTACK, 0, STACK
        LOCFRAME PSTACK, 0, STACK
        LOCFRAME XSTACK, 24, STACK
        LOCFRAME IOVERLAY, 0, STATIC
        LOCFRAME DOVERLAY, 0, STATIC
        ARGFRAME ISTACK, 0, STACK
        ARGFRAME PSTACK, 0, STACK
        ARGFRAME XSTACK, 24, STACK
        ARGFRAME IOVERLAY, 0, STATIC
        ARGFRAME DOVERLAY, 0, STATIC
        FUNCALL zb_BindDevice, ZDP_NwkAddrReq
        LOCFRAME ISTACK, 0, STACK
        LOCFRAME PSTACK, 0, STACK
        LOCFRAME XSTACK, 23, STACK
        LOCFRAME IOVERLAY, 0, STATIC
        LOCFRAME DOVERLAY, 0, STATIC
        ARGFRAME ISTACK, 0, STACK
        ARGFRAME PSTACK, 0, STACK
        ARGFRAME XSTACK, 23, STACK
        ARGFRAME IOVERLAY, 0, STATIC
        ARGFRAME DOVERLAY, 0, STATIC
        FUNCALL zb_BindDevice, osal_start_timerEx
        LOCFRAME ISTACK, 0, STACK
        LOCFRAME PSTACK, 0, STACK
        LOCFRAME XSTACK, 23, STACK
        LOCFRAME IOVERLAY, 0, STATIC
        LOCFRAME DOVERLAY, 0, STATIC
        ARGFRAME ISTACK, 0, STACK
        ARGFRAME PSTACK, 0, STACK
        ARGFRAME XSTACK, 23, STACK
        ARGFRAME IOVERLAY, 0, STATIC
        ARGFRAME DOVERLAY, 0, STATIC
        FUNCALL zb_BindDevice, SAPI_SendCback
        LOCFRAME ISTACK, 0, STACK
        LOCFRAME PSTACK, 0, STACK
        LOCFRAME XSTACK, 23, STACK
        LOCFRAME IOVERLAY, 0, STATIC
        LOCFRAME DOVERLAY, 0, STATIC
        ARGFRAME ISTACK, 0, STACK
        ARGFRAME PSTACK, 0, STACK
        ARGFRAME XSTACK, 23, STACK
        ARGFRAME IOVERLAY, 0, STATIC
        ARGFRAME DOVERLAY, 0, STATIC
        FUNCALL zb_BindDevice, ZDO_AnyClusterMatches
        LOCFRAME ISTACK, 0, STACK
        LOCFRAME PSTACK, 0, STACK
        LOCFRAME XSTACK, 25, STACK
        LOCFRAME IOVERLAY, 0, STATIC
        LOCFRAME DOVERLAY, 0, STATIC
        ARGFRAME ISTACK, 0, STACK
        ARGFRAME PSTACK, 0, STACK
        ARGFRAME XSTACK, 25, STACK
        ARGFRAME IOVERLAY, 0, STATIC
        ARGFRAME DOVERLAY, 0, STATIC
        FUNCALL zb_BindDevice, ZDP_MatchDescReq
        LOCFRAME ISTACK, 0, STACK
        LOCFRAME PSTACK, 0, STACK
        LOCFRAME XSTACK, 31, STACK
        LOCFRAME IOVERLAY, 0, STATIC
        LOCFRAME DOVERLAY, 0, STATIC
        ARGFRAME ISTACK, 0, STACK
        ARGFRAME PSTACK, 0, STACK
        ARGFRAME XSTACK, 31, STACK
        ARGFRAME IOVERLAY, 0, STATIC
        ARGFRAME DOVERLAY, 0, STATIC
        FUNCALL zb_BindDevice, ZDO_AnyClusterMatches
        LOCFRAME ISTACK, 0, STACK
        LOCFRAME PSTACK, 0, STACK
        LOCFRAME XSTACK, 25, STACK
        LOCFRAME IOVERLAY, 0, STATIC
        LOCFRAME DOVERLAY, 0, STATIC
        ARGFRAME ISTACK, 0, STACK
        ARGFRAME PSTACK, 0, STACK
        ARGFRAME XSTACK, 25, STACK
        ARGFRAME IOVERLAY, 0, STATIC
        ARGFRAME DOVERLAY, 0, STATIC
        FUNCALL zb_BindDevice, ZDP_MatchDescReq
        LOCFRAME ISTACK, 0, STACK
        LOCFRAME PSTACK, 0, STACK
        LOCFRAME XSTACK, 31, STACK
        LOCFRAME IOVERLAY, 0, STATIC
        LOCFRAME DOVERLAY, 0, STATIC
        ARGFRAME ISTACK, 0, STACK
        ARGFRAME PSTACK, 0, STACK
        ARGFRAME XSTACK, 31, STACK
        ARGFRAME IOVERLAY, 0, STATIC
        ARGFRAME DOVERLAY, 0, STATIC
        FUNCALL zb_BindDevice, osal_start_timerEx
        LOCFRAME ISTACK, 0, STACK
        LOCFRAME PSTACK, 0, STACK
        LOCFRAME XSTACK, 23, STACK
        LOCFRAME IOVERLAY, 0, STATIC
        LOCFRAME DOVERLAY, 0, STATIC
        ARGFRAME ISTACK, 0, STACK
        ARGFRAME PSTACK, 0, STACK
        ARGFRAME XSTACK, 23, STACK
        ARGFRAME IOVERLAY, 0, STATIC
        ARGFRAME DOVERLAY, 0, STATIC
        FUNCALL zb_BindDevice, bindRemoveEntry
        LOCFRAME ISTACK, 0, STACK
        LOCFRAME PSTACK, 0, STACK
        LOCFRAME XSTACK, 23, STACK
        LOCFRAME IOVERLAY, 0, STATIC
        LOCFRAME DOVERLAY, 0, STATIC
        ARGFRAME ISTACK, 0, STACK
        ARGFRAME PSTACK, 0, STACK
        ARGFRAME XSTACK, 23, STACK
        ARGFRAME IOVERLAY, 0, STATIC
        ARGFRAME DOVERLAY, 0, STATIC
        FUNCALL zb_BindDevice, bindFind
        LOCFRAME ISTACK, 0, STACK
        LOCFRAME PSTACK, 0, STACK
        LOCFRAME XSTACK, 23, STACK
        LOCFRAME IOVERLAY, 0, STATIC
        LOCFRAME DOVERLAY, 0, STATIC
        ARGFRAME ISTACK, 0, STACK
        ARGFRAME PSTACK, 0, STACK
        ARGFRAME XSTACK, 23, STACK
        ARGFRAME IOVERLAY, 0, STATIC
        ARGFRAME DOVERLAY, 0, STATIC
        FUNCALL zb_BindDevice, osal_start_timerEx
        LOCFRAME ISTACK, 0, STACK
        LOCFRAME PSTACK, 0, STACK
        LOCFRAME XSTACK, 23, STACK
        LOCFRAME IOVERLAY, 0, STATIC
        LOCFRAME DOVERLAY, 0, STATIC
        ARGFRAME ISTACK, 0, STACK
        ARGFRAME PSTACK, 0, STACK
        ARGFRAME XSTACK, 23, STACK
        ARGFRAME IOVERLAY, 0, STATIC
        ARGFRAME DOVERLAY, 0, STATIC
        MOV     A,#-0xc
        LCALL   ?BANKED_ENTER_XDATA
        CFI DPH0 load(1, XDATA, add(CFA_XSP16, literal(-1)))
        CFI DPL0 load(1, XDATA, add(CFA_XSP16, literal(-2)))
        CFI ?BRET_EXT load(1, XDATA, add(CFA_XSP16, literal(-3)))
        CFI ?RET_HIGH load(1, XDATA, add(CFA_XSP16, literal(-4)))
        CFI ?RET_LOW load(1, XDATA, add(CFA_XSP16, literal(-5)))
        CFI R7 load(1, XDATA, add(CFA_XSP16, literal(-6)))
        CFI V3 load(1, XDATA, add(CFA_XSP16, literal(-7)))
        CFI V2 load(1, XDATA, add(CFA_XSP16, literal(-8)))
        CFI V1 load(1, XDATA, add(CFA_XSP16, literal(-9)))
        CFI V0 load(1, XDATA, add(CFA_XSP16, literal(-10)))
        CFI VB load(1, XDATA, add(CFA_XSP16, literal(-11)))
        CFI R6 load(1, XDATA, add(CFA_XSP16, literal(-12)))
        CFI CFA_SP SP+0
        CFI CFA_XSP16 add(XSP16, 12)
        ; Saved register size: 12
        ; Auto size: 11
        MOV     A,#-0xb
        LCALL   ?ALLOC_XSTACK8
        CFI CFA_XSP16 add(XSP16, 23)
        MOV     DPL,?XSP + 0
        MOV     DPH,?XSP + 1
        MOV     A,R2
        MOVX    @DPTR,A
        INC     DPTR
        MOV     A,R3
        MOVX    @DPTR,A
        MOV     A,R4
        MOV     R6,A
        MOV     A,R5
        MOV     R7,A
//  219   zAddrType_t destination;
//  220   uint8 ret = ZB_ALREADY_IN_PROGRESS;
        MOV     ?V0 + 1,#0x20
//  221 
//  222   if ( create )
        MOV     A,R1
        JNZ     $+5
        LJMP    ??zb_BindDevice_0 & 0xFFFF
//  223   {
//  224     if (sapi_bindInProgress == 0xffff)
        MOV     DPTR,#sapi_bindInProgress
        MOVX    A,@DPTR
        CPL     A
        JNZ     ??zb_BindDevice_1
        INC     DPTR
        MOVX    A,@DPTR
        CPL     A
??zb_BindDevice_1:
        JNZ     ??CrossCallReturnLabel_15
//  225     {
//  226       if ( pDestination )
        MOV     A,R6
        ORL     A,R7
        JZ      ??zb_BindDevice_2
//  227       {
//  228         destination.addrMode = Addr64Bit;
        MOV     A,#0xa
        LCALL   ?XSTACK_DISP0_8
        MOV     A,#0x3
        MOVX    @DPTR,A
//  229         osal_cpyExtAddr( destination.addr.extAddr, pDestination );
        ; Setup parameters for call to function sAddrExtCpy
        MOV     A,#0x2
        LCALL   ?XSTACK_DISP0_8
        MOV     R2,DPL
        MOV     R3,DPH
        LCALL   ??sAddrExtCpy?relay
//  230 
//  231         ret = APSME_BindRequest( sapi_epDesc.endPoint, commandId,
//  232                                             &destination, sapi_epDesc.endPoint );
        ; Setup parameters for call to function APSME_BindRequest
        MOV     DPTR,#sapi_epDesc
        MOVX    A,@DPTR
        MOV     ?V0 + 1,A
        MOV     R0,#?V0 + 1
        LCALL   ?PUSH_XSTACK_I_ONE
        CFI CFA_XSP16 add(XSP16, 24)
        MOV     A,#0x3
        LCALL   ?XSTACK_DISP0_8
        MOV     R4,DPL
        MOV     R5,DPH
        MOV     A,#0x1
        LCALL   ?XSTACK_DISP0_8
        LCALL   ??Subroutine20_0 & 0xFFFF
??CrossCallReturnLabel_28:
        MOV     DPTR,#sapi_epDesc
        MOVX    A,@DPTR
        MOV     R1,A
        LCALL   ??APSME_BindRequest?relay
        MOV     A,#0x1
        LCALL   ?DEALLOC_XSTACK8
        CFI CFA_XSP16 add(XSP16, 23)
        MOV     A,R1
        MOV     ?V0 + 1,A
//  233 
//  234         if ( ret == ZSuccess )
        JNZ     ??CrossCallReturnLabel_15
//  235         {
//  236           // Find nwk addr
//  237           ZDP_NwkAddrReq(pDestination, ZDP_ADDR_REQTYPE_SINGLE, 0, 0 );
        ; Setup parameters for call to function ZDP_NwkAddrReq
        MOV     R5,#0x0
        MOV     R4,#0x0
        MOV     R1,#0x0
        MOV     A,R6
        MOV     R2,A
        MOV     A,R7
        MOV     R3,A
        LCALL   ??ZDP_NwkAddrReq?relay
//  238           osal_start_timerEx( ZDAppTaskID, ZDO_NWK_UPDATE_NV, 250 );
        ; Setup parameters for call to function osal_start_timerEx
        LCALL   ?Subroutine10 & 0xFFFF
//  239         }
//  240       }
//  241       else
//  242       {
//  243         ret = ZB_INVALID_PARAMETER;
//  244         destination.addrMode = Addr16Bit;
//  245         destination.addr.shortAddr = NWK_BROADCAST_SHORTADDR;
//  246         if ( ZDO_AnyClusterMatches( 1, &commandId, sapi_epDesc.simpleDesc->AppNumOutClusters,
//  247                                                 sapi_epDesc.simpleDesc->pAppOutClusterList ) )
//  248         {
//  249           // Try to match with a device in the allow bind mode
//  250           ret = ZDP_MatchDescReq( &destination, NWK_BROADCAST_SHORTADDR,
//  251               sapi_epDesc.simpleDesc->AppProfId, 1, &commandId, 0, (cId_t *)NULL, 0 );
//  252         }
//  253         else if ( ZDO_AnyClusterMatches( 1, &commandId, sapi_epDesc.simpleDesc->AppNumInClusters,
//  254                                                 sapi_epDesc.simpleDesc->pAppInClusterList ) )
//  255         {
//  256           ret = ZDP_MatchDescReq( &destination, NWK_BROADCAST_SHORTADDR,
//  257               sapi_epDesc.simpleDesc->AppProfId, 0, (cId_t *)NULL, 1, &commandId, 0 );
//  258         }
//  259 
//  260         if ( ret == ZB_SUCCESS )
//  261         {
//  262           // Set a timer to make sure bind completes
//  263 #if ( ZG_BUILD_RTR_TYPE )
//  264           osal_start_timerEx(sapi_TaskID, ZB_BIND_TIMER, AIB_MaxBindingTime);
//  265 #else
//  266           // AIB_MaxBindingTime is not defined for an End Device
//  267           osal_start_timerEx(sapi_TaskID, ZB_BIND_TIMER, zgApsDefaultMaxBindingTime);
//  268 #endif
//  269           sapi_bindInProgress = commandId;
//  270           return; // dont send cback event
//  271         }
//  272       }
//  273     }
//  274 
//  275     SAPI_SendCback( SAPICB_BIND_CNF, ret, commandId );
??CrossCallReturnLabel_15:
        ; Setup parameters for call to function SAPI_SendCback
        MOV     DPL,?XSP + 0
        MOV     DPH,?XSP + 1
        MOVX    A,@DPTR
        MOV     R4,A
        INC     DPTR
        MOVX    A,@DPTR
        MOV     R5,A
        MOV     R2,?V0 + 1
        MOV     R1,#-0x1f
        LCALL   ??SAPI_SendCback?relay
        LJMP    ??CrossCallReturnLabel_16 & 0xFFFF
??zb_BindDevice_2:
        MOV     ?V0 + 1,#0x2
        MOV     A,#0xa
        LCALL   ?XSTACK_DISP0_8
        MOV     A,#0x2
        MOVX    @DPTR,A
        LCALL   ?XSTACK_DISP0_8
        MOV     A,#-0x1
        MOVX    @DPTR,A
        INC     DPTR
        MOVX    @DPTR,A
        LCALL   ?Subroutine9 & 0xFFFF
??CrossCallReturnLabel_6:
        INC     DPTR
        INC     DPTR
        INC     DPTR
        LCALL   ?PUSH_XSTACK8_X_TWO
        CFI CFA_XSP16 add(XSP16, 25)
        MOV     DPL,R0
        MOV     DPH,R1
        INC     DPTR
        INC     DPTR
        INC     DPTR
        INC     DPTR
        INC     DPTR
        INC     DPTR
        INC     DPTR
        INC     DPTR
        INC     DPTR
        MOVX    A,@DPTR
        MOV     R4,A
        MOV     A,#0x2
        LCALL   ?XSTACK_DISP0_8
        MOV     R2,DPL
        MOV     R3,DPH
        MOV     R1,#0x1
        LCALL   ??ZDO_AnyClusterMatches?relay
        MOV     A,#0x2
        LCALL   ?DEALLOC_XSTACK8
        CFI CFA_XSP16 add(XSP16, 23)
        MOV     A,R1
        JZ      ??zb_BindDevice_3
        ; Setup parameters for call to function ZDP_MatchDescReq
        MOV     ?V0 + 1,#0x0
        MOV     R0,#?V0 + 1
        LCALL   ?PUSH_XSTACK_I_ONE
        CFI CFA_XSP16 add(XSP16, 24)
        CLR     A
        MOV     ?V0 + 2,A
        MOV     ?V0 + 3,A
        MOV     R0,#?V0 + 2
        LCALL   ?PUSH_XSTACK_I_TWO
        CFI CFA_XSP16 add(XSP16, 26)
        MOV     R0,#?V0 + 1
        LCALL   ?PUSH_XSTACK_I_ONE
        CFI CFA_XSP16 add(XSP16, 27)
        MOV     A,#0x4
        LCALL   ?XSTACK_DISP0_8
        MOV     ?V0 + 2,DPL
        MOV     ?V0 + 3,DPH
        MOV     R0,#?V0 + 2
        LCALL   ?PUSH_XSTACK_I_TWO
        CFI CFA_XSP16 add(XSP16, 29)
        LCALL   ?Subroutine13 & 0xFFFF
??CrossCallReturnLabel_11:
        LCALL   ?PUSH_XSTACK8_X_TWO
        CFI CFA_XSP16 add(XSP16, 31)
        MOV     R1,#0x1
        SJMP    ??zb_BindDevice_4
        CFI CFA_XSP16 add(XSP16, 23)
??zb_BindDevice_3:
        LCALL   ?Subroutine9 & 0xFFFF
??CrossCallReturnLabel_7:
        LCALL   ?PUSH_XSTACK8_X_TWO
        CFI CFA_XSP16 add(XSP16, 25)
        MOV     DPL,R0
        MOV     DPH,R1
        INC     DPTR
        INC     DPTR
        INC     DPTR
        INC     DPTR
        INC     DPTR
        INC     DPTR
        MOVX    A,@DPTR
        MOV     R4,A
        MOV     A,#0x2
        LCALL   ?XSTACK_DISP0_8
        MOV     R2,DPL
        MOV     R3,DPH
        MOV     R1,#0x1
        LCALL   ??ZDO_AnyClusterMatches?relay
        MOV     A,#0x2
        LCALL   ?DEALLOC_XSTACK8
        CFI CFA_XSP16 add(XSP16, 23)
        MOV     A,R1
        JNZ     $+5
        LJMP    ??CrossCallReturnLabel_15 & 0xFFFF
        ; Setup parameters for call to function ZDP_MatchDescReq
        MOV     ?V0 + 1,#0x0
        MOV     R0,#?V0 + 1
        LCALL   ?PUSH_XSTACK_I_ONE
        CFI CFA_XSP16 add(XSP16, 24)
        MOV     A,#0x1
        LCALL   ?XSTACK_DISP0_8
        MOV     ?V0 + 2,DPL
        MOV     ?V0 + 3,DPH
        MOV     R0,#?V0 + 2
        LCALL   ?PUSH_XSTACK_I_TWO
        CFI CFA_XSP16 add(XSP16, 26)
        MOV     ?V0 + 1,#0x1
        MOV     R0,#?V0 + 1
        LCALL   ?PUSH_XSTACK_I_ONE
        CFI CFA_XSP16 add(XSP16, 27)
        CLR     A
        MOV     ?V0 + 2,A
        MOV     ?V0 + 3,A
        MOV     R0,#?V0 + 2
        LCALL   ?PUSH_XSTACK_I_TWO
        CFI CFA_XSP16 add(XSP16, 29)
        LCALL   ?Subroutine13 & 0xFFFF
??CrossCallReturnLabel_12:
        LCALL   ?PUSH_XSTACK8_X_TWO
        CFI CFA_XSP16 add(XSP16, 31)
        MOV     R1,#0x0
??zb_BindDevice_4:
        MOV     R4,#-0x1
        MOV     R5,#-0x1
        MOV     A,#0xa
        LCALL   ?XSTACK_DISP0_8
        MOV     R2,DPL
        MOV     R3,DPH
        LCALL   ??ZDP_MatchDescReq?relay
        MOV     A,#0x8
        LCALL   ?DEALLOC_XSTACK8
        CFI CFA_XSP16 add(XSP16, 23)
        MOV     A,R1
        MOV     ?V0 + 1,A
        MOV     A,?V0 + 1
        JZ      $+5
        LJMP    ??CrossCallReturnLabel_15 & 0xFFFF
        ; Setup parameters for call to function osal_start_timerEx
        MOV     DPTR,#zgApsDefaultMaxBindingTime
        MOVX    A,@DPTR
        MOV     R4,A
        INC     DPTR
        MOVX    A,@DPTR
        MOV     R5,A
        MOV     R2,#0x0
        MOV     R3,#0x20
        MOV     DPTR,#sapi_TaskID
        LCALL   ??Subroutine17_0 & 0xFFFF
??CrossCallReturnLabel_18:
        MOV     DPL,?XSP + 0
        MOV     DPH,?XSP + 1
        MOVX    A,@DPTR
        MOV     R0,A
        INC     DPTR
        MOVX    A,@DPTR
        MOV     R1,A
        MOV     DPTR,#sapi_bindInProgress
        MOV     A,R0
        MOVX    @DPTR,A
        INC     DPTR
        MOV     A,R1
        MOVX    @DPTR,A
        SJMP    ??CrossCallReturnLabel_16
//  276   }
//  277   else
//  278   {
//  279     // Remove local bindings for the commandId
//  280     BindingEntry_t *pBind;
//  281 
//  282     // Loop through bindings an remove any that match the cluster
//  283     while ( pBind = bindFind( sapi_epDesc.simpleDesc->EndPoint, commandId, 0 ) )
//  284     {
//  285       bindRemoveEntry(pBind);
??zb_BindDevice_5:
        ; Setup parameters for call to function bindRemoveEntry
        LCALL   ??bindRemoveEntry?relay
//  286     }
??zb_BindDevice_0:
        ; Setup parameters for call to function bindFind
        MOV     R4,#0x0
        MOV     DPL,?XSP + 0
        MOV     DPH,?XSP + 1
        LCALL   ?Subroutine7 & 0xFFFF
??CrossCallReturnLabel_2:
        LCALL   ??bindFind?relay
        MOV     A,R2
        ORL     A,R3
        JNZ     ??zb_BindDevice_5
//  287     osal_start_timerEx( ZDAppTaskID, ZDO_NWK_UPDATE_NV, 250 );
        ; Setup parameters for call to function osal_start_timerEx
        LCALL   ?Subroutine10 & 0xFFFF
//  288   }
??CrossCallReturnLabel_16:
        MOV     A,#0xb
        LCALL   ?DEALLOC_XSTACK8
        CFI EndBlock cfiBlock3
        REQUIRE ?Subroutine1
        ; // Fall through to label ?Subroutine1
//  289   return;
//  290 }

        RSEG BANKED_CODE:CODE:NOROOT(0)
?Subroutine1:
        CFI Block cfiBlock4 Using cfiCommon0
        CFI NoFunction
        CFI CFA_SP SP+0
        CFI CFA_XSP16 add(XSP16, 12)
        CFI VB load(1, XDATA, add(CFA_XSP16, literal(-11)))
        CFI DPL0 load(1, XDATA, add(CFA_XSP16, literal(-2)))
        CFI DPH0 load(1, XDATA, add(CFA_XSP16, literal(-1)))
        CFI R6 load(1, XDATA, add(CFA_XSP16, literal(-12)))
        CFI R7 load(1, XDATA, add(CFA_XSP16, literal(-6)))
        CFI V0 load(1, XDATA, add(CFA_XSP16, literal(-10)))
        CFI V1 load(1, XDATA, add(CFA_XSP16, literal(-9)))
        CFI V2 load(1, XDATA, add(CFA_XSP16, literal(-8)))
        CFI V3 load(1, XDATA, add(CFA_XSP16, literal(-7)))
        CFI ?BRET_EXT load(1, XDATA, add(CFA_XSP16, literal(-3)))
        CFI ?RET_HIGH load(1, XDATA, add(CFA_XSP16, literal(-4)))
        CFI ?RET_LOW load(1, XDATA, add(CFA_XSP16, literal(-5)))
        MOV     R7,#0x4
        LJMP    ?BANKED_LEAVE_XDATA
        CFI EndBlock cfiBlock4

        RSEG BANKED_CODE:CODE:NOROOT(0)
?Subroutine13:
        CFI Block cfiCond5 Using cfiCommon0
        CFI NoFunction
        CFI Conditional ??CrossCallReturnLabel_11
        CFI R6 load(1, XDATA, add(CFA_XSP16, literal(-12)))
        CFI VB load(1, XDATA, add(CFA_XSP16, literal(-11)))
        CFI V0 load(1, XDATA, add(CFA_XSP16, literal(-10)))
        CFI V1 load(1, XDATA, add(CFA_XSP16, literal(-9)))
        CFI V2 load(1, XDATA, add(CFA_XSP16, literal(-8)))
        CFI V3 load(1, XDATA, add(CFA_XSP16, literal(-7)))
        CFI R7 load(1, XDATA, add(CFA_XSP16, literal(-6)))
        CFI ?RET_LOW load(1, XDATA, add(CFA_XSP16, literal(-5)))
        CFI ?RET_HIGH load(1, XDATA, add(CFA_XSP16, literal(-4)))
        CFI ?BRET_EXT load(1, XDATA, add(CFA_XSP16, literal(-3)))
        CFI DPL0 load(1, XDATA, add(CFA_XSP16, literal(-2)))
        CFI DPH0 load(1, XDATA, add(CFA_XSP16, literal(-1)))
        CFI CFA_SP SP+0
        CFI CFA_XSP16 add(XSP16, 29)
        CFI Block cfiCond6 Using cfiCommon0
        CFI (cfiCond6) NoFunction
        CFI (cfiCond6) Conditional ??CrossCallReturnLabel_12
        CFI (cfiCond6) R6 load(1, XDATA, add(CFA_XSP16, literal(-12)))
        CFI (cfiCond6) VB load(1, XDATA, add(CFA_XSP16, literal(-11)))
        CFI (cfiCond6) V0 load(1, XDATA, add(CFA_XSP16, literal(-10)))
        CFI (cfiCond6) V1 load(1, XDATA, add(CFA_XSP16, literal(-9)))
        CFI (cfiCond6) V2 load(1, XDATA, add(CFA_XSP16, literal(-8)))
        CFI (cfiCond6) V3 load(1, XDATA, add(CFA_XSP16, literal(-7)))
        CFI (cfiCond6) R7 load(1, XDATA, add(CFA_XSP16, literal(-6)))
        CFI (cfiCond6) ?RET_LOW load(1, XDATA, add(CFA_XSP16, literal(-5)))
        CFI (cfiCond6) ?RET_HIGH load(1, XDATA, add(CFA_XSP16, literal(-4)))
        CFI (cfiCond6) ?BRET_EXT load(1, XDATA, add(CFA_XSP16, literal(-3)))
        CFI (cfiCond6) DPL0 load(1, XDATA, add(CFA_XSP16, literal(-2)))
        CFI (cfiCond6) DPH0 load(1, XDATA, add(CFA_XSP16, literal(-1)))
        CFI (cfiCond6) CFA_SP SP+0
        CFI (cfiCond6) CFA_XSP16 add(XSP16, 29)
        CFI Block cfiPicker7 Using cfiCommon1
        CFI (cfiPicker7) NoFunction
        CFI (cfiPicker7) Picker
        LCALL   ?Subroutine15 & 0xFFFF
??CrossCallReturnLabel_14:
        INC     DPTR
        RET
        CFI EndBlock cfiCond5
        CFI EndBlock cfiCond6
        CFI EndBlock cfiPicker7

        RSEG BANKED_CODE:CODE:NOROOT(0)
?Subroutine9:
        CFI Block cfiCond8 Using cfiCommon0
        CFI NoFunction
        CFI Conditional ??CrossCallReturnLabel_6
        CFI R6 load(1, XDATA, add(CFA_XSP16, literal(-12)))
        CFI VB load(1, XDATA, add(CFA_XSP16, literal(-11)))
        CFI V0 load(1, XDATA, add(CFA_XSP16, literal(-10)))
        CFI V1 load(1, XDATA, add(CFA_XSP16, literal(-9)))
        CFI V2 load(1, XDATA, add(CFA_XSP16, literal(-8)))
        CFI V3 load(1, XDATA, add(CFA_XSP16, literal(-7)))
        CFI R7 load(1, XDATA, add(CFA_XSP16, literal(-6)))
        CFI ?RET_LOW load(1, XDATA, add(CFA_XSP16, literal(-5)))
        CFI ?RET_HIGH load(1, XDATA, add(CFA_XSP16, literal(-4)))
        CFI ?BRET_EXT load(1, XDATA, add(CFA_XSP16, literal(-3)))
        CFI DPL0 load(1, XDATA, add(CFA_XSP16, literal(-2)))
        CFI DPH0 load(1, XDATA, add(CFA_XSP16, literal(-1)))
        CFI CFA_SP SP+0
        CFI CFA_XSP16 add(XSP16, 23)
        CFI Block cfiCond9 Using cfiCommon0
        CFI (cfiCond9) NoFunction
        CFI (cfiCond9) Conditional ??CrossCallReturnLabel_7
        CFI (cfiCond9) R6 load(1, XDATA, add(CFA_XSP16, literal(-12)))
        CFI (cfiCond9) VB load(1, XDATA, add(CFA_XSP16, literal(-11)))
        CFI (cfiCond9) V0 load(1, XDATA, add(CFA_XSP16, literal(-10)))
        CFI (cfiCond9) V1 load(1, XDATA, add(CFA_XSP16, literal(-9)))
        CFI (cfiCond9) V2 load(1, XDATA, add(CFA_XSP16, literal(-8)))
        CFI (cfiCond9) V3 load(1, XDATA, add(CFA_XSP16, literal(-7)))
        CFI (cfiCond9) R7 load(1, XDATA, add(CFA_XSP16, literal(-6)))
        CFI (cfiCond9) ?RET_LOW load(1, XDATA, add(CFA_XSP16, literal(-5)))
        CFI (cfiCond9) ?RET_HIGH load(1, XDATA, add(CFA_XSP16, literal(-4)))
        CFI (cfiCond9) ?BRET_EXT load(1, XDATA, add(CFA_XSP16, literal(-3)))
        CFI (cfiCond9) DPL0 load(1, XDATA, add(CFA_XSP16, literal(-2)))
        CFI (cfiCond9) DPH0 load(1, XDATA, add(CFA_XSP16, literal(-1)))
        CFI (cfiCond9) CFA_SP SP+0
        CFI (cfiCond9) CFA_XSP16 add(XSP16, 23)
        CFI Block cfiPicker10 Using cfiCommon1
        CFI (cfiPicker10) NoFunction
        CFI (cfiPicker10) Picker
        MOV     DPTR,#sapi_epDesc + 3
        MOVX    A,@DPTR
        MOV     R0,A
        INC     DPTR
        MOVX    A,@DPTR
        MOV     R1,A
        ; Setup parameters for call to function ZDO_AnyClusterMatches
        ; Setup parameters for call to function ZDO_AnyClusterMatches
        MOV     DPL,R0
        MOV     DPH,R1
        INC     DPTR
        INC     DPTR
        INC     DPTR
        INC     DPTR
        INC     DPTR
        INC     DPTR
        INC     DPTR
        RET
        CFI EndBlock cfiCond8
        CFI EndBlock cfiCond9
        CFI EndBlock cfiPicker10
//  291 /******************************************************************************
//  292  * @fn          zb_PermitJoiningRequest
//  293  *
//  294  * @brief       The zb_PermitJoiningRequest function is used to control the
//  295  *              joining permissions and thus allow or disallow new devices from
//  296  *              joining the network.
//  297  *
//  298  * @param       destination - The destination parameter indicates the address
//  299  *                            of the device for which the joining permissions
//  300  *                            should be set. This is usually the local device
//  301  *                            address or the special broadcast address that denotes
//  302  *                            all routers and coordinator ( 0xFFFC ). This way
//  303  *                            the joining permissions of a single device or the
//  304  *                            whole network can be controlled.
//  305  *              timeout -  Indicates the amount of time in seconds for which
//  306  *                         the joining permissions should be turned on.
//  307  *                         If timeout is set to 0x00, the device will turn off the
//  308  *                         joining permissions indefinitely. If it is set to 0xFF,
//  309  *                         the joining permissions will be turned on indefinitely.
//  310  *
//  311  *
//  312  * @return      ZB_SUCCESS or a failure code
//  313  *
//  314  */
//  315 

        RSEG BANKED_CODE:CODE:NOROOT(0)
//  316 uint8 zb_PermitJoiningRequest ( uint16 destination, uint8 timeout )
zb_PermitJoiningRequest:
        CFI Block cfiBlock11 Using cfiCommon0
        CFI Function zb_PermitJoiningRequest
        CODE
//  317 {
        ; Saved register size: 0
        ; Auto size: 0
//  318 #if defined( ZDO_MGMT_PERMIT_JOIN_REQUEST )
//  319   zAddrType_t dstAddr;
//  320 
//  321   dstAddr.addrMode = Addr16Bit;
//  322   dstAddr.addr.shortAddr = destination;
//  323 
//  324   return( (uint8) ZDP_MgmtPermitJoinReq( &dstAddr, timeout, 0, 0 ) );
//  325 #else
//  326   (void)destination;
//  327   (void)timeout;
//  328   return ZUnsupportedMode;
        MOV     R1,#0x12
        LJMP    ?BRET
        CFI EndBlock cfiBlock11
//  329 #endif
//  330 }
//  331 /******************************************************************************
//  332  * @fn          zb_AllowBind
//  333  *
//  334  * @brief       The zb_AllowBind function puts the device into the
//  335  *              Allow Binding Mode for a given period of time.  A peer device
//  336  *              can establish a binding to a device in the Allow Binding Mode
//  337  *              by calling zb_BindDevice with a destination address of NULL
//  338  *
//  339  * @param       timeout - The number of seconds to remain in the allow binding
//  340  *                        mode.  Valid values range from 1 through 65.
//  341  *                        If 0, the Allow Bind mode will be set false without TO
//  342  *                        If greater than 64, the Allow Bind mode will be true
//  343  *
//  344  * @return      ZB_SUCCESS if the device entered the allow bind mode, else
//  345  *              an error code.
//  346  */

        RSEG BANKED_CODE:CODE:NOROOT(0)
//  347 void zb_AllowBind ( uint8 timeout )
zb_AllowBind:
        CFI Block cfiBlock12 Using cfiCommon0
        CFI Function zb_AllowBind
        CODE
//  348 {
        FUNCALL zb_AllowBind, osal_stop_timerEx
        LOCFRAME ISTACK, 0, STACK
        LOCFRAME PSTACK, 0, STACK
        LOCFRAME XSTACK, 9, STACK
        LOCFRAME IOVERLAY, 0, STATIC
        LOCFRAME DOVERLAY, 0, STATIC
        ARGFRAME ISTACK, 0, STACK
        ARGFRAME PSTACK, 0, STACK
        ARGFRAME XSTACK, 9, STACK
        ARGFRAME IOVERLAY, 0, STATIC
        ARGFRAME DOVERLAY, 0, STATIC
        FUNCALL zb_AllowBind, afSetMatch
        LOCFRAME ISTACK, 0, STACK
        LOCFRAME PSTACK, 0, STACK
        LOCFRAME XSTACK, 9, STACK
        LOCFRAME IOVERLAY, 0, STATIC
        LOCFRAME DOVERLAY, 0, STATIC
        ARGFRAME ISTACK, 0, STACK
        ARGFRAME PSTACK, 0, STACK
        ARGFRAME XSTACK, 9, STACK
        ARGFRAME IOVERLAY, 0, STATIC
        ARGFRAME DOVERLAY, 0, STATIC
        FUNCALL zb_AllowBind, afSetMatch
        LOCFRAME ISTACK, 0, STACK
        LOCFRAME PSTACK, 0, STACK
        LOCFRAME XSTACK, 9, STACK
        LOCFRAME IOVERLAY, 0, STATIC
        LOCFRAME DOVERLAY, 0, STATIC
        ARGFRAME ISTACK, 0, STACK
        ARGFRAME PSTACK, 0, STACK
        ARGFRAME XSTACK, 9, STACK
        ARGFRAME IOVERLAY, 0, STATIC
        ARGFRAME DOVERLAY, 0, STATIC
        FUNCALL zb_AllowBind, osal_start_timerEx
        LOCFRAME ISTACK, 0, STACK
        LOCFRAME PSTACK, 0, STACK
        LOCFRAME XSTACK, 9, STACK
        LOCFRAME IOVERLAY, 0, STATIC
        LOCFRAME DOVERLAY, 0, STATIC
        ARGFRAME ISTACK, 0, STACK
        ARGFRAME PSTACK, 0, STACK
        ARGFRAME XSTACK, 9, STACK
        ARGFRAME IOVERLAY, 0, STATIC
        ARGFRAME DOVERLAY, 0, STATIC
        MOV     A,#-0x9
        LCALL   ?BANKED_ENTER_XDATA
        CFI DPH0 load(1, XDATA, add(CFA_XSP16, literal(-1)))
        CFI DPL0 load(1, XDATA, add(CFA_XSP16, literal(-2)))
        CFI ?BRET_EXT load(1, XDATA, add(CFA_XSP16, literal(-3)))
        CFI ?RET_HIGH load(1, XDATA, add(CFA_XSP16, literal(-4)))
        CFI ?RET_LOW load(1, XDATA, add(CFA_XSP16, literal(-5)))
        CFI R7 load(1, XDATA, add(CFA_XSP16, literal(-6)))
        CFI V0 load(1, XDATA, add(CFA_XSP16, literal(-7)))
        CFI VB load(1, XDATA, add(CFA_XSP16, literal(-8)))
        CFI R6 load(1, XDATA, add(CFA_XSP16, literal(-9)))
        CFI CFA_SP SP+0
        CFI CFA_XSP16 add(XSP16, 9)
        ; Saved register size: 9
        ; Auto size: 0
        MOV     A,R1
        MOV     R6,A
//  349 
//  350   osal_stop_timerEx(sapi_TaskID, ZB_ALLOW_BIND_TIMER);
        ; Setup parameters for call to function osal_stop_timerEx
        MOV     R2,#0x0
        MOV     R3,#0x40
        MOV     DPTR,#sapi_TaskID
        MOVX    A,@DPTR
        MOV     R1,A
        LCALL   ??osal_stop_timerEx?relay
//  351 
//  352   if ( timeout == 0 )
        MOV     A,R6
        JNZ     ??zb_AllowBind_0
//  353   {
//  354     afSetMatch(sapi_epDesc.simpleDesc->EndPoint, FALSE);
        ; Setup parameters for call to function afSetMatch
        LCALL   ?Subroutine6 & 0xFFFF
//  355   }
??CrossCallReturnLabel_20:
        SJMP    ??CrossCallReturnLabel_19
//  356   else
//  357   {
//  358     afSetMatch(sapi_epDesc.simpleDesc->EndPoint, TRUE);
??zb_AllowBind_0:
        ; Setup parameters for call to function afSetMatch
        MOV     R2,#0x1
        LCALL   ??Subroutine18_0 & 0xFFFF
//  359     if ( timeout != 0xFF )
??CrossCallReturnLabel_23:
        MOV     A,#-0x1
        XRL     A,R6
        JZ      ??CrossCallReturnLabel_19
//  360     {
//  361       if ( timeout > 64 )
        MOV     A,R6
        CLR     C
        SUBB    A,#0x41
        JC      ??zb_AllowBind_1
//  362       {
//  363         timeout = 64;
        MOV     R6,#0x40
//  364       }
//  365       osal_start_timerEx(sapi_TaskID, ZB_ALLOW_BIND_TIMER, timeout*1000);
??zb_AllowBind_1:
        ; Setup parameters for call to function osal_start_timerEx
        MOV     A,R6
        MOV     R4,A
        MOV     B,#-0x18
        MUL     AB
        XCH     A,R4
        MOV     R0,B
        MOV     B,#0x3
        MUL     AB
        ADD     A,R0
        MOV     R5,A
        MOV     R2,#0x0
        MOV     R3,#0x40
        MOV     DPTR,#sapi_TaskID
        LCALL   ??Subroutine17_0 & 0xFFFF
        CFI EndBlock cfiBlock12
//  366     }
//  367   }
//  368   return;
??CrossCallReturnLabel_19:
        REQUIRE ?Subroutine2
        ; // Fall through to label ?Subroutine2
//  369 }

        RSEG BANKED_CODE:CODE:NOROOT(0)
?Subroutine2:
        CFI Block cfiBlock13 Using cfiCommon0
        CFI NoFunction
        CFI CFA_SP SP+0
        CFI CFA_XSP16 add(XSP16, 9)
        CFI VB load(1, XDATA, add(CFA_XSP16, literal(-8)))
        CFI DPL0 load(1, XDATA, add(CFA_XSP16, literal(-2)))
        CFI DPH0 load(1, XDATA, add(CFA_XSP16, literal(-1)))
        CFI R6 load(1, XDATA, add(CFA_XSP16, literal(-9)))
        CFI R7 load(1, XDATA, add(CFA_XSP16, literal(-6)))
        CFI V0 load(1, XDATA, add(CFA_XSP16, literal(-7)))
        CFI ?BRET_EXT load(1, XDATA, add(CFA_XSP16, literal(-3)))
        CFI ?RET_HIGH load(1, XDATA, add(CFA_XSP16, literal(-4)))
        CFI ?RET_LOW load(1, XDATA, add(CFA_XSP16, literal(-5)))
        MOV     R7,#0x1
        LJMP    ?BANKED_LEAVE_XDATA
        CFI EndBlock cfiBlock13

        RSEG BANKED_CODE:CODE:NOROOT(0)
?Subroutine10:
        CFI Block cfiCond14 Using cfiCommon0
        CFI NoFunction
        CFI Conditional ??CrossCallReturnLabel_15
        CFI R6 load(1, XDATA, add(CFA_XSP16, literal(-12)))
        CFI VB load(1, XDATA, add(CFA_XSP16, literal(-11)))
        CFI V0 load(1, XDATA, add(CFA_XSP16, literal(-10)))
        CFI V1 load(1, XDATA, add(CFA_XSP16, literal(-9)))
        CFI V2 load(1, XDATA, add(CFA_XSP16, literal(-8)))
        CFI V3 load(1, XDATA, add(CFA_XSP16, literal(-7)))
        CFI R7 load(1, XDATA, add(CFA_XSP16, literal(-6)))
        CFI ?RET_LOW load(1, XDATA, add(CFA_XSP16, literal(-5)))
        CFI ?RET_HIGH load(1, XDATA, add(CFA_XSP16, literal(-4)))
        CFI ?BRET_EXT load(1, XDATA, add(CFA_XSP16, literal(-3)))
        CFI DPL0 load(1, XDATA, add(CFA_XSP16, literal(-2)))
        CFI DPH0 load(1, XDATA, add(CFA_XSP16, literal(-1)))
        CFI CFA_SP SP+0
        CFI CFA_XSP16 add(XSP16, 23)
        CFI Block cfiCond15 Using cfiCommon0
        CFI (cfiCond15) NoFunction
        CFI (cfiCond15) Conditional ??CrossCallReturnLabel_16
        CFI (cfiCond15) R6 load(1, XDATA, add(CFA_XSP16, literal(-12)))
        CFI (cfiCond15) VB load(1, XDATA, add(CFA_XSP16, literal(-11)))
        CFI (cfiCond15) V0 load(1, XDATA, add(CFA_XSP16, literal(-10)))
        CFI (cfiCond15) V1 load(1, XDATA, add(CFA_XSP16, literal(-9)))
        CFI (cfiCond15) V2 load(1, XDATA, add(CFA_XSP16, literal(-8)))
        CFI (cfiCond15) V3 load(1, XDATA, add(CFA_XSP16, literal(-7)))
        CFI (cfiCond15) R7 load(1, XDATA, add(CFA_XSP16, literal(-6)))
        CFI (cfiCond15) ?RET_LOW load(1, XDATA, add(CFA_XSP16, literal(-5)))
        CFI (cfiCond15) ?RET_HIGH load(1, XDATA, add(CFA_XSP16, literal(-4)))
        CFI (cfiCond15) ?BRET_EXT load(1, XDATA, add(CFA_XSP16, literal(-3)))
        CFI (cfiCond15) DPL0 load(1, XDATA, add(CFA_XSP16, literal(-2)))
        CFI (cfiCond15) DPH0 load(1, XDATA, add(CFA_XSP16, literal(-1)))
        CFI (cfiCond15) CFA_SP SP+0
        CFI (cfiCond15) CFA_XSP16 add(XSP16, 23)
        CFI Block cfiCond16 Using cfiCommon0
        CFI (cfiCond16) NoFunction
        CFI (cfiCond16) Conditional ??CrossCallReturnLabel_17
        CFI (cfiCond16) R6 load(1, XDATA, add(CFA_XSP16, literal(-10)))
        CFI (cfiCond16) VB load(1, XDATA, add(CFA_XSP16, literal(-9)))
        CFI (cfiCond16) V0 load(1, XDATA, add(CFA_XSP16, literal(-8)))
        CFI (cfiCond16) V1 load(1, XDATA, add(CFA_XSP16, literal(-7)))
        CFI (cfiCond16) R7 load(1, XDATA, add(CFA_XSP16, literal(-6)))
        CFI (cfiCond16) ?RET_LOW load(1, XDATA, add(CFA_XSP16, literal(-5)))
        CFI (cfiCond16) ?RET_HIGH load(1, XDATA, add(CFA_XSP16, literal(-4)))
        CFI (cfiCond16) ?BRET_EXT load(1, XDATA, add(CFA_XSP16, literal(-3)))
        CFI (cfiCond16) DPL0 load(1, XDATA, add(CFA_XSP16, literal(-2)))
        CFI (cfiCond16) DPH0 load(1, XDATA, add(CFA_XSP16, literal(-1)))
        CFI (cfiCond16) CFA_SP SP+0
        CFI (cfiCond16) CFA_XSP16 add(XSP16, 19)
        CFI Block cfiPicker17 Using cfiCommon1
        CFI (cfiPicker17) NoFunction
        CFI (cfiPicker17) Picker
        MOV     R4,#-0x6
        MOV     R5,#0x0
        MOV     R2,#0x0
        MOV     R3,#0x2
        MOV     DPTR,#ZDAppTaskID
        CFI EndBlock cfiCond14
        CFI EndBlock cfiCond15
        CFI EndBlock cfiCond16
        CFI EndBlock cfiPicker17
        REQUIRE ??Subroutine17_0
        ; // Fall through to label ??Subroutine17_0

        RSEG BANKED_CODE:CODE:NOROOT(0)
??Subroutine17_0:
        CFI Block cfiCond18 Using cfiCommon0
        CFI NoFunction
        CFI Conditional ??CrossCallReturnLabel_18
        CFI R6 load(1, XDATA, add(CFA_XSP16, literal(-12)))
        CFI VB load(1, XDATA, add(CFA_XSP16, literal(-11)))
        CFI V0 load(1, XDATA, add(CFA_XSP16, literal(-10)))
        CFI V1 load(1, XDATA, add(CFA_XSP16, literal(-9)))
        CFI V2 load(1, XDATA, add(CFA_XSP16, literal(-8)))
        CFI V3 load(1, XDATA, add(CFA_XSP16, literal(-7)))
        CFI R7 load(1, XDATA, add(CFA_XSP16, literal(-6)))
        CFI ?RET_LOW load(1, XDATA, add(CFA_XSP16, literal(-5)))
        CFI ?RET_HIGH load(1, XDATA, add(CFA_XSP16, literal(-4)))
        CFI ?BRET_EXT load(1, XDATA, add(CFA_XSP16, literal(-3)))
        CFI DPL0 load(1, XDATA, add(CFA_XSP16, literal(-2)))
        CFI DPH0 load(1, XDATA, add(CFA_XSP16, literal(-1)))
        CFI CFA_SP SP+0
        CFI CFA_XSP16 add(XSP16, 23)
        CFI Block cfiCond19 Using cfiCommon0
        CFI (cfiCond19) NoFunction
        CFI (cfiCond19) Conditional ??CrossCallReturnLabel_19
        CFI (cfiCond19) R6 load(1, XDATA, add(CFA_XSP16, literal(-9)))
        CFI (cfiCond19) VB load(1, XDATA, add(CFA_XSP16, literal(-8)))
        CFI (cfiCond19) V0 load(1, XDATA, add(CFA_XSP16, literal(-7)))
        CFI (cfiCond19) R7 load(1, XDATA, add(CFA_XSP16, literal(-6)))
        CFI (cfiCond19) ?RET_LOW load(1, XDATA, add(CFA_XSP16, literal(-5)))
        CFI (cfiCond19) ?RET_HIGH load(1, XDATA, add(CFA_XSP16, literal(-4)))
        CFI (cfiCond19) ?BRET_EXT load(1, XDATA, add(CFA_XSP16, literal(-3)))
        CFI (cfiCond19) DPL0 load(1, XDATA, add(CFA_XSP16, literal(-2)))
        CFI (cfiCond19) DPH0 load(1, XDATA, add(CFA_XSP16, literal(-1)))
        CFI (cfiCond19) CFA_SP SP+0
        CFI (cfiCond19) CFA_XSP16 add(XSP16, 9)
        CFI Block cfiCond20 Using cfiCommon0
        CFI (cfiCond20) NoFunction
        CFI (cfiCond20) Conditional ??CrossCallReturnLabel_15
        CFI (cfiCond20) R6 load(1, XDATA, add(CFA_XSP16, literal(-12)))
        CFI (cfiCond20) VB load(1, XDATA, add(CFA_XSP16, literal(-11)))
        CFI (cfiCond20) V0 load(1, XDATA, add(CFA_XSP16, literal(-10)))
        CFI (cfiCond20) V1 load(1, XDATA, add(CFA_XSP16, literal(-9)))
        CFI (cfiCond20) V2 load(1, XDATA, add(CFA_XSP16, literal(-8)))
        CFI (cfiCond20) V3 load(1, XDATA, add(CFA_XSP16, literal(-7)))
        CFI (cfiCond20) R7 load(1, XDATA, add(CFA_XSP16, literal(-6)))
        CFI (cfiCond20) ?RET_LOW load(1, XDATA, add(CFA_XSP16, literal(-5)))
        CFI (cfiCond20) ?RET_HIGH load(1, XDATA, add(CFA_XSP16, literal(-4)))
        CFI (cfiCond20) ?BRET_EXT load(1, XDATA, add(CFA_XSP16, literal(-3)))
        CFI (cfiCond20) DPL0 load(1, XDATA, add(CFA_XSP16, literal(-2)))
        CFI (cfiCond20) DPH0 load(1, XDATA, add(CFA_XSP16, literal(-1)))
        CFI (cfiCond20) CFA_SP SP+0
        CFI (cfiCond20) CFA_XSP16 add(XSP16, 23)
        CFI Block cfiCond21 Using cfiCommon0
        CFI (cfiCond21) NoFunction
        CFI (cfiCond21) Conditional ??CrossCallReturnLabel_16
        CFI (cfiCond21) R6 load(1, XDATA, add(CFA_XSP16, literal(-12)))
        CFI (cfiCond21) VB load(1, XDATA, add(CFA_XSP16, literal(-11)))
        CFI (cfiCond21) V0 load(1, XDATA, add(CFA_XSP16, literal(-10)))
        CFI (cfiCond21) V1 load(1, XDATA, add(CFA_XSP16, literal(-9)))
        CFI (cfiCond21) V2 load(1, XDATA, add(CFA_XSP16, literal(-8)))
        CFI (cfiCond21) V3 load(1, XDATA, add(CFA_XSP16, literal(-7)))
        CFI (cfiCond21) R7 load(1, XDATA, add(CFA_XSP16, literal(-6)))
        CFI (cfiCond21) ?RET_LOW load(1, XDATA, add(CFA_XSP16, literal(-5)))
        CFI (cfiCond21) ?RET_HIGH load(1, XDATA, add(CFA_XSP16, literal(-4)))
        CFI (cfiCond21) ?BRET_EXT load(1, XDATA, add(CFA_XSP16, literal(-3)))
        CFI (cfiCond21) DPL0 load(1, XDATA, add(CFA_XSP16, literal(-2)))
        CFI (cfiCond21) DPH0 load(1, XDATA, add(CFA_XSP16, literal(-1)))
        CFI (cfiCond21) CFA_SP SP+0
        CFI (cfiCond21) CFA_XSP16 add(XSP16, 23)
        CFI Block cfiCond22 Using cfiCommon0
        CFI (cfiCond22) NoFunction
        CFI (cfiCond22) Conditional ??CrossCallReturnLabel_17
        CFI (cfiCond22) R6 load(1, XDATA, add(CFA_XSP16, literal(-10)))
        CFI (cfiCond22) VB load(1, XDATA, add(CFA_XSP16, literal(-9)))
        CFI (cfiCond22) V0 load(1, XDATA, add(CFA_XSP16, literal(-8)))
        CFI (cfiCond22) V1 load(1, XDATA, add(CFA_XSP16, literal(-7)))
        CFI (cfiCond22) R7 load(1, XDATA, add(CFA_XSP16, literal(-6)))
        CFI (cfiCond22) ?RET_LOW load(1, XDATA, add(CFA_XSP16, literal(-5)))
        CFI (cfiCond22) ?RET_HIGH load(1, XDATA, add(CFA_XSP16, literal(-4)))
        CFI (cfiCond22) ?BRET_EXT load(1, XDATA, add(CFA_XSP16, literal(-3)))
        CFI (cfiCond22) DPL0 load(1, XDATA, add(CFA_XSP16, literal(-2)))
        CFI (cfiCond22) DPH0 load(1, XDATA, add(CFA_XSP16, literal(-1)))
        CFI (cfiCond22) CFA_SP SP+0
        CFI (cfiCond22) CFA_XSP16 add(XSP16, 19)
        CFI Block cfiPicker23 Using cfiCommon1
        CFI (cfiPicker23) NoFunction
        CFI (cfiPicker23) Picker
        MOVX    A,@DPTR
        MOV     R1,A
        LCALL   ??osal_start_timerEx?relay
        RET
        CFI EndBlock cfiCond18
        CFI EndBlock cfiCond19
        CFI EndBlock cfiCond20
        CFI EndBlock cfiCond21
        CFI EndBlock cfiCond22
        CFI EndBlock cfiPicker23
//  370 /******************************************************************************
//  371  * @fn          zb_SendDataRequest
//  372  *
//  373  * @brief       The zb_SendDataRequest function initiates transmission of data
//  374  *              to a peer device
//  375  *
//  376  * @param       destination - The destination of the data.  The destination can
//  377  *                            be one of the following:
//  378  *                            - 16-Bit short address of device [0-0xfffD]
//  379  *                            - ZB_BROADCAST_ADDR sends the data to all devices
//  380  *                              in the network.
//  381  *                            - ZB_BINDING_ADDR sends the data to a previously
//  382  *                              bound device.
//  383  *
//  384  *              commandId - The command ID to send with the message.  If the
//  385  *                          ZB_BINDING_ADDR destination is used, this parameter
//  386  *                          also indicates the binding to use.
//  387  *
//  388  *              len - The size of the pData buffer in bytes
//  389  *              handle - A handle used to identify the send data request.
//  390  *              txOptions - TRUE if requesting acknowledgement from the destination.
//  391  *              radius - The max number of hops the packet can travel through
//  392  *                       before it is dropped.
//  393  *
//  394  * @return      none
//  395  */

        RSEG BANKED_CODE:CODE:NOROOT(0)
//  396 void zb_SendDataRequest ( uint16 destination, uint16 commandId, uint8 len,
zb_SendDataRequest:
        CFI Block cfiBlock24 Using cfiCommon0
        CFI Function zb_SendDataRequest
        CODE
//  397                           uint8 *pData, uint8 handle, uint8 txOptions, uint8 radius )
//  398 {
        FUNCALL zb_SendDataRequest, NLME_IsAddressBroadcast
        LOCFRAME ISTACK, 0, STACK
        LOCFRAME PSTACK, 0, STACK
        LOCFRAME XSTACK, 26, STACK
        LOCFRAME IOVERLAY, 0, STATIC
        LOCFRAME DOVERLAY, 0, STATIC
        ARGFRAME ISTACK, 0, STACK
        ARGFRAME PSTACK, 0, STACK
        ARGFRAME XSTACK, 26, STACK
        ARGFRAME IOVERLAY, 0, STATIC
        ARGFRAME DOVERLAY, 0, STATIC
        FUNCALL zb_SendDataRequest, AF_DataRequest
        LOCFRAME ISTACK, 0, STACK
        LOCFRAME PSTACK, 0, STACK
        LOCFRAME XSTACK, 35, STACK
        LOCFRAME IOVERLAY, 0, STATIC
        LOCFRAME DOVERLAY, 0, STATIC
        ARGFRAME ISTACK, 0, STACK
        ARGFRAME PSTACK, 0, STACK
        ARGFRAME XSTACK, 35, STACK
        ARGFRAME IOVERLAY, 0, STATIC
        ARGFRAME DOVERLAY, 0, STATIC
        FUNCALL zb_SendDataRequest, SAPI_SendCback
        LOCFRAME ISTACK, 0, STACK
        LOCFRAME PSTACK, 0, STACK
        LOCFRAME XSTACK, 26, STACK
        LOCFRAME IOVERLAY, 0, STATIC
        LOCFRAME DOVERLAY, 0, STATIC
        ARGFRAME ISTACK, 0, STACK
        ARGFRAME PSTACK, 0, STACK
        ARGFRAME XSTACK, 26, STACK
        ARGFRAME IOVERLAY, 0, STATIC
        ARGFRAME DOVERLAY, 0, STATIC
        MOV     A,#-0xe
        LCALL   ?BANKED_ENTER_XDATA
        CFI DPH0 load(1, XDATA, add(CFA_XSP16, literal(-1)))
        CFI DPL0 load(1, XDATA, add(CFA_XSP16, literal(-2)))
        CFI ?BRET_EXT load(1, XDATA, add(CFA_XSP16, literal(-3)))
        CFI ?RET_HIGH load(1, XDATA, add(CFA_XSP16, literal(-4)))
        CFI ?RET_LOW load(1, XDATA, add(CFA_XSP16, literal(-5)))
        CFI R7 load(1, XDATA, add(CFA_XSP16, literal(-6)))
        CFI V5 load(1, XDATA, add(CFA_XSP16, literal(-7)))
        CFI V4 load(1, XDATA, add(CFA_XSP16, literal(-8)))
        CFI V3 load(1, XDATA, add(CFA_XSP16, literal(-9)))
        CFI V2 load(1, XDATA, add(CFA_XSP16, literal(-10)))
        CFI V1 load(1, XDATA, add(CFA_XSP16, literal(-11)))
        CFI V0 load(1, XDATA, add(CFA_XSP16, literal(-12)))
        CFI VB load(1, XDATA, add(CFA_XSP16, literal(-13)))
        CFI R6 load(1, XDATA, add(CFA_XSP16, literal(-14)))
        CFI CFA_SP SP+0
        CFI CFA_XSP16 add(XSP16, 14)
        ; Saved register size: 14
        ; Auto size: 12
        MOV     A,#-0xc
        LCALL   ?ALLOC_XSTACK8
        CFI CFA_XSP16 add(XSP16, 26)
        MOV     ?V0 + 2,R4
        MOV     ?V0 + 3,R5
        MOV     A,R1
        MOV     R7,A
        MOV     A,#0x1a
        LCALL   ?XSTACK_DISP0_8
        MOVX    A,@DPTR
        MOV     ?V0 + 4,A
        INC     DPTR
        MOVX    A,@DPTR
        MOV     ?V0 + 5,A
        MOV     A,#0x1d
        LCALL   ?XSTACK_DISP0_8
        MOVX    A,@DPTR
        MOV     R6,A
        MOV     A,#0x1e
        LCALL   ?XSTACK_DISP0_8
        MOVX    A,@DPTR
        MOV     ?V0 + 0,A
//  399   afStatus_t status;
//  400   afAddrType_t dstAddr;
//  401 
//  402   txOptions |= AF_DISCV_ROUTE;
        MOV     A,R6
        SETB    0xE0 /* A   */.5
        MOV     R6,A
//  403 
//  404   // Set the destination address
//  405   if (destination == ZB_BINDING_ADDR)
        MOV     A,#-0x2
        XRL     A,R2
        JNZ     ??zb_SendDataRequest_0
        MOV     A,#-0x1
        XRL     A,R3
??zb_SendDataRequest_0:
        JNZ     ??zb_SendDataRequest_1
//  406   {
//  407     // Binding
//  408     dstAddr.addrMode = afAddrNotPresent;
        MOV     A,#0x8
        LCALL   ?XSTACK_DISP0_8
        CLR     A
        MOVX    @DPTR,A
        SJMP    ??zb_SendDataRequest_2
//  409   }
//  410   else
//  411   {
//  412     // Use short address
//  413     dstAddr.addr.shortAddr = destination;
??zb_SendDataRequest_1:
        MOV     DPL,?XSP + 0
        MOV     DPH,?XSP + 1
        MOV     A,R2
        MOVX    @DPTR,A
        INC     DPTR
        MOV     A,R3
        MOVX    @DPTR,A
//  414     dstAddr.addrMode = afAddr16Bit;
        MOV     A,#0x8
        LCALL   ?XSTACK_DISP0_8
        MOV     A,#0x2
        MOVX    @DPTR,A
//  415 
//  416     if ( ADDR_NOT_BCAST != NLME_IsAddressBroadcast( destination ) )
        ; Setup parameters for call to function NLME_IsAddressBroadcast
        LCALL   ??NLME_IsAddressBroadcast?relay
        MOV     A,R1
        JZ      ??zb_SendDataRequest_2
//  417     {
//  418       txOptions &= ~AF_ACK_REQUEST;
        MOV     A,R6
        CLR     0xE0 /* A   */.4
        MOV     R6,A
//  419     }
//  420   }
//  421 
//  422   dstAddr.panId = 0;                                    // Not an inter-pan message.
??zb_SendDataRequest_2:
        MOV     A,#0xa
        LCALL   ?XSTACK_DISP0_8
        CLR     A
        MOVX    @DPTR,A
        INC     DPTR
        MOVX    @DPTR,A
//  423   dstAddr.endPoint = sapi_epDesc.simpleDesc->EndPoint;  // Set the endpoint.
        LCALL   ?Subroutine15 & 0xFFFF
??CrossCallReturnLabel_13:
        MOVX    A,@DPTR
        PUSH    A
        CFI CFA_SP SP+-1
        MOV     A,#0x9
        LCALL   ?XSTACK_DISP0_8
        POP     A
        CFI CFA_SP SP+0
        MOVX    @DPTR,A
//  424 
//  425   // Send the message
//  426   status = AF_DataRequest(&dstAddr, &sapi_epDesc, commandId, len,
//  427                           pData, &handle, txOptions, radius);
        ; Setup parameters for call to function AF_DataRequest
        MOV     R0,#?V0 + 0
        LCALL   ?PUSH_XSTACK_I_ONE
        CFI CFA_XSP16 add(XSP16, 27)
        MOV     A,#0x1d
        LCALL   ?XSTACK_DISP0_8
        MOV     ?V0 + 0,DPL
        MOV     ?V0 + 1,DPH
        MOV     R0,#?V0 + 0
        LCALL   ?PUSH_XSTACK_I_TWO
        CFI CFA_XSP16 add(XSP16, 29)
        MOV     R0,#?V0 + 4
        LCALL   ?PUSH_XSTACK_I_TWO
        CFI CFA_XSP16 add(XSP16, 31)
        MOV     ?V0 + 0,R7
        MOV     ?V0 + 1,#0x0
        MOV     R0,#?V0 + 0
        LCALL   ?PUSH_XSTACK_I_TWO
        CFI CFA_XSP16 add(XSP16, 33)
        MOV     R0,#?V0 + 2
        LCALL   ?PUSH_XSTACK_I_TWO
        CFI CFA_XSP16 add(XSP16, 35)
        MOV     A,R6
        MOV     R1,A
        MOV     R4,#sapi_epDesc & 0xff
        MOV     R5,#(sapi_epDesc >> 8) & 0xff
        MOV     A,#0x9
        LCALL   ?XSTACK_DISP0_8
        MOV     R2,DPL
        MOV     R3,DPH
        LCALL   ??AF_DataRequest?relay
        MOV     A,#0x9
        LCALL   ?DEALLOC_XSTACK8
        CFI CFA_XSP16 add(XSP16, 26)
        MOV     A,R1
        MOV     R2,A
//  428 
//  429   if (status != afStatus_SUCCESS)
        JZ      ??zb_SendDataRequest_3
//  430   {
//  431     SAPI_SendCback( SAPICB_DATA_CNF, status, handle );
        ; Setup parameters for call to function SAPI_SendCback
        MOV     A,#0x1c
        LCALL   ?XSTACK_DISP0_8
        MOVX    A,@DPTR
        MOV     R4,A
        MOV     R5,#0x0
        MOV     R1,#-0x20
        LCALL   ??SAPI_SendCback?relay
//  432   }
//  433 }
??zb_SendDataRequest_3:
        MOV     A,#0xc
        CFI EndBlock cfiBlock24
        REQUIRE ?Subroutine3
        ; // Fall through to label ?Subroutine3

        RSEG BANKED_CODE:CODE:NOROOT(0)
?Subroutine3:
        CFI Block cfiBlock25 Using cfiCommon0
        CFI NoFunction
        CFI CFA_SP SP+0
        CFI CFA_XSP16 add(XSP16, 26)
        CFI VB load(1, XDATA, add(CFA_XSP16, literal(-13)))
        CFI DPL0 load(1, XDATA, add(CFA_XSP16, literal(-2)))
        CFI DPH0 load(1, XDATA, add(CFA_XSP16, literal(-1)))
        CFI R6 load(1, XDATA, add(CFA_XSP16, literal(-14)))
        CFI R7 load(1, XDATA, add(CFA_XSP16, literal(-6)))
        CFI V0 load(1, XDATA, add(CFA_XSP16, literal(-12)))
        CFI V1 load(1, XDATA, add(CFA_XSP16, literal(-11)))
        CFI V2 load(1, XDATA, add(CFA_XSP16, literal(-10)))
        CFI V3 load(1, XDATA, add(CFA_XSP16, literal(-9)))
        CFI V4 load(1, XDATA, add(CFA_XSP16, literal(-8)))
        CFI V5 load(1, XDATA, add(CFA_XSP16, literal(-7)))
        CFI ?BRET_EXT load(1, XDATA, add(CFA_XSP16, literal(-3)))
        CFI ?RET_HIGH load(1, XDATA, add(CFA_XSP16, literal(-4)))
        CFI ?RET_LOW load(1, XDATA, add(CFA_XSP16, literal(-5)))
        CFI Invalid
        LCALL   ?DEALLOC_XSTACK8
        CFI CFA_XSP16 add(XSP16, 14)
        CFI Valid
        MOV     R7,#0x6
        LJMP    ?BANKED_LEAVE_XDATA
        CFI EndBlock cfiBlock25

        RSEG BANKED_CODE:CODE:NOROOT(0)
?Subroutine15:
        CFI Block cfiCond26 Using cfiCommon0
        CFI NoFunction
        CFI Conditional ??CrossCallReturnLabel_14, ??CrossCallReturnLabel_11
        CFI R6 load(1, XDATA, add(CFA_XSP16, literal(-12)))
        CFI VB load(1, XDATA, add(CFA_XSP16, literal(-11)))
        CFI V0 load(1, XDATA, add(CFA_XSP16, literal(-10)))
        CFI V1 load(1, XDATA, add(CFA_XSP16, literal(-9)))
        CFI V2 load(1, XDATA, add(CFA_XSP16, literal(-8)))
        CFI V3 load(1, XDATA, add(CFA_XSP16, literal(-7)))
        CFI R7 load(1, XDATA, add(CFA_XSP16, literal(-6)))
        CFI ?RET_LOW load(1, XDATA, add(CFA_XSP16, literal(-5)))
        CFI ?RET_HIGH load(1, XDATA, add(CFA_XSP16, literal(-4)))
        CFI ?BRET_EXT load(1, XDATA, add(CFA_XSP16, literal(-3)))
        CFI DPL0 load(1, XDATA, add(CFA_XSP16, literal(-2)))
        CFI DPH0 load(1, XDATA, add(CFA_XSP16, literal(-1)))
        CFI CFA_SP SP+0
        CFI CFA_XSP16 add(XSP16, 29)
        CFI Block cfiCond27 Using cfiCommon0
        CFI (cfiCond27) NoFunction
        CFI (cfiCond27) Conditional ??CrossCallReturnLabel_14, ??CrossCallReturnLabel_12
        CFI (cfiCond27) R6 load(1, XDATA, add(CFA_XSP16, literal(-12)))
        CFI (cfiCond27) VB load(1, XDATA, add(CFA_XSP16, literal(-11)))
        CFI (cfiCond27) V0 load(1, XDATA, add(CFA_XSP16, literal(-10)))
        CFI (cfiCond27) V1 load(1, XDATA, add(CFA_XSP16, literal(-9)))
        CFI (cfiCond27) V2 load(1, XDATA, add(CFA_XSP16, literal(-8)))
        CFI (cfiCond27) V3 load(1, XDATA, add(CFA_XSP16, literal(-7)))
        CFI (cfiCond27) R7 load(1, XDATA, add(CFA_XSP16, literal(-6)))
        CFI (cfiCond27) ?RET_LOW load(1, XDATA, add(CFA_XSP16, literal(-5)))
        CFI (cfiCond27) ?RET_HIGH load(1, XDATA, add(CFA_XSP16, literal(-4)))
        CFI (cfiCond27) ?BRET_EXT load(1, XDATA, add(CFA_XSP16, literal(-3)))
        CFI (cfiCond27) DPL0 load(1, XDATA, add(CFA_XSP16, literal(-2)))
        CFI (cfiCond27) DPH0 load(1, XDATA, add(CFA_XSP16, literal(-1)))
        CFI (cfiCond27) CFA_SP SP+0
        CFI (cfiCond27) CFA_XSP16 add(XSP16, 29)
        CFI Block cfiCond28 Using cfiCommon0
        CFI (cfiCond28) NoFunction
        CFI (cfiCond28) Conditional ??CrossCallReturnLabel_13
        CFI (cfiCond28) R6 load(1, XDATA, add(CFA_XSP16, literal(-14)))
        CFI (cfiCond28) VB load(1, XDATA, add(CFA_XSP16, literal(-13)))
        CFI (cfiCond28) V0 load(1, XDATA, add(CFA_XSP16, literal(-12)))
        CFI (cfiCond28) V1 load(1, XDATA, add(CFA_XSP16, literal(-11)))
        CFI (cfiCond28) V2 load(1, XDATA, add(CFA_XSP16, literal(-10)))
        CFI (cfiCond28) V3 load(1, XDATA, add(CFA_XSP16, literal(-9)))
        CFI (cfiCond28) V4 load(1, XDATA, add(CFA_XSP16, literal(-8)))
        CFI (cfiCond28) V5 load(1, XDATA, add(CFA_XSP16, literal(-7)))
        CFI (cfiCond28) R7 load(1, XDATA, add(CFA_XSP16, literal(-6)))
        CFI (cfiCond28) ?RET_LOW load(1, XDATA, add(CFA_XSP16, literal(-5)))
        CFI (cfiCond28) ?RET_HIGH load(1, XDATA, add(CFA_XSP16, literal(-4)))
        CFI (cfiCond28) ?BRET_EXT load(1, XDATA, add(CFA_XSP16, literal(-3)))
        CFI (cfiCond28) DPL0 load(1, XDATA, add(CFA_XSP16, literal(-2)))
        CFI (cfiCond28) DPH0 load(1, XDATA, add(CFA_XSP16, literal(-1)))
        CFI (cfiCond28) CFA_SP SP+0
        CFI (cfiCond28) CFA_XSP16 add(XSP16, 26)
        CFI Block cfiPicker29 Using cfiCommon1
        CFI (cfiPicker29) NoFunction
        CFI (cfiPicker29) Picker
        LCALL   ?Subroutine16 & 0xFFFF
??CrossCallReturnLabel_26:
        RET
        CFI EndBlock cfiCond26
        CFI EndBlock cfiCond27
        CFI EndBlock cfiCond28
        CFI EndBlock cfiPicker29

        RSEG BANKED_CODE:CODE:NOROOT(0)
?Subroutine16:
        CFI Block cfiCond30 Using cfiCommon0
        CFI NoFunction
        CFI Conditional ??CrossCallReturnLabel_26, ??CrossCallReturnLabel_14, ??CrossCallReturnLabel_11
        CFI R6 load(1, XDATA, add(CFA_XSP16, literal(-12)))
        CFI VB load(1, XDATA, add(CFA_XSP16, literal(-11)))
        CFI V0 load(1, XDATA, add(CFA_XSP16, literal(-10)))
        CFI V1 load(1, XDATA, add(CFA_XSP16, literal(-9)))
        CFI V2 load(1, XDATA, add(CFA_XSP16, literal(-8)))
        CFI V3 load(1, XDATA, add(CFA_XSP16, literal(-7)))
        CFI R7 load(1, XDATA, add(CFA_XSP16, literal(-6)))
        CFI ?RET_LOW load(1, XDATA, add(CFA_XSP16, literal(-5)))
        CFI ?RET_HIGH load(1, XDATA, add(CFA_XSP16, literal(-4)))
        CFI ?BRET_EXT load(1, XDATA, add(CFA_XSP16, literal(-3)))
        CFI DPL0 load(1, XDATA, add(CFA_XSP16, literal(-2)))
        CFI DPH0 load(1, XDATA, add(CFA_XSP16, literal(-1)))
        CFI CFA_SP SP+0
        CFI CFA_XSP16 add(XSP16, 29)
        CFI Block cfiCond31 Using cfiCommon0
        CFI (cfiCond31) NoFunction
        CFI (cfiCond31) Conditional ??CrossCallReturnLabel_26, ??CrossCallReturnLabel_14, ??CrossCallReturnLabel_12
        CFI (cfiCond31) R6 load(1, XDATA, add(CFA_XSP16, literal(-12)))
        CFI (cfiCond31) VB load(1, XDATA, add(CFA_XSP16, literal(-11)))
        CFI (cfiCond31) V0 load(1, XDATA, add(CFA_XSP16, literal(-10)))
        CFI (cfiCond31) V1 load(1, XDATA, add(CFA_XSP16, literal(-9)))
        CFI (cfiCond31) V2 load(1, XDATA, add(CFA_XSP16, literal(-8)))
        CFI (cfiCond31) V3 load(1, XDATA, add(CFA_XSP16, literal(-7)))
        CFI (cfiCond31) R7 load(1, XDATA, add(CFA_XSP16, literal(-6)))
        CFI (cfiCond31) ?RET_LOW load(1, XDATA, add(CFA_XSP16, literal(-5)))
        CFI (cfiCond31) ?RET_HIGH load(1, XDATA, add(CFA_XSP16, literal(-4)))
        CFI (cfiCond31) ?BRET_EXT load(1, XDATA, add(CFA_XSP16, literal(-3)))
        CFI (cfiCond31) DPL0 load(1, XDATA, add(CFA_XSP16, literal(-2)))
        CFI (cfiCond31) DPH0 load(1, XDATA, add(CFA_XSP16, literal(-1)))
        CFI (cfiCond31) CFA_SP SP+0
        CFI (cfiCond31) CFA_XSP16 add(XSP16, 29)
        CFI Block cfiCond32 Using cfiCommon0
        CFI (cfiCond32) NoFunction
        CFI (cfiCond32) Conditional ??CrossCallReturnLabel_26, ??CrossCallReturnLabel_13
        CFI (cfiCond32) R6 load(1, XDATA, add(CFA_XSP16, literal(-14)))
        CFI (cfiCond32) VB load(1, XDATA, add(CFA_XSP16, literal(-13)))
        CFI (cfiCond32) V0 load(1, XDATA, add(CFA_XSP16, literal(-12)))
        CFI (cfiCond32) V1 load(1, XDATA, add(CFA_XSP16, literal(-11)))
        CFI (cfiCond32) V2 load(1, XDATA, add(CFA_XSP16, literal(-10)))
        CFI (cfiCond32) V3 load(1, XDATA, add(CFA_XSP16, literal(-9)))
        CFI (cfiCond32) V4 load(1, XDATA, add(CFA_XSP16, literal(-8)))
        CFI (cfiCond32) V5 load(1, XDATA, add(CFA_XSP16, literal(-7)))
        CFI (cfiCond32) R7 load(1, XDATA, add(CFA_XSP16, literal(-6)))
        CFI (cfiCond32) ?RET_LOW load(1, XDATA, add(CFA_XSP16, literal(-5)))
        CFI (cfiCond32) ?RET_HIGH load(1, XDATA, add(CFA_XSP16, literal(-4)))
        CFI (cfiCond32) ?BRET_EXT load(1, XDATA, add(CFA_XSP16, literal(-3)))
        CFI (cfiCond32) DPL0 load(1, XDATA, add(CFA_XSP16, literal(-2)))
        CFI (cfiCond32) DPH0 load(1, XDATA, add(CFA_XSP16, literal(-1)))
        CFI (cfiCond32) CFA_SP SP+0
        CFI (cfiCond32) CFA_XSP16 add(XSP16, 26)
        CFI Block cfiCond33 Using cfiCommon0
        CFI (cfiCond33) NoFunction
        CFI (cfiCond33) Conditional ??CrossCallReturnLabel_27, ??CrossCallReturnLabel_25, ??CrossCallReturnLabel_20
        CFI (cfiCond33) R6 load(1, XDATA, add(CFA_XSP16, literal(-9)))
        CFI (cfiCond33) VB load(1, XDATA, add(CFA_XSP16, literal(-8)))
        CFI (cfiCond33) V0 load(1, XDATA, add(CFA_XSP16, literal(-7)))
        CFI (cfiCond33) R7 load(1, XDATA, add(CFA_XSP16, literal(-6)))
        CFI (cfiCond33) ?RET_LOW load(1, XDATA, add(CFA_XSP16, literal(-5)))
        CFI (cfiCond33) ?RET_HIGH load(1, XDATA, add(CFA_XSP16, literal(-4)))
        CFI (cfiCond33) ?BRET_EXT load(1, XDATA, add(CFA_XSP16, literal(-3)))
        CFI (cfiCond33) DPL0 load(1, XDATA, add(CFA_XSP16, literal(-2)))
        CFI (cfiCond33) DPH0 load(1, XDATA, add(CFA_XSP16, literal(-1)))
        CFI (cfiCond33) CFA_SP SP+0
        CFI (cfiCond33) CFA_XSP16 add(XSP16, 9)
        CFI Block cfiCond34 Using cfiCommon0
        CFI (cfiCond34) NoFunction
        CFI (cfiCond34) Conditional ??CrossCallReturnLabel_27, ??CrossCallReturnLabel_25, ??CrossCallReturnLabel_21
        CFI (cfiCond34) R6 load(1, XDATA, add(CFA_XSP16, literal(-14)))
        CFI (cfiCond34) VB load(1, XDATA, add(CFA_XSP16, literal(-13)))
        CFI (cfiCond34) V0 load(1, XDATA, add(CFA_XSP16, literal(-12)))
        CFI (cfiCond34) V1 load(1, XDATA, add(CFA_XSP16, literal(-11)))
        CFI (cfiCond34) V2 load(1, XDATA, add(CFA_XSP16, literal(-10)))
        CFI (cfiCond34) V3 load(1, XDATA, add(CFA_XSP16, literal(-9)))
        CFI (cfiCond34) V4 load(1, XDATA, add(CFA_XSP16, literal(-8)))
        CFI (cfiCond34) V5 load(1, XDATA, add(CFA_XSP16, literal(-7)))
        CFI (cfiCond34) R7 load(1, XDATA, add(CFA_XSP16, literal(-6)))
        CFI (cfiCond34) ?RET_LOW load(1, XDATA, add(CFA_XSP16, literal(-5)))
        CFI (cfiCond34) ?RET_HIGH load(1, XDATA, add(CFA_XSP16, literal(-4)))
        CFI (cfiCond34) ?BRET_EXT load(1, XDATA, add(CFA_XSP16, literal(-3)))
        CFI (cfiCond34) DPL0 load(1, XDATA, add(CFA_XSP16, literal(-2)))
        CFI (cfiCond34) DPH0 load(1, XDATA, add(CFA_XSP16, literal(-1)))
        CFI (cfiCond34) CFA_SP SP+0
        CFI (cfiCond34) CFA_XSP16 add(XSP16, 15)
        CFI Block cfiCond35 Using cfiCommon0
        CFI (cfiCond35) NoFunction
        CFI (cfiCond35) Conditional ??CrossCallReturnLabel_27, ??CrossCallReturnLabel_25, ??CrossCallReturnLabel_22
        CFI (cfiCond35) R6 load(1, XDATA, add(CFA_XSP16, literal(-9)))
        CFI (cfiCond35) VB load(1, XDATA, add(CFA_XSP16, literal(-8)))
        CFI (cfiCond35) V0 load(1, XDATA, add(CFA_XSP16, literal(-7)))
        CFI (cfiCond35) R7 load(1, XDATA, add(CFA_XSP16, literal(-6)))
        CFI (cfiCond35) ?RET_LOW load(1, XDATA, add(CFA_XSP16, literal(-5)))
        CFI (cfiCond35) ?RET_HIGH load(1, XDATA, add(CFA_XSP16, literal(-4)))
        CFI (cfiCond35) ?BRET_EXT load(1, XDATA, add(CFA_XSP16, literal(-3)))
        CFI (cfiCond35) DPL0 load(1, XDATA, add(CFA_XSP16, literal(-2)))
        CFI (cfiCond35) DPH0 load(1, XDATA, add(CFA_XSP16, literal(-1)))
        CFI (cfiCond35) CFA_SP SP+0
        CFI (cfiCond35) CFA_XSP16 add(XSP16, 10)
        CFI Block cfiCond36 Using cfiCommon0
        CFI (cfiCond36) NoFunction
        CFI (cfiCond36) Conditional ??CrossCallReturnLabel_27, ??CrossCallReturnLabel_25, ??CrossCallReturnLabel_23
        CFI (cfiCond36) R6 load(1, XDATA, add(CFA_XSP16, literal(-9)))
        CFI (cfiCond36) VB load(1, XDATA, add(CFA_XSP16, literal(-8)))
        CFI (cfiCond36) V0 load(1, XDATA, add(CFA_XSP16, literal(-7)))
        CFI (cfiCond36) R7 load(1, XDATA, add(CFA_XSP16, literal(-6)))
        CFI (cfiCond36) ?RET_LOW load(1, XDATA, add(CFA_XSP16, literal(-5)))
        CFI (cfiCond36) ?RET_HIGH load(1, XDATA, add(CFA_XSP16, literal(-4)))
        CFI (cfiCond36) ?BRET_EXT load(1, XDATA, add(CFA_XSP16, literal(-3)))
        CFI (cfiCond36) DPL0 load(1, XDATA, add(CFA_XSP16, literal(-2)))
        CFI (cfiCond36) DPH0 load(1, XDATA, add(CFA_XSP16, literal(-1)))
        CFI (cfiCond36) CFA_SP SP+0
        CFI (cfiCond36) CFA_XSP16 add(XSP16, 9)
        CFI Block cfiCond37 Using cfiCommon0
        CFI (cfiCond37) NoFunction
        CFI (cfiCond37) Conditional ??CrossCallReturnLabel_27, ??CrossCallReturnLabel_24, ??CrossCallReturnLabel_2
        CFI (cfiCond37) R6 load(1, XDATA, add(CFA_XSP16, literal(-12)))
        CFI (cfiCond37) VB load(1, XDATA, add(CFA_XSP16, literal(-11)))
        CFI (cfiCond37) V0 load(1, XDATA, add(CFA_XSP16, literal(-10)))
        CFI (cfiCond37) V1 load(1, XDATA, add(CFA_XSP16, literal(-9)))
        CFI (cfiCond37) V2 load(1, XDATA, add(CFA_XSP16, literal(-8)))
        CFI (cfiCond37) V3 load(1, XDATA, add(CFA_XSP16, literal(-7)))
        CFI (cfiCond37) R7 load(1, XDATA, add(CFA_XSP16, literal(-6)))
        CFI (cfiCond37) ?RET_LOW load(1, XDATA, add(CFA_XSP16, literal(-5)))
        CFI (cfiCond37) ?RET_HIGH load(1, XDATA, add(CFA_XSP16, literal(-4)))
        CFI (cfiCond37) ?BRET_EXT load(1, XDATA, add(CFA_XSP16, literal(-3)))
        CFI (cfiCond37) DPL0 load(1, XDATA, add(CFA_XSP16, literal(-2)))
        CFI (cfiCond37) DPH0 load(1, XDATA, add(CFA_XSP16, literal(-1)))
        CFI (cfiCond37) CFA_SP SP+0
        CFI (cfiCond37) CFA_XSP16 add(XSP16, 23)
        CFI Block cfiCond38 Using cfiCommon0
        CFI (cfiCond38) NoFunction
        CFI (cfiCond38) Conditional ??CrossCallReturnLabel_27, ??CrossCallReturnLabel_24, ??CrossCallReturnLabel_3
        CFI (cfiCond38) R6 load(1, XDATA, add(CFA_XSP16, literal(-10)))
        CFI (cfiCond38) VB load(1, XDATA, add(CFA_XSP16, literal(-9)))
        CFI (cfiCond38) V0 load(1, XDATA, add(CFA_XSP16, literal(-8)))
        CFI (cfiCond38) V1 load(1, XDATA, add(CFA_XSP16, literal(-7)))
        CFI (cfiCond38) R7 load(1, XDATA, add(CFA_XSP16, literal(-6)))
        CFI (cfiCond38) ?RET_LOW load(1, XDATA, add(CFA_XSP16, literal(-5)))
        CFI (cfiCond38) ?RET_HIGH load(1, XDATA, add(CFA_XSP16, literal(-4)))
        CFI (cfiCond38) ?BRET_EXT load(1, XDATA, add(CFA_XSP16, literal(-3)))
        CFI (cfiCond38) DPL0 load(1, XDATA, add(CFA_XSP16, literal(-2)))
        CFI (cfiCond38) DPH0 load(1, XDATA, add(CFA_XSP16, literal(-1)))
        CFI (cfiCond38) CFA_SP SP+0
        CFI (cfiCond38) CFA_XSP16 add(XSP16, 20)
        CFI Block cfiPicker39 Using cfiCommon1
        CFI (cfiPicker39) NoFunction
        CFI (cfiPicker39) Picker
        MOV     DPTR,#sapi_epDesc + 3
        MOVX    A,@DPTR
        MOV     R0,A
        INC     DPTR
        MOVX    A,@DPTR
        MOV     DPH,A
        MOV     DPL,R0
        RET
        CFI EndBlock cfiCond30
        CFI EndBlock cfiCond31
        CFI EndBlock cfiCond32
        CFI EndBlock cfiCond33
        CFI EndBlock cfiCond34
        CFI EndBlock cfiCond35
        CFI EndBlock cfiCond36
        CFI EndBlock cfiCond37
        CFI EndBlock cfiCond38
        CFI EndBlock cfiPicker39
//  434 
//  435 /******************************************************************************
//  436  * @fn          zb_ReadConfiguration
//  437  *
//  438  * @brief       The zb_ReadConfiguration function is used to get a
//  439  *              Configuration Protperty from Nonvolatile memory.
//  440  *
//  441  * @param       configId - The identifier for the configuration property
//  442  *              len - The size of the pValue buffer in bytes
//  443  *              pValue - A buffer to hold the configuration property
//  444  *
//  445  * @return      none
//  446  */

        RSEG BANKED_CODE:CODE:NOROOT(0)
//  447 uint8 zb_ReadConfiguration( uint8 configId, uint8 len, void *pValue )
zb_ReadConfiguration:
        CFI Block cfiBlock40 Using cfiCommon0
        CFI Function zb_ReadConfiguration
        CODE
//  448 {
        FUNCALL zb_ReadConfiguration, osal_nv_item_len
        LOCFRAME ISTACK, 0, STACK
        LOCFRAME PSTACK, 0, STACK
        LOCFRAME XSTACK, 12, STACK
        LOCFRAME IOVERLAY, 0, STATIC
        LOCFRAME DOVERLAY, 0, STATIC
        ARGFRAME ISTACK, 0, STACK
        ARGFRAME PSTACK, 0, STACK
        ARGFRAME XSTACK, 12, STACK
        ARGFRAME IOVERLAY, 0, STATIC
        ARGFRAME DOVERLAY, 0, STATIC
        FUNCALL zb_ReadConfiguration, osal_nv_read
        LOCFRAME ISTACK, 0, STACK
        LOCFRAME PSTACK, 0, STACK
        LOCFRAME XSTACK, 16, STACK
        LOCFRAME IOVERLAY, 0, STATIC
        LOCFRAME DOVERLAY, 0, STATIC
        ARGFRAME ISTACK, 0, STACK
        ARGFRAME PSTACK, 0, STACK
        ARGFRAME XSTACK, 16, STACK
        ARGFRAME IOVERLAY, 0, STATIC
        ARGFRAME DOVERLAY, 0, STATIC
        MOV     A,#-0xc
        LCALL   ?BANKED_ENTER_XDATA
        CFI DPH0 load(1, XDATA, add(CFA_XSP16, literal(-1)))
        CFI DPL0 load(1, XDATA, add(CFA_XSP16, literal(-2)))
        CFI ?BRET_EXT load(1, XDATA, add(CFA_XSP16, literal(-3)))
        CFI ?RET_HIGH load(1, XDATA, add(CFA_XSP16, literal(-4)))
        CFI ?RET_LOW load(1, XDATA, add(CFA_XSP16, literal(-5)))
        CFI R7 load(1, XDATA, add(CFA_XSP16, literal(-6)))
        CFI V3 load(1, XDATA, add(CFA_XSP16, literal(-7)))
        CFI V2 load(1, XDATA, add(CFA_XSP16, literal(-8)))
        CFI V1 load(1, XDATA, add(CFA_XSP16, literal(-9)))
        CFI V0 load(1, XDATA, add(CFA_XSP16, literal(-10)))
        CFI VB load(1, XDATA, add(CFA_XSP16, literal(-11)))
        CFI R6 load(1, XDATA, add(CFA_XSP16, literal(-12)))
        CFI CFA_SP SP+0
        CFI CFA_XSP16 add(XSP16, 12)
        ; Saved register size: 12
        ; Auto size: 0
        MOV     A,R1
        MOV     R7,A
        MOV     A,R2
        MOV     R6,A
        MOV     ?V0 + 0,R4
        MOV     ?V0 + 1,R5
//  449   uint8 size;
//  450 
//  451   size = (uint8)osal_nv_item_len( configId );
        ; Setup parameters for call to function osal_nv_item_len
        MOV     ?V0 + 2,R7
        MOV     R2,?V0 + 2
        MOV     R3,#0x0
        LCALL   ??osal_nv_item_len?relay
        MOV     A,R2
        MOV     R1,A
//  452   if ( size > len )
        MOV     A,R6
        CLR     C
        SUBB    A,R1
        JNC     ??zb_ReadConfiguration_0
//  453   {
//  454     return ZFailure;
        MOV     R1,#0x1
        SJMP    ??zb_ReadConfiguration_1
//  455   }
//  456   else
//  457   {
//  458     return( osal_nv_read(configId, 0, size, pValue) );
??zb_ReadConfiguration_0:
        ; Setup parameters for call to function osal_nv_read
        MOV     R0,#?V0 + 0
        LCALL   ?PUSH_XSTACK_I_TWO
        CFI CFA_XSP16 add(XSP16, 14)
        MOV     ?V0 + 0,R1
        MOV     ?V0 + 1,#0x0
        MOV     R0,#?V0 + 0
        LCALL   ?PUSH_XSTACK_I_TWO
        CFI CFA_XSP16 add(XSP16, 16)
        MOV     R4,#0x0
        MOV     R5,#0x0
        MOV     ?V0 + 0,R7
        MOV     R2,?V0 + 0
        MOV     R3,#0x0
        LCALL   ??osal_nv_read?relay
        MOV     A,#0x4
        LCALL   ?DEALLOC_XSTACK8
        CFI CFA_XSP16 add(XSP16, 12)
//  459   }
??zb_ReadConfiguration_1:
        LJMP    ?Subroutine1 & 0xFFFF
        CFI EndBlock cfiBlock40
//  460 }
//  461 /******************************************************************************
//  462  * @fn          zb_WriteConfiguration
//  463  *
//  464  * @brief       The zb_WriteConfiguration function is used to write a
//  465  *              Configuration Property to nonvolatile memory.
//  466  *
//  467  * @param       configId - The identifier for the configuration property
//  468  *              len - The size of the pValue buffer in bytes
//  469  *              pValue - A buffer containing the new value of the
//  470  *                       configuration property
//  471  *
//  472  * @return      none
//  473  */

        RSEG BANKED_CODE:CODE:NOROOT(0)
//  474 uint8 zb_WriteConfiguration( uint8 configId, uint8 len, void *pValue )
zb_WriteConfiguration:
        CFI Block cfiBlock41 Using cfiCommon0
        CFI Function zb_WriteConfiguration
        CODE
//  475 {
        FUNCALL zb_WriteConfiguration, osal_nv_write
        LOCFRAME ISTACK, 0, STACK
        LOCFRAME PSTACK, 0, STACK
        LOCFRAME XSTACK, 14, STACK
        LOCFRAME IOVERLAY, 0, STATIC
        LOCFRAME DOVERLAY, 0, STATIC
        ARGFRAME ISTACK, 0, STACK
        ARGFRAME PSTACK, 0, STACK
        ARGFRAME XSTACK, 14, STACK
        ARGFRAME IOVERLAY, 0, STATIC
        ARGFRAME DOVERLAY, 0, STATIC
        MOV     A,#-0xa
        LCALL   ?BANKED_ENTER_XDATA
        CFI DPH0 load(1, XDATA, add(CFA_XSP16, literal(-1)))
        CFI DPL0 load(1, XDATA, add(CFA_XSP16, literal(-2)))
        CFI ?BRET_EXT load(1, XDATA, add(CFA_XSP16, literal(-3)))
        CFI ?RET_HIGH load(1, XDATA, add(CFA_XSP16, literal(-4)))
        CFI ?RET_LOW load(1, XDATA, add(CFA_XSP16, literal(-5)))
        CFI R7 load(1, XDATA, add(CFA_XSP16, literal(-6)))
        CFI V1 load(1, XDATA, add(CFA_XSP16, literal(-7)))
        CFI V0 load(1, XDATA, add(CFA_XSP16, literal(-8)))
        CFI VB load(1, XDATA, add(CFA_XSP16, literal(-9)))
        CFI R6 load(1, XDATA, add(CFA_XSP16, literal(-10)))
        CFI CFA_SP SP+0
        CFI CFA_XSP16 add(XSP16, 10)
        ; Saved register size: 10
        ; Auto size: 0
        MOV     A,R1
        MOV     R7,A
        MOV     A,R2
        MOV     R6,A
//  476   return( osal_nv_write(configId, 0, len, pValue) );
        ; Setup parameters for call to function osal_nv_write
        MOV     ?V0 + 0,R4
        MOV     ?V0 + 1,R5
        MOV     R0,#?V0 + 0
        LCALL   ?PUSH_XSTACK_I_TWO
        CFI CFA_XSP16 add(XSP16, 12)
        MOV     ?V0 + 0,R6
        MOV     ?V0 + 1,#0x0
        MOV     R0,#?V0 + 0
        LCALL   ?PUSH_XSTACK_I_TWO
        CFI CFA_XSP16 add(XSP16, 14)
        MOV     R4,#0x0
        MOV     R5,#0x0
        MOV     ?V0 + 0,R7
        MOV     R2,?V0 + 0
        MOV     R3,#0x0
        LCALL   ??osal_nv_write?relay
        MOV     A,#0x4
        CFI EndBlock cfiBlock41
        REQUIRE ?Subroutine4
        ; // Fall through to label ?Subroutine4
//  477 }

        RSEG BANKED_CODE:CODE:NOROOT(0)
?Subroutine4:
        CFI Block cfiBlock42 Using cfiCommon0
        CFI NoFunction
        CFI CFA_SP SP+0
        CFI CFA_XSP16 add(XSP16, 14)
        CFI VB load(1, XDATA, add(CFA_XSP16, literal(-9)))
        CFI DPL0 load(1, XDATA, add(CFA_XSP16, literal(-2)))
        CFI DPH0 load(1, XDATA, add(CFA_XSP16, literal(-1)))
        CFI R6 load(1, XDATA, add(CFA_XSP16, literal(-10)))
        CFI R7 load(1, XDATA, add(CFA_XSP16, literal(-6)))
        CFI V0 load(1, XDATA, add(CFA_XSP16, literal(-8)))
        CFI V1 load(1, XDATA, add(CFA_XSP16, literal(-7)))
        CFI ?BRET_EXT load(1, XDATA, add(CFA_XSP16, literal(-3)))
        CFI ?RET_HIGH load(1, XDATA, add(CFA_XSP16, literal(-4)))
        CFI ?RET_LOW load(1, XDATA, add(CFA_XSP16, literal(-5)))
        CFI Invalid
        LCALL   ?DEALLOC_XSTACK8
        CFI CFA_XSP16 add(XSP16, 10)
        CFI Valid
        MOV     R7,#0x2
        LJMP    ?BANKED_LEAVE_XDATA
        CFI EndBlock cfiBlock42
//  478 /******************************************************************************
//  479  * @fn          zb_GetDeviceInfo
//  480  *
//  481  * @brief       The zb_GetDeviceInfo function retrieves a Device Information
//  482  *              Property.
//  483  *
//  484  * @param       param - The identifier for the device information
//  485  *              pValue - A buffer to hold the device information
//  486  *
//  487  * @return      none
//  488  */

        RSEG BANKED_CODE:CODE:NOROOT(0)
//  489 void zb_GetDeviceInfo ( uint8 param, void *pValue )
zb_GetDeviceInfo:
        CFI Block cfiBlock43 Using cfiCommon0
        CFI Function zb_GetDeviceInfo
        CODE
//  490 {
        FUNCALL zb_GetDeviceInfo, osal_memcpy
        LOCFRAME ISTACK, 0, STACK
        LOCFRAME PSTACK, 0, STACK
        LOCFRAME XSTACK, 14, STACK
        LOCFRAME IOVERLAY, 0, STATIC
        LOCFRAME DOVERLAY, 0, STATIC
        ARGFRAME ISTACK, 0, STACK
        ARGFRAME PSTACK, 0, STACK
        ARGFRAME XSTACK, 14, STACK
        ARGFRAME IOVERLAY, 0, STATIC
        ARGFRAME DOVERLAY, 0, STATIC
        FUNCALL zb_GetDeviceInfo, osal_memcpy
        LOCFRAME ISTACK, 0, STACK
        LOCFRAME PSTACK, 0, STACK
        LOCFRAME XSTACK, 14, STACK
        LOCFRAME IOVERLAY, 0, STATIC
        LOCFRAME DOVERLAY, 0, STATIC
        ARGFRAME ISTACK, 0, STACK
        ARGFRAME PSTACK, 0, STACK
        ARGFRAME XSTACK, 14, STACK
        ARGFRAME IOVERLAY, 0, STATIC
        ARGFRAME DOVERLAY, 0, STATIC
        FUNCALL zb_GetDeviceInfo, osal_memcpy
        LOCFRAME ISTACK, 0, STACK
        LOCFRAME PSTACK, 0, STACK
        LOCFRAME XSTACK, 14, STACK
        LOCFRAME IOVERLAY, 0, STATIC
        LOCFRAME DOVERLAY, 0, STATIC
        ARGFRAME ISTACK, 0, STACK
        ARGFRAME PSTACK, 0, STACK
        ARGFRAME XSTACK, 14, STACK
        ARGFRAME IOVERLAY, 0, STATIC
        ARGFRAME DOVERLAY, 0, STATIC
        FUNCALL zb_GetDeviceInfo, osal_memcpy
        LOCFRAME ISTACK, 0, STACK
        LOCFRAME PSTACK, 0, STACK
        LOCFRAME XSTACK, 14, STACK
        LOCFRAME IOVERLAY, 0, STATIC
        LOCFRAME DOVERLAY, 0, STATIC
        ARGFRAME ISTACK, 0, STACK
        ARGFRAME PSTACK, 0, STACK
        ARGFRAME XSTACK, 14, STACK
        ARGFRAME IOVERLAY, 0, STATIC
        ARGFRAME DOVERLAY, 0, STATIC
        FUNCALL zb_GetDeviceInfo, osal_memcpy
        LOCFRAME ISTACK, 0, STACK
        LOCFRAME PSTACK, 0, STACK
        LOCFRAME XSTACK, 14, STACK
        LOCFRAME IOVERLAY, 0, STATIC
        LOCFRAME DOVERLAY, 0, STATIC
        ARGFRAME ISTACK, 0, STACK
        ARGFRAME PSTACK, 0, STACK
        ARGFRAME XSTACK, 14, STACK
        ARGFRAME IOVERLAY, 0, STATIC
        ARGFRAME DOVERLAY, 0, STATIC
        FUNCALL zb_GetDeviceInfo, osal_memcpy
        LOCFRAME ISTACK, 0, STACK
        LOCFRAME PSTACK, 0, STACK
        LOCFRAME XSTACK, 14, STACK
        LOCFRAME IOVERLAY, 0, STATIC
        LOCFRAME DOVERLAY, 0, STATIC
        ARGFRAME ISTACK, 0, STACK
        ARGFRAME PSTACK, 0, STACK
        ARGFRAME XSTACK, 14, STACK
        ARGFRAME IOVERLAY, 0, STATIC
        ARGFRAME DOVERLAY, 0, STATIC
        FUNCALL zb_GetDeviceInfo, osal_memcpy
        LOCFRAME ISTACK, 0, STACK
        LOCFRAME PSTACK, 0, STACK
        LOCFRAME XSTACK, 14, STACK
        LOCFRAME IOVERLAY, 0, STATIC
        LOCFRAME DOVERLAY, 0, STATIC
        ARGFRAME ISTACK, 0, STACK
        ARGFRAME PSTACK, 0, STACK
        ARGFRAME XSTACK, 14, STACK
        ARGFRAME IOVERLAY, 0, STATIC
        ARGFRAME DOVERLAY, 0, STATIC
        FUNCALL zb_GetDeviceInfo, osal_memcpy
        LOCFRAME ISTACK, 0, STACK
        LOCFRAME PSTACK, 0, STACK
        LOCFRAME XSTACK, 14, STACK
        LOCFRAME IOVERLAY, 0, STATIC
        LOCFRAME DOVERLAY, 0, STATIC
        ARGFRAME ISTACK, 0, STACK
        ARGFRAME PSTACK, 0, STACK
        ARGFRAME XSTACK, 14, STACK
        ARGFRAME IOVERLAY, 0, STATIC
        ARGFRAME DOVERLAY, 0, STATIC
        MOV     A,#-0xb
        LCALL   ?BANKED_ENTER_XDATA
        CFI DPH0 load(1, XDATA, add(CFA_XSP16, literal(-1)))
        CFI DPL0 load(1, XDATA, add(CFA_XSP16, literal(-2)))
        CFI ?BRET_EXT load(1, XDATA, add(CFA_XSP16, literal(-3)))
        CFI ?RET_HIGH load(1, XDATA, add(CFA_XSP16, literal(-4)))
        CFI ?RET_LOW load(1, XDATA, add(CFA_XSP16, literal(-5)))
        CFI R7 load(1, XDATA, add(CFA_XSP16, literal(-6)))
        CFI V2 load(1, XDATA, add(CFA_XSP16, literal(-7)))
        CFI V1 load(1, XDATA, add(CFA_XSP16, literal(-8)))
        CFI V0 load(1, XDATA, add(CFA_XSP16, literal(-9)))
        CFI VB load(1, XDATA, add(CFA_XSP16, literal(-10)))
        CFI R6 load(1, XDATA, add(CFA_XSP16, literal(-11)))
        CFI CFA_SP SP+0
        CFI CFA_XSP16 add(XSP16, 11)
        ; Saved register size: 11
        ; Auto size: 0
        MOV     A,R1
//  491   switch(param)
        JZ      ??zb_GetDeviceInfo_0
        DEC     A
        JZ      ??zb_GetDeviceInfo_1
        DEC     A
        JZ      ??zb_GetDeviceInfo_2
        DEC     A
        JZ      ??zb_GetDeviceInfo_3
        DEC     A
        JZ      ??zb_GetDeviceInfo_4
        DEC     A
        JZ      ??zb_GetDeviceInfo_5
        DEC     A
        JZ      ??zb_GetDeviceInfo_6
        DEC     A
        JZ      ??zb_GetDeviceInfo_7
        SJMP    ??zb_GetDeviceInfo_8
//  492   {
//  493     case ZB_INFO_DEV_STATE:
//  494       osal_memcpy(pValue, &devState, sizeof(uint8));
??zb_GetDeviceInfo_0:
        ; Setup parameters for call to function osal_memcpy
        MOV     ?V0 + 0,#devState & 0xff
        MOV     ?V0 + 1,#(devState >> 8) & 0xff
??zb_GetDeviceInfo_9:
        MOV     ?V0 + 2,#0x0
        MOV     R0,#?V0 + 0
        LCALL   ?PUSH_XSTACK_I_THREE
        CFI CFA_XSP16 add(XSP16, 14)
        MOV     R4,#0x1
        SJMP    ??zb_GetDeviceInfo_10
        CFI CFA_XSP16 add(XSP16, 11)
//  495       break;
//  496     case ZB_INFO_IEEE_ADDR:
//  497       osal_memcpy(pValue, &aExtendedAddress, Z_EXTADDR_LEN);
??zb_GetDeviceInfo_1:
        ; Setup parameters for call to function osal_memcpy
        MOV     ?V0 + 0,#aExtendedAddress & 0xff
        MOV     ?V0 + 1,#(aExtendedAddress >> 8) & 0xff
        SJMP    ??zb_GetDeviceInfo_11
//  498       break;
//  499     case ZB_INFO_SHORT_ADDR:
//  500       osal_memcpy(pValue, &_NIB.nwkDevAddress, sizeof(uint16));
??zb_GetDeviceInfo_2:
        ; Setup parameters for call to function osal_memcpy
        MOV     ?V0 + 0,#(_NIB + 20) & 0xff
        MOV     ?V0 + 1,#((_NIB + 20) >> 8) & 0xff
??zb_GetDeviceInfo_12:
        MOV     ?V0 + 2,#0x0
        MOV     R0,#?V0 + 0
        LCALL   ?PUSH_XSTACK_I_THREE
        CFI CFA_XSP16 add(XSP16, 14)
        MOV     R4,#0x2
        SJMP    ??zb_GetDeviceInfo_10
        CFI CFA_XSP16 add(XSP16, 11)
//  501       break;
//  502     case ZB_INFO_PARENT_SHORT_ADDR:
//  503       osal_memcpy(pValue, &_NIB.nwkCoordAddress, sizeof(uint16));
??zb_GetDeviceInfo_3:
        ; Setup parameters for call to function osal_memcpy
        MOV     ?V0 + 0,#(_NIB + 23) & 0xff
        MOV     ?V0 + 1,#((_NIB + 23) >> 8) & 0xff
        SJMP    ??zb_GetDeviceInfo_12
//  504       break;
//  505     case ZB_INFO_PARENT_IEEE_ADDR:
//  506       osal_memcpy(pValue, &_NIB.nwkCoordExtAddress, Z_EXTADDR_LEN);
??zb_GetDeviceInfo_4:
        ; Setup parameters for call to function osal_memcpy
        MOV     ?V0 + 0,#(_NIB + 25) & 0xff
        MOV     ?V0 + 1,#((_NIB + 25) >> 8) & 0xff
        SJMP    ??zb_GetDeviceInfo_11
//  507       break;
//  508     case ZB_INFO_CHANNEL:
//  509       osal_memcpy(pValue, &_NIB.nwkLogicalChannel, sizeof(uint8));
??zb_GetDeviceInfo_5:
        ; Setup parameters for call to function osal_memcpy
        MOV     ?V0 + 0,#(_NIB + 22) & 0xff
        MOV     ?V0 + 1,#((_NIB + 22) >> 8) & 0xff
        SJMP    ??zb_GetDeviceInfo_9
//  510       break;
//  511     case ZB_INFO_PAN_ID:
//  512       osal_memcpy(pValue, &_NIB.nwkPanId, sizeof(uint16));
??zb_GetDeviceInfo_6:
        ; Setup parameters for call to function osal_memcpy
        MOV     ?V0 + 0,#(_NIB + 33) & 0xff
        MOV     ?V0 + 1,#((_NIB + 33) >> 8) & 0xff
        SJMP    ??zb_GetDeviceInfo_12
//  513       break;
//  514     case ZB_INFO_EXT_PAN_ID:
//  515       osal_memcpy(pValue, &_NIB.extendedPANID, Z_EXTADDR_LEN);
??zb_GetDeviceInfo_7:
        ; Setup parameters for call to function osal_memcpy
        MOV     ?V0 + 0,#(_NIB + 53) & 0xff
        MOV     ?V0 + 1,#((_NIB + 53) >> 8) & 0xff
??zb_GetDeviceInfo_11:
        MOV     ?V0 + 2,#0x0
        MOV     R0,#?V0 + 0
        LCALL   ?PUSH_XSTACK_I_THREE
        CFI CFA_XSP16 add(XSP16, 14)
        MOV     R4,#0x8
??zb_GetDeviceInfo_10:
        MOV     R5,#0x0
        LCALL   ??osal_memcpy?relay
        MOV     A,#0x3
        LCALL   ?DEALLOC_XSTACK8
        CFI CFA_XSP16 add(XSP16, 11)
//  516       break;
//  517   }
//  518 }
??zb_GetDeviceInfo_8:
        MOV     R7,#0x3
        LJMP    ?BANKED_LEAVE_XDATA
        CFI EndBlock cfiBlock43
//  519 
//  520 /******************************************************************************
//  521  * @fn          zb_FindDeviceRequest
//  522  *
//  523  * @brief       The zb_FindDeviceRequest function is used to determine the
//  524  *              short address for a device in the network.  The device initiating
//  525  *              a call to zb_FindDeviceRequest and the device being discovered
//  526  *              must both be a member of the same network.  When the search is
//  527  *              complete, the zv_FindDeviceConfirm callback function is called.
//  528  *
//  529  * @param       searchType - The type of search to perform. Can be one of following:
//  530  *                           ZB_IEEE_SEARCH - Search for 16-bit addr given IEEE addr.
//  531  *              searchKey - Value to search on.
//  532  *
//  533  * @return      none
//  534  */

        RSEG BANKED_CODE:CODE:NOROOT(0)
//  535 void zb_FindDeviceRequest( uint8 searchType, void *searchKey )
zb_FindDeviceRequest:
        CFI Block cfiBlock44 Using cfiCommon0
        CFI Function zb_FindDeviceRequest
        CODE
//  536 {
        FUNCALL zb_FindDeviceRequest, ZDP_NwkAddrReq
        LOCFRAME ISTACK, 0, STACK
        LOCFRAME PSTACK, 0, STACK
        LOCFRAME XSTACK, 9, STACK
        LOCFRAME IOVERLAY, 0, STATIC
        LOCFRAME DOVERLAY, 0, STATIC
        ARGFRAME ISTACK, 0, STACK
        ARGFRAME PSTACK, 0, STACK
        ARGFRAME XSTACK, 9, STACK
        ARGFRAME IOVERLAY, 0, STATIC
        ARGFRAME DOVERLAY, 0, STATIC
        MOV     A,#-0x9
        LCALL   ?BANKED_ENTER_XDATA
        CFI DPH0 load(1, XDATA, add(CFA_XSP16, literal(-1)))
        CFI DPL0 load(1, XDATA, add(CFA_XSP16, literal(-2)))
        CFI ?BRET_EXT load(1, XDATA, add(CFA_XSP16, literal(-3)))
        CFI ?RET_HIGH load(1, XDATA, add(CFA_XSP16, literal(-4)))
        CFI ?RET_LOW load(1, XDATA, add(CFA_XSP16, literal(-5)))
        CFI R7 load(1, XDATA, add(CFA_XSP16, literal(-6)))
        CFI V0 load(1, XDATA, add(CFA_XSP16, literal(-7)))
        CFI VB load(1, XDATA, add(CFA_XSP16, literal(-8)))
        CFI R6 load(1, XDATA, add(CFA_XSP16, literal(-9)))
        CFI CFA_SP SP+0
        CFI CFA_XSP16 add(XSP16, 9)
        ; Saved register size: 9
        ; Auto size: 0
        MOV     A,R1
        MOV     R6,A
//  537   if (searchType == ZB_IEEE_SEARCH)
        MOV     A,#0x1
        XRL     A,R6
        JNZ     ??zb_FindDeviceRequest_0
//  538   {
//  539     ZDP_NwkAddrReq((uint8*) searchKey, ZDP_ADDR_REQTYPE_SINGLE, 0, 0 );
        ; Setup parameters for call to function ZDP_NwkAddrReq
        MOV     R5,#0x0
        MOV     R4,#0x0
        MOV     R1,#0x0
        LCALL   ??ZDP_NwkAddrReq?relay
//  540   }
//  541 }
??zb_FindDeviceRequest_0:
        LJMP    ?Subroutine2 & 0xFFFF
        CFI EndBlock cfiBlock44
//  542 /******************************************************************************
//  543  * @fn          SAPI_StartConfirm
//  544  *
//  545  * @brief       The SAPI_StartConfirm callback is called by the ZigBee stack
//  546  *              after a start request operation completes
//  547  *
//  548  * @param       status - The status of the start operation.  Status of
//  549  *                       ZB_SUCCESS indicates the start operation completed
//  550  *                       successfully.  Else the status is an error code.
//  551  *
//  552  * @return      none
//  553  */
//  554 void SAPI_StartConfirm( uint8 status )
//  555 {
//  556 #if defined ( MT_SAPI_CB_FUNC )
//  557   /* First check if MT has subscribed for this callback. If so , pass it as
//  558   a event to MonitorTest and return control to calling function after that */
//  559   if ( SAPICB_CHECK( SPI_CB_SAPI_START_CNF ) )
//  560   {
//  561     zb_MTCallbackStartConfirm( status );
//  562   }
//  563   else
//  564 #endif  //MT_SAPI_CB_FUNC
//  565   {
//  566 #if ( SAPI_CB_FUNC )
//  567     zb_StartConfirm( status );
//  568 #endif
//  569   }
//  570 }
//  571 
//  572 /******************************************************************************
//  573  * @fn          SAPI_SendDataConfirm
//  574  *
//  575  * @brief       The SAPI_SendDataConfirm callback function is called by the
//  576  *              ZigBee after a send data operation completes
//  577  *
//  578  * @param       handle - The handle identifying the data transmission.
//  579  *              status - The status of the operation.
//  580  *
//  581  * @return      none
//  582  */
//  583 void SAPI_SendDataConfirm( uint8 handle, uint8 status )
//  584 {
//  585 #if defined ( MT_SAPI_CB_FUNC )
//  586   /* First check if MT has subscribed for this callback. If so , pass it as
//  587   a event to MonitorTest and return control to calling function after that */
//  588   if ( SAPICB_CHECK( SPI_CB_SAPI_SEND_DATA_CNF ) )
//  589   {
//  590     zb_MTCallbackSendDataConfirm( handle, status );
//  591   }
//  592   else
//  593 #endif  //MT_SAPI_CB_FUNC
//  594   {
//  595 #if ( SAPI_CB_FUNC )
//  596     zb_SendDataConfirm( handle, status );
//  597 #endif
//  598   }
//  599 }
//  600 
//  601 /******************************************************************************
//  602  * @fn          SAPI_BindConfirm
//  603  *
//  604  * @brief       The SAPI_BindConfirm callback is called by the ZigBee stack
//  605  *              after a bind operation completes.
//  606  *
//  607  * @param       commandId - The command ID of the binding being confirmed.
//  608  *              status - The status of the bind operation.
//  609  *              allowBind - TRUE if the bind operation was initiated by a call
//  610  *                          to zb_AllowBindRespones.  FALSE if the operation
//  611  *                          was initiated by a call to ZB_BindDevice
//  612  *
//  613  * @return      none
//  614  */
//  615 void SAPI_BindConfirm( uint16 commandId, uint8 status )
//  616 {
//  617 #if defined ( MT_SAPI_CB_FUNC )
//  618   /* First check if MT has subscribed for this callback. If so , pass it as
//  619   a event to MonitorTest and return control to calling function after that */
//  620   if ( SAPICB_CHECK( SPI_CB_SAPI_BIND_CNF ) )
//  621   {
//  622     zb_MTCallbackBindConfirm( commandId, status );
//  623   }
//  624   else
//  625 #endif  //MT_SAPI_CB_FUNC
//  626   {
//  627 #if ( SAPI_CB_FUNC )
//  628     zb_BindConfirm( commandId, status );
//  629 #endif
//  630   }
//  631 }
//  632 /******************************************************************************
//  633  * @fn          SAPI_AllowBindConfirm
//  634  *
//  635  * @brief       Indicates when another device attempted to bind to this device
//  636  *
//  637  * @param
//  638  *
//  639  * @return      none
//  640  */
//  641 void SAPI_AllowBindConfirm( uint16 source )
//  642 {
//  643   #if defined ( MT_SAPI_CB_FUNC )
//  644   /* First check if MT has subscribed for this callback. If so , pass it as
//  645   a event to MonitorTest and return control to calling function after that */
//  646   if ( SAPICB_CHECK( SPI_CB_SAPI_ALLOW_BIND_CNF ) )
//  647   {
//  648     zb_MTCallbackAllowBindConfirm( source );
//  649   }
//  650   else
//  651 #endif  //MT_SAPI_CB_FUNC
//  652   {
//  653 #if ( SAPI_CB_FUNC )
//  654     zb_AllowBindConfirm( source );
//  655 #endif
//  656   }
//  657 }
//  658 /******************************************************************************
//  659  * @fn          SAPI_FindDeviceConfirm
//  660  *
//  661  * @brief       The SAPI_FindDeviceConfirm callback function is called by the
//  662  *              ZigBee stack when a find device operation completes.
//  663  *
//  664  * @param       searchType - The type of search that was performed.
//  665  *              searchKey - Value that the search was executed on.
//  666  *              result - The result of the search.
//  667  *
//  668  * @return      none
//  669  */
//  670 void SAPI_FindDeviceConfirm( uint8 searchType, uint8 *searchKey, uint8 *result )
//  671 {
//  672 #if defined ( MT_SAPI_CB_FUNC )
//  673   /* First check if MT has subscribed for this callback. If so , pass it as
//  674   a event to MonitorTest and return control to calling function after that */
//  675   if ( SAPICB_CHECK( SPI_CB_SAPI_FIND_DEV_CNF ) )
//  676   {
//  677     zb_MTCallbackFindDeviceConfirm( searchType, searchKey, result );
//  678   }
//  679   else
//  680 #endif  //MT_SAPI_CB_FUNC
//  681   {
//  682 #if ( SAPI_CB_FUNC )
//  683     zb_FindDeviceConfirm( searchType, searchKey, result );
//  684 #endif
//  685   }
//  686 }
//  687 /******************************************************************************
//  688  * @fn          SAPI_ReceiveDataIndication
//  689  *
//  690  * @brief       The SAPI_ReceiveDataIndication callback function is called
//  691  *              asynchronously by the ZigBee stack to notify the application
//  692  *              when data is received from a peer device.
//  693  *
//  694  * @param       source - The short address of the peer device that sent the data
//  695  *              command - The commandId associated with the data
//  696  *              len - The number of bytes in the pData parameter
//  697  *              pData - The data sent by the peer device
//  698  *
//  699  * @return      none
//  700  */
//  701 void SAPI_ReceiveDataIndication( uint16 source, uint16 command, uint16 len, uint8 *pData  )
//  702 {
//  703 #if defined ( MT_SAPI_CB_FUNC )
//  704   /* First check if MT has subscribed for this callback. If so , pass it as
//  705   a event to MonitorTest and return control to calling function after that */
//  706   if ( SAPICB_CHECK( SPI_CB_SAPI_RCV_DATA_IND ) )
//  707   {
//  708     zb_MTCallbackReceiveDataIndication( source, command, len, pData  );
//  709   }
//  710   else
//  711 #endif  //MT_SAPI_CB_FUNC
//  712   {
//  713 #if ( SAPI_CB_FUNC )
//  714     zb_ReceiveDataIndication( source, command, len, pData  );
//  715 #endif
//  716   }
//  717 }
//  718 /*********************************************************************
//  719  * @fn      SAPI_ProcessEvent
//  720  *
//  721  * @brief   Simple API Task event processor.  This function
//  722  *          is called to process all events for the task.  Events
//  723  *          include timers, messages and any other user defined events.
//  724  *
//  725  * @param   task_id  - The OSAL assigned task ID.
//  726  * @param   events - events to process.  This is a bit map and can
//  727  *                   contain more than one event.
//  728  *
//  729  * @return  none
//  730  */

        RSEG BANKED_CODE:CODE:NOROOT(0)
//  731 UINT16 SAPI_ProcessEvent( byte task_id, UINT16 events )
SAPI_ProcessEvent:
        CFI Block cfiBlock45 Using cfiCommon0
        CFI Function SAPI_ProcessEvent
        CODE
//  732 {
        FUNCALL SAPI_ProcessEvent, osal_msg_receive
        LOCFRAME ISTACK, 0, STACK
        LOCFRAME PSTACK, 0, STACK
        LOCFRAME XSTACK, 15, STACK
        LOCFRAME IOVERLAY, 0, STATIC
        LOCFRAME DOVERLAY, 0, STATIC
        ARGFRAME ISTACK, 0, STACK
        ARGFRAME PSTACK, 0, STACK
        ARGFRAME XSTACK, 15, STACK
        ARGFRAME IOVERLAY, 0, STATIC
        ARGFRAME DOVERLAY, 0, STATIC
        FUNCALL SAPI_ProcessEvent, zb_StartConfirm
        LOCFRAME ISTACK, 0, STACK
        LOCFRAME PSTACK, 0, STACK
        LOCFRAME XSTACK, 15, STACK
        LOCFRAME IOVERLAY, 0, STATIC
        LOCFRAME DOVERLAY, 0, STATIC
        ARGFRAME ISTACK, 0, STACK
        ARGFRAME PSTACK, 0, STACK
        ARGFRAME XSTACK, 15, STACK
        ARGFRAME IOVERLAY, 0, STATIC
        ARGFRAME DOVERLAY, 0, STATIC
        FUNCALL SAPI_ProcessEvent, osal_msg_deallocate
        LOCFRAME ISTACK, 0, STACK
        LOCFRAME PSTACK, 0, STACK
        LOCFRAME XSTACK, 15, STACK
        LOCFRAME IOVERLAY, 0, STATIC
        LOCFRAME DOVERLAY, 0, STATIC
        ARGFRAME ISTACK, 0, STACK
        ARGFRAME PSTACK, 0, STACK
        ARGFRAME XSTACK, 15, STACK
        ARGFRAME IOVERLAY, 0, STATIC
        ARGFRAME DOVERLAY, 0, STATIC
        FUNCALL SAPI_ProcessEvent, osal_msg_receive
        LOCFRAME ISTACK, 0, STACK
        LOCFRAME PSTACK, 0, STACK
        LOCFRAME XSTACK, 15, STACK
        LOCFRAME IOVERLAY, 0, STATIC
        LOCFRAME DOVERLAY, 0, STATIC
        ARGFRAME ISTACK, 0, STACK
        ARGFRAME PSTACK, 0, STACK
        ARGFRAME XSTACK, 15, STACK
        ARGFRAME IOVERLAY, 0, STATIC
        ARGFRAME DOVERLAY, 0, STATIC
        FUNCALL SAPI_ProcessEvent, SAPI_ProcessZDOMsgs
        LOCFRAME ISTACK, 0, STACK
        LOCFRAME PSTACK, 0, STACK
        LOCFRAME XSTACK, 15, STACK
        LOCFRAME IOVERLAY, 0, STATIC
        LOCFRAME DOVERLAY, 0, STATIC
        ARGFRAME ISTACK, 0, STACK
        ARGFRAME PSTACK, 0, STACK
        ARGFRAME XSTACK, 15, STACK
        ARGFRAME IOVERLAY, 0, STATIC
        ARGFRAME DOVERLAY, 0, STATIC
        FUNCALL SAPI_ProcessEvent, zb_SendDataConfirm
        LOCFRAME ISTACK, 0, STACK
        LOCFRAME PSTACK, 0, STACK
        LOCFRAME XSTACK, 15, STACK
        LOCFRAME IOVERLAY, 0, STATIC
        LOCFRAME DOVERLAY, 0, STATIC
        ARGFRAME ISTACK, 0, STACK
        ARGFRAME PSTACK, 0, STACK
        ARGFRAME XSTACK, 15, STACK
        ARGFRAME IOVERLAY, 0, STATIC
        ARGFRAME DOVERLAY, 0, STATIC
        FUNCALL SAPI_ProcessEvent, zb_ReceiveDataIndication
        LOCFRAME ISTACK, 0, STACK
        LOCFRAME PSTACK, 0, STACK
        LOCFRAME XSTACK, 19, STACK
        LOCFRAME IOVERLAY, 0, STATIC
        LOCFRAME DOVERLAY, 0, STATIC
        ARGFRAME ISTACK, 0, STACK
        ARGFRAME PSTACK, 0, STACK
        ARGFRAME XSTACK, 19, STACK
        ARGFRAME IOVERLAY, 0, STATIC
        ARGFRAME DOVERLAY, 0, STATIC
        FUNCALL SAPI_ProcessEvent, zb_StartConfirm
        LOCFRAME ISTACK, 0, STACK
        LOCFRAME PSTACK, 0, STACK
        LOCFRAME XSTACK, 15, STACK
        LOCFRAME IOVERLAY, 0, STATIC
        LOCFRAME DOVERLAY, 0, STATIC
        ARGFRAME ISTACK, 0, STACK
        ARGFRAME PSTACK, 0, STACK
        ARGFRAME XSTACK, 15, STACK
        ARGFRAME IOVERLAY, 0, STATIC
        ARGFRAME DOVERLAY, 0, STATIC
        FUNCALL SAPI_ProcessEvent, zb_StartConfirm
        LOCFRAME ISTACK, 0, STACK
        LOCFRAME PSTACK, 0, STACK
        LOCFRAME XSTACK, 15, STACK
        LOCFRAME IOVERLAY, 0, STATIC
        LOCFRAME DOVERLAY, 0, STATIC
        ARGFRAME ISTACK, 0, STACK
        ARGFRAME PSTACK, 0, STACK
        ARGFRAME XSTACK, 15, STACK
        ARGFRAME IOVERLAY, 0, STATIC
        ARGFRAME DOVERLAY, 0, STATIC
        FUNCALL SAPI_ProcessEvent, zb_AllowBindConfirm
        LOCFRAME ISTACK, 0, STACK
        LOCFRAME PSTACK, 0, STACK
        LOCFRAME XSTACK, 15, STACK
        LOCFRAME IOVERLAY, 0, STATIC
        LOCFRAME DOVERLAY, 0, STATIC
        ARGFRAME ISTACK, 0, STACK
        ARGFRAME PSTACK, 0, STACK
        ARGFRAME XSTACK, 15, STACK
        ARGFRAME IOVERLAY, 0, STATIC
        ARGFRAME DOVERLAY, 0, STATIC
        FUNCALL SAPI_ProcessEvent, zb_HandleKeys
        LOCFRAME ISTACK, 0, STACK
        LOCFRAME PSTACK, 0, STACK
        LOCFRAME XSTACK, 15, STACK
        LOCFRAME IOVERLAY, 0, STATIC
        LOCFRAME DOVERLAY, 0, STATIC
        ARGFRAME ISTACK, 0, STACK
        ARGFRAME PSTACK, 0, STACK
        ARGFRAME XSTACK, 15, STACK
        ARGFRAME IOVERLAY, 0, STATIC
        ARGFRAME DOVERLAY, 0, STATIC
        FUNCALL SAPI_ProcessEvent, zb_SendDataConfirm
        LOCFRAME ISTACK, 0, STACK
        LOCFRAME PSTACK, 0, STACK
        LOCFRAME XSTACK, 15, STACK
        LOCFRAME IOVERLAY, 0, STATIC
        LOCFRAME DOVERLAY, 0, STATIC
        ARGFRAME ISTACK, 0, STACK
        ARGFRAME PSTACK, 0, STACK
        ARGFRAME XSTACK, 15, STACK
        ARGFRAME IOVERLAY, 0, STATIC
        ARGFRAME DOVERLAY, 0, STATIC
        FUNCALL SAPI_ProcessEvent, zb_BindConfirm
        LOCFRAME ISTACK, 0, STACK
        LOCFRAME PSTACK, 0, STACK
        LOCFRAME XSTACK, 15, STACK
        LOCFRAME IOVERLAY, 0, STATIC
        LOCFRAME DOVERLAY, 0, STATIC
        ARGFRAME ISTACK, 0, STACK
        ARGFRAME PSTACK, 0, STACK
        ARGFRAME XSTACK, 15, STACK
        ARGFRAME IOVERLAY, 0, STATIC
        ARGFRAME DOVERLAY, 0, STATIC
        FUNCALL SAPI_ProcessEvent, afSetMatch
        LOCFRAME ISTACK, 0, STACK
        LOCFRAME PSTACK, 0, STACK
        LOCFRAME XSTACK, 15, STACK
        LOCFRAME IOVERLAY, 0, STATIC
        LOCFRAME DOVERLAY, 0, STATIC
        ARGFRAME ISTACK, 0, STACK
        ARGFRAME PSTACK, 0, STACK
        ARGFRAME XSTACK, 15, STACK
        ARGFRAME IOVERLAY, 0, STATIC
        ARGFRAME DOVERLAY, 0, STATIC
        FUNCALL SAPI_ProcessEvent, zb_BindConfirm
        LOCFRAME ISTACK, 0, STACK
        LOCFRAME PSTACK, 0, STACK
        LOCFRAME XSTACK, 15, STACK
        LOCFRAME IOVERLAY, 0, STATIC
        LOCFRAME DOVERLAY, 0, STATIC
        ARGFRAME ISTACK, 0, STACK
        ARGFRAME PSTACK, 0, STACK
        ARGFRAME XSTACK, 15, STACK
        ARGFRAME IOVERLAY, 0, STATIC
        ARGFRAME DOVERLAY, 0, STATIC
        FUNCALL SAPI_ProcessEvent, zb_HandleOsalEvent
        LOCFRAME ISTACK, 0, STACK
        LOCFRAME PSTACK, 0, STACK
        LOCFRAME XSTACK, 15, STACK
        LOCFRAME IOVERLAY, 0, STATIC
        LOCFRAME DOVERLAY, 0, STATIC
        ARGFRAME ISTACK, 0, STACK
        ARGFRAME PSTACK, 0, STACK
        ARGFRAME XSTACK, 15, STACK
        ARGFRAME IOVERLAY, 0, STATIC
        ARGFRAME DOVERLAY, 0, STATIC
        FUNCALL SAPI_ProcessEvent, HalLedSet
        LOCFRAME ISTACK, 0, STACK
        LOCFRAME PSTACK, 0, STACK
        LOCFRAME XSTACK, 15, STACK
        LOCFRAME IOVERLAY, 0, STATIC
        LOCFRAME DOVERLAY, 0, STATIC
        ARGFRAME ISTACK, 0, STACK
        ARGFRAME PSTACK, 0, STACK
        ARGFRAME XSTACK, 15, STACK
        ARGFRAME IOVERLAY, 0, STATIC
        ARGFRAME DOVERLAY, 0, STATIC
        FUNCALL SAPI_ProcessEvent, zb_ReadConfiguration
        LOCFRAME ISTACK, 0, STACK
        LOCFRAME PSTACK, 0, STACK
        LOCFRAME XSTACK, 15, STACK
        LOCFRAME IOVERLAY, 0, STATIC
        LOCFRAME DOVERLAY, 0, STATIC
        ARGFRAME ISTACK, 0, STACK
        ARGFRAME PSTACK, 0, STACK
        ARGFRAME XSTACK, 15, STACK
        ARGFRAME IOVERLAY, 0, STATIC
        ARGFRAME DOVERLAY, 0, STATIC
        FUNCALL SAPI_ProcessEvent, zb_StartRequest
        LOCFRAME ISTACK, 0, STACK
        LOCFRAME PSTACK, 0, STACK
        LOCFRAME XSTACK, 15, STACK
        LOCFRAME IOVERLAY, 0, STATIC
        LOCFRAME DOVERLAY, 0, STATIC
        ARGFRAME ISTACK, 0, STACK
        ARGFRAME PSTACK, 0, STACK
        ARGFRAME XSTACK, 15, STACK
        ARGFRAME IOVERLAY, 0, STATIC
        ARGFRAME DOVERLAY, 0, STATIC
        FUNCALL SAPI_ProcessEvent, HalLedBlink
        LOCFRAME ISTACK, 0, STACK
        LOCFRAME PSTACK, 0, STACK
        LOCFRAME XSTACK, 15, STACK
        LOCFRAME IOVERLAY, 0, STATIC
        LOCFRAME DOVERLAY, 0, STATIC
        ARGFRAME ISTACK, 0, STACK
        ARGFRAME PSTACK, 0, STACK
        ARGFRAME XSTACK, 15, STACK
        ARGFRAME IOVERLAY, 0, STATIC
        ARGFRAME DOVERLAY, 0, STATIC
        FUNCALL SAPI_ProcessEvent, zb_HandleOsalEvent
        LOCFRAME ISTACK, 0, STACK
        LOCFRAME PSTACK, 0, STACK
        LOCFRAME XSTACK, 15, STACK
        LOCFRAME IOVERLAY, 0, STATIC
        LOCFRAME DOVERLAY, 0, STATIC
        ARGFRAME ISTACK, 0, STACK
        ARGFRAME PSTACK, 0, STACK
        ARGFRAME XSTACK, 15, STACK
        ARGFRAME IOVERLAY, 0, STATIC
        ARGFRAME DOVERLAY, 0, STATIC
        MOV     A,#-0xe
        LCALL   ?BANKED_ENTER_XDATA
        CFI DPH0 load(1, XDATA, add(CFA_XSP16, literal(-1)))
        CFI DPL0 load(1, XDATA, add(CFA_XSP16, literal(-2)))
        CFI ?BRET_EXT load(1, XDATA, add(CFA_XSP16, literal(-3)))
        CFI ?RET_HIGH load(1, XDATA, add(CFA_XSP16, literal(-4)))
        CFI ?RET_LOW load(1, XDATA, add(CFA_XSP16, literal(-5)))
        CFI R7 load(1, XDATA, add(CFA_XSP16, literal(-6)))
        CFI V5 load(1, XDATA, add(CFA_XSP16, literal(-7)))
        CFI V4 load(1, XDATA, add(CFA_XSP16, literal(-8)))
        CFI V3 load(1, XDATA, add(CFA_XSP16, literal(-9)))
        CFI V2 load(1, XDATA, add(CFA_XSP16, literal(-10)))
        CFI V1 load(1, XDATA, add(CFA_XSP16, literal(-11)))
        CFI V0 load(1, XDATA, add(CFA_XSP16, literal(-12)))
        CFI VB load(1, XDATA, add(CFA_XSP16, literal(-13)))
        CFI R6 load(1, XDATA, add(CFA_XSP16, literal(-14)))
        CFI CFA_SP SP+0
        CFI CFA_XSP16 add(XSP16, 14)
        ; Saved register size: 14
        ; Auto size: 1
        MOV     A,#-0x1
        LCALL   ?ALLOC_XSTACK8
        CFI CFA_XSP16 add(XSP16, 15)
        MOV     ?V0 + 2,R1
        MOV     ?V0 + 0,R2
        MOV     ?V0 + 1,R3
//  733   osal_event_hdr_t *pMsg;
//  734   afIncomingMSGPacket_t *pMSGpkt;
//  735   afDataConfirm_t *pDataConfirm;
//  736 
//  737   if ( events & SYS_EVENT_MSG )
        MOV     A,R3
        ANL     A,#0x80
        JNZ     $+5
        LJMP    ??SAPI_ProcessEvent_0 & 0xFFFF
//  738   {
//  739     pMsg = (osal_event_hdr_t *) osal_msg_receive( task_id );
        ; Setup parameters for call to function osal_msg_receive
        SJMP    ??SAPI_ProcessEvent_1
//  740     while ( pMsg )
//  741     {
//  742       switch ( pMsg->event )
//  743       {
//  744         case ZDO_CB_MSG:
//  745           SAPI_ProcessZDOMsgs( (zdoIncomingMsg_t *)pMsg );
//  746           break;
//  747 
//  748         case AF_DATA_CONFIRM_CMD:
//  749           // This message is received as a confirmation of a data packet sent.
//  750           // The status is of ZStatus_t type [defined in ZComDef.h]
//  751           // The message fields are defined in AF.h
//  752           pDataConfirm = (afDataConfirm_t *) pMsg;
//  753           SAPI_SendDataConfirm( pDataConfirm->transID, pDataConfirm->hdr.status );
//  754           break;
//  755 
//  756         case AF_INCOMING_MSG_CMD:
//  757           pMSGpkt = (afIncomingMSGPacket_t *) pMsg;
//  758           SAPI_ReceiveDataIndication( pMSGpkt->srcAddr.addr.shortAddr, pMSGpkt->clusterId,
//  759                                     pMSGpkt->cmd.DataLength, pMSGpkt->cmd.Data);
//  760           break;
//  761 
//  762         case ZDO_STATE_CHANGE:
//  763           // If the device has started up, notify the application
//  764           if (pMsg->status == DEV_END_DEVICE ||
//  765               pMsg->status == DEV_ROUTER ||
//  766               pMsg->status == DEV_ZB_COORD )
//  767           {
//  768             SAPI_StartConfirm( ZB_SUCCESS );
//  769           }
//  770           else  if (pMsg->status == DEV_HOLD ||
//  771                   pMsg->status == DEV_INIT)
//  772           {
//  773             SAPI_StartConfirm( ZB_INIT );
//  774           }
//  775           break;
//  776 
//  777         case ZDO_MATCH_DESC_RSP_SENT:
//  778           SAPI_AllowBindConfirm( ((ZDO_MatchDescRspSent_t *)pMsg)->nwkAddr );
//  779           break;
//  780 
//  781         case KEY_CHANGE:
//  782 #if ( SAPI_CB_FUNC )
//  783           zb_HandleKeys( ((keyChange_t *)pMsg)->state, ((keyChange_t *)pMsg)->keys );
//  784 #endif
//  785           break;
//  786 
//  787         case SAPICB_DATA_CNF:
//  788           SAPI_SendDataConfirm( (uint8)((sapi_CbackEvent_t *)pMsg)->data,
//  789                                     ((sapi_CbackEvent_t *)pMsg)->hdr.status );
//  790           break;
//  791 
//  792         case SAPICB_BIND_CNF:
//  793           SAPI_BindConfirm( ((sapi_CbackEvent_t *)pMsg)->data,
//  794                               ((sapi_CbackEvent_t *)pMsg)->hdr.status );
//  795           break;
//  796 
//  797         case SAPICB_START_CNF:
//  798           SAPI_StartConfirm( ((sapi_CbackEvent_t *)pMsg)->hdr.status );
??SAPI_ProcessEvent_2:
        ; Setup parameters for call to function zb_StartConfirm
        INC     DPTR
        MOVX    A,@DPTR
        MOV     R1,A
??SAPI_ProcessEvent_3:
        LCALL   ??zb_StartConfirm?relay
//  799           break;
//  800 
//  801         default:
//  802           // User messages should be handled by user or passed to the application
//  803           if ( pMsg->event >= ZB_USER_MSG )
//  804           {
//  805 
//  806           }
//  807           break;
//  808       }
//  809 
//  810       // Release the memory
//  811       osal_msg_deallocate( (uint8 *) pMsg );
??SAPI_ProcessEvent_4:
        ; Setup parameters for call to function osal_msg_deallocate
        MOV     A,R6
        MOV     R2,A
        MOV     A,R7
        MOV     R3,A
        LCALL   ??osal_msg_deallocate?relay
//  812 
//  813       // Next
//  814       pMsg = (osal_event_hdr_t *) osal_msg_receive( task_id );
        ; Setup parameters for call to function osal_msg_receive
        MOV     R1,?V0 + 2
??SAPI_ProcessEvent_1:
        LCALL   ??osal_msg_receive?relay
        MOV     ?V0 + 4,R2
        MOV     ?V0 + 5,R3
        MOV     R6,?V0 + 4
        MOV     R7,?V0 + 5
        MOV     A,R6
        ORL     A,R7
        JNZ     $+5
        LJMP    ??SAPI_ProcessEvent_5 & 0xFFFF
        MOV     DPL,R6
        MOV     DPH,R7
        MOVX    A,@DPTR
        ADD     A,#-0x1a
        JZ      ??SAPI_ProcessEvent_6
        ADD     A,#0x5a
        JNZ     $+5
        LJMP    ??SAPI_ProcessEvent_7 & 0xFFFF
        ADD     A,#-0x11
        JZ      ??SAPI_ProcessEvent_8
        DEC     A
        JNZ     $+5
        LJMP    ??SAPI_ProcessEvent_9 & 0xFFFF
        DEC     A
        JZ      ??SAPI_ProcessEvent_10
        ADD     A,#-0xd
        JNZ     $+5
        LJMP    ??SAPI_ProcessEvent_11 & 0xFFFF
        DEC     A
        JNZ     $+5
        LJMP    ??SAPI_ProcessEvent_12 & 0xFFFF
        DEC     A
        JZ      ??SAPI_ProcessEvent_2
        ADD     A,#-0x1b
        JZ      ??SAPI_ProcessEvent_13
        SJMP    ??SAPI_ProcessEvent_4
??SAPI_ProcessEvent_10:
        ; Setup parameters for call to function SAPI_ProcessZDOMsgs
        MOV     A,R6
        MOV     R2,A
        MOV     A,R7
        MOV     R3,A
        LCALL   ??SAPI_ProcessZDOMsgs?relay
        SJMP    ??SAPI_ProcessEvent_4
??SAPI_ProcessEvent_13:
        ; Setup parameters for call to function zb_SendDataConfirm
        LCALL   ?Subroutine12 & 0xFFFF
??CrossCallReturnLabel_8:
        INC     DPTR
??SAPI_ProcessEvent_14:
        INC     DPTR
        INC     DPTR
        MOVX    A,@DPTR
        MOV     R1,A
        LCALL   ??zb_SendDataConfirm?relay
        SJMP    ??SAPI_ProcessEvent_4
??SAPI_ProcessEvent_6:
        ; Setup parameters for call to function zb_ReceiveDataIndication
        MOV     A,R6
        ADD     A,#0x22
        MOV     DPL,A
        MOV     A,R7
        ADDC    A,#0x0
        MOV     DPH,A
        LCALL   ?PUSH_XSTACK8_X_TWO
        CFI CFA_XSP16 add(XSP16, 17)
        MOV     A,R6
        ADD     A,#0x20
        MOV     DPL,A
        MOV     A,R7
        ADDC    A,#0x0
        MOV     DPH,A
        LCALL   ?PUSH_XSTACK8_X_TWO
        CFI CFA_XSP16 add(XSP16, 19)
        MOV     DPL,R6
        MOV     DPH,R7
        INC     DPTR
        INC     DPTR
        INC     DPTR
        INC     DPTR
        MOVX    A,@DPTR
        MOV     R4,A
        INC     DPTR
        MOVX    A,@DPTR
        MOV     R5,A
        MOV     DPL,R6
        MOV     DPH,R7
        INC     DPTR
        INC     DPTR
        INC     DPTR
        INC     DPTR
        LCALL   ?Subroutine11 & 0xFFFF
??CrossCallReturnLabel_30:
        LCALL   ??zb_ReceiveDataIndication?relay
        MOV     A,#0x4
        LCALL   ?DEALLOC_XSTACK8
        CFI CFA_XSP16 add(XSP16, 15)
        LJMP    ??SAPI_ProcessEvent_4 & 0xFFFF
??SAPI_ProcessEvent_8:
        INC     DPTR
        MOVX    A,@DPTR
        XRL     A,#0x6
        JZ      ??SAPI_ProcessEvent_15
        MOV     DPL,R6
        MOV     DPH,R7
        INC     DPTR
        MOVX    A,@DPTR
        XRL     A,#0x7
        JZ      ??SAPI_ProcessEvent_15
        MOV     DPL,R6
        MOV     DPH,R7
        INC     DPTR
        MOVX    A,@DPTR
        XRL     A,#0x9
        JNZ     ??SAPI_ProcessEvent_16
??SAPI_ProcessEvent_15:
        ; Setup parameters for call to function zb_StartConfirm
        MOV     R1,#0x0
        LJMP    ??SAPI_ProcessEvent_3 & 0xFFFF
??SAPI_ProcessEvent_16:
        MOV     DPL,R6
        MOV     DPH,R7
        INC     DPTR
        MOVX    A,@DPTR
        JZ      ??SAPI_ProcessEvent_17
        XRL     A,#0x1
        JZ      $+5
        LJMP    ??SAPI_ProcessEvent_4 & 0xFFFF
??SAPI_ProcessEvent_17:
        ; Setup parameters for call to function zb_StartConfirm
        MOV     R1,#0x22
        LJMP    ??SAPI_ProcessEvent_3 & 0xFFFF
??SAPI_ProcessEvent_9:
        ; Setup parameters for call to function zb_AllowBindConfirm
        LCALL   ?Subroutine11 & 0xFFFF
??CrossCallReturnLabel_31:
        LCALL   ??zb_AllowBindConfirm?relay
        LJMP    ??SAPI_ProcessEvent_4 & 0xFFFF
??SAPI_ProcessEvent_7:
        ; Setup parameters for call to function zb_HandleKeys
        INC     DPTR
        INC     DPTR
        LCALL   ?Subroutine12 & 0xFFFF
??CrossCallReturnLabel_9:
        INC     DPTR
        INC     DPTR
        MOVX    A,@DPTR
        MOV     R1,A
        LCALL   ??zb_HandleKeys?relay
        LJMP    ??SAPI_ProcessEvent_4 & 0xFFFF
??SAPI_ProcessEvent_11:
        ; Setup parameters for call to function zb_SendDataConfirm
        LCALL   ?Subroutine12 & 0xFFFF
??CrossCallReturnLabel_10:
        LJMP    ??SAPI_ProcessEvent_14 & 0xFFFF
??SAPI_ProcessEvent_12:
        ; Setup parameters for call to function zb_BindConfirm
        INC     DPTR
        MOVX    A,@DPTR
        MOV     R1,A
        MOV     DPL,R6
        MOV     DPH,R7
        LCALL   ?Subroutine11 & 0xFFFF
??CrossCallReturnLabel_32:
        LCALL   ??zb_BindConfirm?relay
        LJMP    ??SAPI_ProcessEvent_4 & 0xFFFF
//  815     }
//  816 
//  817     // Return unprocessed events
//  818     return (events ^ SYS_EVENT_MSG);
??SAPI_ProcessEvent_5:
        MOV     R2,?V0 + 0
        MOV     A,?V0 + 1
        XRL     A,#0x80
??SAPI_ProcessEvent_18:
        MOV     R3,A
        SJMP    ??SAPI_ProcessEvent_19
//  819   }
//  820 
//  821   if ( events & ZB_ALLOW_BIND_TIMER )
??SAPI_ProcessEvent_0:
        MOV     A,R3
        ANL     A,#0x40
        JZ      ??SAPI_ProcessEvent_20
//  822   {
//  823     afSetMatch(sapi_epDesc.simpleDesc->EndPoint, FALSE);
        ; Setup parameters for call to function afSetMatch
        LCALL   ?Subroutine6 & 0xFFFF
//  824     return (events ^ ZB_ALLOW_BIND_TIMER);
??CrossCallReturnLabel_21:
        MOV     R2,?V0 + 0
        MOV     A,?V0 + 1
        XRL     A,#0x40
        SJMP    ??SAPI_ProcessEvent_18
//  825   }
//  826 
//  827   if ( events & ZB_BIND_TIMER )
??SAPI_ProcessEvent_20:
        MOV     A,R3
        ANL     A,#0x20
        JZ      ??SAPI_ProcessEvent_21
//  828   {
//  829     // Send bind confirm callback to application
//  830     SAPI_BindConfirm( sapi_bindInProgress, ZB_TIMEOUT );
        ; Setup parameters for call to function zb_BindConfirm
        MOV     R1,#0x21
        LCALL   ?Subroutine8 & 0xFFFF
//  831     sapi_bindInProgress = 0xffff;
//  832 
//  833     return (events ^ ZB_BIND_TIMER);
??CrossCallReturnLabel_4:
        MOV     R2,?V0 + 0
        MOV     A,?V0 + 1
        XRL     A,#0x20
        SJMP    ??SAPI_ProcessEvent_18
//  834   }
//  835 
//  836   if ( events & ZB_ENTRY_EVENT )
??SAPI_ProcessEvent_21:
        MOV     A,R3
        ANL     A,#0x10
        JZ      ??SAPI_ProcessEvent_22
//  837   {
//  838     uint8 startOptions;
//  839 
//  840     // Give indication to application of device startup
//  841 #if ( SAPI_CB_FUNC )
//  842     zb_HandleOsalEvent( ZB_ENTRY_EVENT );
        ; Setup parameters for call to function zb_HandleOsalEvent
        MOV     R2,#0x0
        MOV     R3,#0x10
        LCALL   ??zb_HandleOsalEvent?relay
//  843 #endif
//  844 
//  845     // LED off cancels HOLD_AUTO_START blink set in the stack
//  846     HalLedSet (HAL_LED_4, HAL_LED_MODE_OFF);
        ; Setup parameters for call to function HalLedSet
        MOV     R2,#0x0
        MOV     R1,#0x8
        LCALL   ??HalLedSet?relay
//  847 
//  848     zb_ReadConfiguration( ZCD_NV_STARTUP_OPTION, sizeof(uint8), &startOptions );
        ; Setup parameters for call to function zb_ReadConfiguration
        MOV     DPL,?XSP + 0
        MOV     DPH,?XSP + 1
        MOV     R4,DPL
        MOV     R5,DPH
        MOV     R2,#0x1
        MOV     R1,#0x3
        LCALL   ?Subroutine5 & 0xFFFF
//  849     if ( startOptions & ZCD_STARTOPT_AUTO_START )
??CrossCallReturnLabel_1:
        MOV     C,0xE0 /* A   */.2
        JNC     ??SAPI_ProcessEvent_23
//  850     {
//  851       zb_StartRequest();
        ; Setup parameters for call to function zb_StartRequest
        LCALL   ??zb_StartRequest?relay
        SJMP    ??SAPI_ProcessEvent_24
//  852     }
//  853     else
//  854     {
//  855       // blink leds and wait for external input to config and restart
//  856       HalLedBlink(HAL_LED_2, 0, 50, 500);
??SAPI_ProcessEvent_23:
        ; Setup parameters for call to function HalLedBlink
        MOV     R4,#-0xc
        MOV     R5,#0x1
        MOV     R3,#0x32
        MOV     R2,#0x0
        MOV     R1,#0x2
        LCALL   ??HalLedBlink?relay
//  857     }
//  858 
//  859     return (events ^ ZB_ENTRY_EVENT );
??SAPI_ProcessEvent_24:
        MOV     R2,?V0 + 0
        MOV     A,?V0 + 1
        XRL     A,#0x10
        SJMP    ??SAPI_ProcessEvent_18
//  860   }
//  861 
//  862   // This must be the last event to be processed
//  863   if ( events & ( ZB_USER_EVENTS ) )
??SAPI_ProcessEvent_22:
        MOV     A,R2
        JZ      ??SAPI_ProcessEvent_25
//  864   {
//  865     // User events are passed to the application
//  866 #if ( SAPI_CB_FUNC )
//  867     zb_HandleOsalEvent( events );
        ; Setup parameters for call to function zb_HandleOsalEvent
        LCALL   ??zb_HandleOsalEvent?relay
//  868 #endif
//  869 
//  870     // Do not return here, return 0 later
//  871   }
//  872 
//  873   // Discard unknown events
//  874   return 0;
??SAPI_ProcessEvent_25:
        MOV     R2,#0x0
        MOV     R3,#0x0
??SAPI_ProcessEvent_19:
        MOV     A,#0x1
        LJMP    ?Subroutine3 & 0xFFFF
        CFI EndBlock cfiBlock45
//  875 }

        RSEG BANKED_CODE:CODE:NOROOT(0)
?Subroutine12:
        CFI Block cfiCond46 Using cfiCommon0
        CFI NoFunction
        CFI Conditional ??CrossCallReturnLabel_8
        CFI R6 load(1, XDATA, add(CFA_XSP16, literal(-14)))
        CFI VB load(1, XDATA, add(CFA_XSP16, literal(-13)))
        CFI V0 load(1, XDATA, add(CFA_XSP16, literal(-12)))
        CFI V1 load(1, XDATA, add(CFA_XSP16, literal(-11)))
        CFI V2 load(1, XDATA, add(CFA_XSP16, literal(-10)))
        CFI V3 load(1, XDATA, add(CFA_XSP16, literal(-9)))
        CFI V4 load(1, XDATA, add(CFA_XSP16, literal(-8)))
        CFI V5 load(1, XDATA, add(CFA_XSP16, literal(-7)))
        CFI R7 load(1, XDATA, add(CFA_XSP16, literal(-6)))
        CFI ?RET_LOW load(1, XDATA, add(CFA_XSP16, literal(-5)))
        CFI ?RET_HIGH load(1, XDATA, add(CFA_XSP16, literal(-4)))
        CFI ?BRET_EXT load(1, XDATA, add(CFA_XSP16, literal(-3)))
        CFI DPL0 load(1, XDATA, add(CFA_XSP16, literal(-2)))
        CFI DPH0 load(1, XDATA, add(CFA_XSP16, literal(-1)))
        CFI CFA_SP SP+0
        CFI CFA_XSP16 add(XSP16, 15)
        CFI Block cfiCond47 Using cfiCommon0
        CFI (cfiCond47) NoFunction
        CFI (cfiCond47) Conditional ??CrossCallReturnLabel_9
        CFI (cfiCond47) R6 load(1, XDATA, add(CFA_XSP16, literal(-14)))
        CFI (cfiCond47) VB load(1, XDATA, add(CFA_XSP16, literal(-13)))
        CFI (cfiCond47) V0 load(1, XDATA, add(CFA_XSP16, literal(-12)))
        CFI (cfiCond47) V1 load(1, XDATA, add(CFA_XSP16, literal(-11)))
        CFI (cfiCond47) V2 load(1, XDATA, add(CFA_XSP16, literal(-10)))
        CFI (cfiCond47) V3 load(1, XDATA, add(CFA_XSP16, literal(-9)))
        CFI (cfiCond47) V4 load(1, XDATA, add(CFA_XSP16, literal(-8)))
        CFI (cfiCond47) V5 load(1, XDATA, add(CFA_XSP16, literal(-7)))
        CFI (cfiCond47) R7 load(1, XDATA, add(CFA_XSP16, literal(-6)))
        CFI (cfiCond47) ?RET_LOW load(1, XDATA, add(CFA_XSP16, literal(-5)))
        CFI (cfiCond47) ?RET_HIGH load(1, XDATA, add(CFA_XSP16, literal(-4)))
        CFI (cfiCond47) ?BRET_EXT load(1, XDATA, add(CFA_XSP16, literal(-3)))
        CFI (cfiCond47) DPL0 load(1, XDATA, add(CFA_XSP16, literal(-2)))
        CFI (cfiCond47) DPH0 load(1, XDATA, add(CFA_XSP16, literal(-1)))
        CFI (cfiCond47) CFA_SP SP+0
        CFI (cfiCond47) CFA_XSP16 add(XSP16, 15)
        CFI Block cfiCond48 Using cfiCommon0
        CFI (cfiCond48) NoFunction
        CFI (cfiCond48) Conditional ??CrossCallReturnLabel_10
        CFI (cfiCond48) R6 load(1, XDATA, add(CFA_XSP16, literal(-14)))
        CFI (cfiCond48) VB load(1, XDATA, add(CFA_XSP16, literal(-13)))
        CFI (cfiCond48) V0 load(1, XDATA, add(CFA_XSP16, literal(-12)))
        CFI (cfiCond48) V1 load(1, XDATA, add(CFA_XSP16, literal(-11)))
        CFI (cfiCond48) V2 load(1, XDATA, add(CFA_XSP16, literal(-10)))
        CFI (cfiCond48) V3 load(1, XDATA, add(CFA_XSP16, literal(-9)))
        CFI (cfiCond48) V4 load(1, XDATA, add(CFA_XSP16, literal(-8)))
        CFI (cfiCond48) V5 load(1, XDATA, add(CFA_XSP16, literal(-7)))
        CFI (cfiCond48) R7 load(1, XDATA, add(CFA_XSP16, literal(-6)))
        CFI (cfiCond48) ?RET_LOW load(1, XDATA, add(CFA_XSP16, literal(-5)))
        CFI (cfiCond48) ?RET_HIGH load(1, XDATA, add(CFA_XSP16, literal(-4)))
        CFI (cfiCond48) ?BRET_EXT load(1, XDATA, add(CFA_XSP16, literal(-3)))
        CFI (cfiCond48) DPL0 load(1, XDATA, add(CFA_XSP16, literal(-2)))
        CFI (cfiCond48) DPH0 load(1, XDATA, add(CFA_XSP16, literal(-1)))
        CFI (cfiCond48) CFA_SP SP+0
        CFI (cfiCond48) CFA_XSP16 add(XSP16, 15)
        CFI Block cfiPicker49 Using cfiCommon1
        CFI (cfiPicker49) NoFunction
        CFI (cfiPicker49) Picker
        INC     DPTR
        MOVX    A,@DPTR
        MOV     R2,A
        MOV     DPL,R6
        MOV     DPH,R7
        RET
        CFI EndBlock cfiCond46
        CFI EndBlock cfiCond47
        CFI EndBlock cfiCond48
        CFI EndBlock cfiPicker49

        RSEG BANKED_CODE:CODE:NOROOT(0)
?Subroutine6:
        CFI Block cfiCond50 Using cfiCommon0
        CFI NoFunction
        CFI Conditional ??CrossCallReturnLabel_20
        CFI R6 load(1, XDATA, add(CFA_XSP16, literal(-9)))
        CFI VB load(1, XDATA, add(CFA_XSP16, literal(-8)))
        CFI V0 load(1, XDATA, add(CFA_XSP16, literal(-7)))
        CFI R7 load(1, XDATA, add(CFA_XSP16, literal(-6)))
        CFI ?RET_LOW load(1, XDATA, add(CFA_XSP16, literal(-5)))
        CFI ?RET_HIGH load(1, XDATA, add(CFA_XSP16, literal(-4)))
        CFI ?BRET_EXT load(1, XDATA, add(CFA_XSP16, literal(-3)))
        CFI DPL0 load(1, XDATA, add(CFA_XSP16, literal(-2)))
        CFI DPH0 load(1, XDATA, add(CFA_XSP16, literal(-1)))
        CFI CFA_SP SP+0
        CFI CFA_XSP16 add(XSP16, 9)
        CFI Block cfiCond51 Using cfiCommon0
        CFI (cfiCond51) NoFunction
        CFI (cfiCond51) Conditional ??CrossCallReturnLabel_21
        CFI (cfiCond51) R6 load(1, XDATA, add(CFA_XSP16, literal(-14)))
        CFI (cfiCond51) VB load(1, XDATA, add(CFA_XSP16, literal(-13)))
        CFI (cfiCond51) V0 load(1, XDATA, add(CFA_XSP16, literal(-12)))
        CFI (cfiCond51) V1 load(1, XDATA, add(CFA_XSP16, literal(-11)))
        CFI (cfiCond51) V2 load(1, XDATA, add(CFA_XSP16, literal(-10)))
        CFI (cfiCond51) V3 load(1, XDATA, add(CFA_XSP16, literal(-9)))
        CFI (cfiCond51) V4 load(1, XDATA, add(CFA_XSP16, literal(-8)))
        CFI (cfiCond51) V5 load(1, XDATA, add(CFA_XSP16, literal(-7)))
        CFI (cfiCond51) R7 load(1, XDATA, add(CFA_XSP16, literal(-6)))
        CFI (cfiCond51) ?RET_LOW load(1, XDATA, add(CFA_XSP16, literal(-5)))
        CFI (cfiCond51) ?RET_HIGH load(1, XDATA, add(CFA_XSP16, literal(-4)))
        CFI (cfiCond51) ?BRET_EXT load(1, XDATA, add(CFA_XSP16, literal(-3)))
        CFI (cfiCond51) DPL0 load(1, XDATA, add(CFA_XSP16, literal(-2)))
        CFI (cfiCond51) DPH0 load(1, XDATA, add(CFA_XSP16, literal(-1)))
        CFI (cfiCond51) CFA_SP SP+0
        CFI (cfiCond51) CFA_XSP16 add(XSP16, 15)
        CFI Block cfiCond52 Using cfiCommon0
        CFI (cfiCond52) NoFunction
        CFI (cfiCond52) Conditional ??CrossCallReturnLabel_22
        CFI (cfiCond52) R6 load(1, XDATA, add(CFA_XSP16, literal(-9)))
        CFI (cfiCond52) VB load(1, XDATA, add(CFA_XSP16, literal(-8)))
        CFI (cfiCond52) V0 load(1, XDATA, add(CFA_XSP16, literal(-7)))
        CFI (cfiCond52) R7 load(1, XDATA, add(CFA_XSP16, literal(-6)))
        CFI (cfiCond52) ?RET_LOW load(1, XDATA, add(CFA_XSP16, literal(-5)))
        CFI (cfiCond52) ?RET_HIGH load(1, XDATA, add(CFA_XSP16, literal(-4)))
        CFI (cfiCond52) ?BRET_EXT load(1, XDATA, add(CFA_XSP16, literal(-3)))
        CFI (cfiCond52) DPL0 load(1, XDATA, add(CFA_XSP16, literal(-2)))
        CFI (cfiCond52) DPH0 load(1, XDATA, add(CFA_XSP16, literal(-1)))
        CFI (cfiCond52) CFA_SP SP+0
        CFI (cfiCond52) CFA_XSP16 add(XSP16, 10)
        CFI Block cfiPicker53 Using cfiCommon1
        CFI (cfiPicker53) NoFunction
        CFI (cfiPicker53) Picker
        MOV     R2,#0x0
        CFI EndBlock cfiCond50
        CFI EndBlock cfiCond51
        CFI EndBlock cfiCond52
        CFI EndBlock cfiPicker53
        REQUIRE ??Subroutine18_0
        ; // Fall through to label ??Subroutine18_0

        RSEG BANKED_CODE:CODE:NOROOT(0)
??Subroutine18_0:
        CFI Block cfiCond54 Using cfiCommon0
        CFI NoFunction
        CFI Conditional ??CrossCallReturnLabel_23
        CFI R6 load(1, XDATA, add(CFA_XSP16, literal(-9)))
        CFI VB load(1, XDATA, add(CFA_XSP16, literal(-8)))
        CFI V0 load(1, XDATA, add(CFA_XSP16, literal(-7)))
        CFI R7 load(1, XDATA, add(CFA_XSP16, literal(-6)))
        CFI ?RET_LOW load(1, XDATA, add(CFA_XSP16, literal(-5)))
        CFI ?RET_HIGH load(1, XDATA, add(CFA_XSP16, literal(-4)))
        CFI ?BRET_EXT load(1, XDATA, add(CFA_XSP16, literal(-3)))
        CFI DPL0 load(1, XDATA, add(CFA_XSP16, literal(-2)))
        CFI DPH0 load(1, XDATA, add(CFA_XSP16, literal(-1)))
        CFI CFA_SP SP+0
        CFI CFA_XSP16 add(XSP16, 9)
        CFI Block cfiCond55 Using cfiCommon0
        CFI (cfiCond55) NoFunction
        CFI (cfiCond55) Conditional ??CrossCallReturnLabel_20
        CFI (cfiCond55) R6 load(1, XDATA, add(CFA_XSP16, literal(-9)))
        CFI (cfiCond55) VB load(1, XDATA, add(CFA_XSP16, literal(-8)))
        CFI (cfiCond55) V0 load(1, XDATA, add(CFA_XSP16, literal(-7)))
        CFI (cfiCond55) R7 load(1, XDATA, add(CFA_XSP16, literal(-6)))
        CFI (cfiCond55) ?RET_LOW load(1, XDATA, add(CFA_XSP16, literal(-5)))
        CFI (cfiCond55) ?RET_HIGH load(1, XDATA, add(CFA_XSP16, literal(-4)))
        CFI (cfiCond55) ?BRET_EXT load(1, XDATA, add(CFA_XSP16, literal(-3)))
        CFI (cfiCond55) DPL0 load(1, XDATA, add(CFA_XSP16, literal(-2)))
        CFI (cfiCond55) DPH0 load(1, XDATA, add(CFA_XSP16, literal(-1)))
        CFI (cfiCond55) CFA_SP SP+0
        CFI (cfiCond55) CFA_XSP16 add(XSP16, 9)
        CFI Block cfiCond56 Using cfiCommon0
        CFI (cfiCond56) NoFunction
        CFI (cfiCond56) Conditional ??CrossCallReturnLabel_21
        CFI (cfiCond56) R6 load(1, XDATA, add(CFA_XSP16, literal(-14)))
        CFI (cfiCond56) VB load(1, XDATA, add(CFA_XSP16, literal(-13)))
        CFI (cfiCond56) V0 load(1, XDATA, add(CFA_XSP16, literal(-12)))
        CFI (cfiCond56) V1 load(1, XDATA, add(CFA_XSP16, literal(-11)))
        CFI (cfiCond56) V2 load(1, XDATA, add(CFA_XSP16, literal(-10)))
        CFI (cfiCond56) V3 load(1, XDATA, add(CFA_XSP16, literal(-9)))
        CFI (cfiCond56) V4 load(1, XDATA, add(CFA_XSP16, literal(-8)))
        CFI (cfiCond56) V5 load(1, XDATA, add(CFA_XSP16, literal(-7)))
        CFI (cfiCond56) R7 load(1, XDATA, add(CFA_XSP16, literal(-6)))
        CFI (cfiCond56) ?RET_LOW load(1, XDATA, add(CFA_XSP16, literal(-5)))
        CFI (cfiCond56) ?RET_HIGH load(1, XDATA, add(CFA_XSP16, literal(-4)))
        CFI (cfiCond56) ?BRET_EXT load(1, XDATA, add(CFA_XSP16, literal(-3)))
        CFI (cfiCond56) DPL0 load(1, XDATA, add(CFA_XSP16, literal(-2)))
        CFI (cfiCond56) DPH0 load(1, XDATA, add(CFA_XSP16, literal(-1)))
        CFI (cfiCond56) CFA_SP SP+0
        CFI (cfiCond56) CFA_XSP16 add(XSP16, 15)
        CFI Block cfiCond57 Using cfiCommon0
        CFI (cfiCond57) NoFunction
        CFI (cfiCond57) Conditional ??CrossCallReturnLabel_22
        CFI (cfiCond57) R6 load(1, XDATA, add(CFA_XSP16, literal(-9)))
        CFI (cfiCond57) VB load(1, XDATA, add(CFA_XSP16, literal(-8)))
        CFI (cfiCond57) V0 load(1, XDATA, add(CFA_XSP16, literal(-7)))
        CFI (cfiCond57) R7 load(1, XDATA, add(CFA_XSP16, literal(-6)))
        CFI (cfiCond57) ?RET_LOW load(1, XDATA, add(CFA_XSP16, literal(-5)))
        CFI (cfiCond57) ?RET_HIGH load(1, XDATA, add(CFA_XSP16, literal(-4)))
        CFI (cfiCond57) ?BRET_EXT load(1, XDATA, add(CFA_XSP16, literal(-3)))
        CFI (cfiCond57) DPL0 load(1, XDATA, add(CFA_XSP16, literal(-2)))
        CFI (cfiCond57) DPH0 load(1, XDATA, add(CFA_XSP16, literal(-1)))
        CFI (cfiCond57) CFA_SP SP+0
        CFI (cfiCond57) CFA_XSP16 add(XSP16, 10)
        CFI Block cfiPicker58 Using cfiCommon1
        CFI (cfiPicker58) NoFunction
        CFI (cfiPicker58) Picker
        LCALL   ?Subroutine14 & 0xFFFF
??CrossCallReturnLabel_25:
        LCALL   ??afSetMatch?relay
        RET
        CFI EndBlock cfiCond54
        CFI EndBlock cfiCond55
        CFI EndBlock cfiCond56
        CFI EndBlock cfiCond57
        CFI EndBlock cfiPicker58

        RSEG BANKED_CODE:CODE:NOROOT(0)
?Subroutine5:
        CFI Block cfiCond59 Using cfiCommon0
        CFI NoFunction
        CFI Conditional ??CrossCallReturnLabel_0
        CFI DPL0 Frame(CFA_SP, 4)
        CFI DPH0 Frame(CFA_SP, 5)
        CFI CFA_SP SP+-5
        CFI CFA_XSP16 add(XSP16, 1)
        CFI Block cfiCond60 Using cfiCommon0
        CFI (cfiCond60) NoFunction
        CFI (cfiCond60) Conditional ??CrossCallReturnLabel_1
        CFI (cfiCond60) R6 load(1, XDATA, add(CFA_XSP16, literal(-14)))
        CFI (cfiCond60) VB load(1, XDATA, add(CFA_XSP16, literal(-13)))
        CFI (cfiCond60) V0 load(1, XDATA, add(CFA_XSP16, literal(-12)))
        CFI (cfiCond60) V1 load(1, XDATA, add(CFA_XSP16, literal(-11)))
        CFI (cfiCond60) V2 load(1, XDATA, add(CFA_XSP16, literal(-10)))
        CFI (cfiCond60) V3 load(1, XDATA, add(CFA_XSP16, literal(-9)))
        CFI (cfiCond60) V4 load(1, XDATA, add(CFA_XSP16, literal(-8)))
        CFI (cfiCond60) V5 load(1, XDATA, add(CFA_XSP16, literal(-7)))
        CFI (cfiCond60) R7 load(1, XDATA, add(CFA_XSP16, literal(-6)))
        CFI (cfiCond60) ?RET_LOW load(1, XDATA, add(CFA_XSP16, literal(-5)))
        CFI (cfiCond60) ?RET_HIGH load(1, XDATA, add(CFA_XSP16, literal(-4)))
        CFI (cfiCond60) ?BRET_EXT load(1, XDATA, add(CFA_XSP16, literal(-3)))
        CFI (cfiCond60) DPL0 load(1, XDATA, add(CFA_XSP16, literal(-2)))
        CFI (cfiCond60) DPH0 load(1, XDATA, add(CFA_XSP16, literal(-1)))
        CFI (cfiCond60) CFA_SP SP+0
        CFI (cfiCond60) CFA_XSP16 add(XSP16, 15)
        CFI Block cfiPicker61 Using cfiCommon1
        CFI (cfiPicker61) NoFunction
        CFI (cfiPicker61) Picker
        LCALL   ??zb_ReadConfiguration?relay
        MOV     DPL,?XSP + 0
        MOV     DPH,?XSP + 1
        MOVX    A,@DPTR
        RET
        CFI EndBlock cfiCond59
        CFI EndBlock cfiCond60
        CFI EndBlock cfiPicker61
//  876 
//  877 /*********************************************************************
//  878  * @fn      SAPI_ProcessZDOMsgs()
//  879  *
//  880  * @brief   Process response messages
//  881  *
//  882  * @param   none
//  883  *
//  884  * @return  none
//  885  */

        RSEG BANKED_CODE:CODE:NOROOT(0)
//  886 void SAPI_ProcessZDOMsgs( zdoIncomingMsg_t *inMsg )
SAPI_ProcessZDOMsgs:
        CFI Block cfiBlock62 Using cfiCommon0
        CFI Function SAPI_ProcessZDOMsgs
        CODE
//  887 {
        FUNCALL SAPI_ProcessZDOMsgs, ZDO_ParseAddrRsp
        LOCFRAME ISTACK, 0, STACK
        LOCFRAME PSTACK, 0, STACK
        LOCFRAME XSTACK, 19, STACK
        LOCFRAME IOVERLAY, 0, STATIC
        LOCFRAME DOVERLAY, 0, STATIC
        ARGFRAME ISTACK, 0, STACK
        ARGFRAME PSTACK, 0, STACK
        ARGFRAME XSTACK, 19, STACK
        ARGFRAME IOVERLAY, 0, STATIC
        ARGFRAME DOVERLAY, 0, STATIC
        FUNCALL SAPI_ProcessZDOMsgs, zb_FindDeviceConfirm
        LOCFRAME ISTACK, 0, STACK
        LOCFRAME PSTACK, 0, STACK
        LOCFRAME XSTACK, 19, STACK
        LOCFRAME IOVERLAY, 0, STATIC
        LOCFRAME DOVERLAY, 0, STATIC
        ARGFRAME ISTACK, 0, STACK
        ARGFRAME PSTACK, 0, STACK
        ARGFRAME XSTACK, 19, STACK
        ARGFRAME IOVERLAY, 0, STATIC
        ARGFRAME DOVERLAY, 0, STATIC
        FUNCALL SAPI_ProcessZDOMsgs, ZDO_ParseEPListRsp
        LOCFRAME ISTACK, 0, STACK
        LOCFRAME PSTACK, 0, STACK
        LOCFRAME XSTACK, 19, STACK
        LOCFRAME IOVERLAY, 0, STATIC
        LOCFRAME DOVERLAY, 0, STATIC
        ARGFRAME ISTACK, 0, STACK
        ARGFRAME PSTACK, 0, STACK
        ARGFRAME XSTACK, 19, STACK
        ARGFRAME IOVERLAY, 0, STATIC
        ARGFRAME DOVERLAY, 0, STATIC
        FUNCALL SAPI_ProcessZDOMsgs, APSME_BindRequest
        LOCFRAME ISTACK, 0, STACK
        LOCFRAME PSTACK, 0, STACK
        LOCFRAME XSTACK, 20, STACK
        LOCFRAME IOVERLAY, 0, STATIC
        LOCFRAME DOVERLAY, 0, STATIC
        ARGFRAME ISTACK, 0, STACK
        ARGFRAME PSTACK, 0, STACK
        ARGFRAME XSTACK, 20, STACK
        ARGFRAME IOVERLAY, 0, STATIC
        ARGFRAME DOVERLAY, 0, STATIC
        FUNCALL SAPI_ProcessZDOMsgs, osal_stop_timerEx
        LOCFRAME ISTACK, 0, STACK
        LOCFRAME PSTACK, 0, STACK
        LOCFRAME XSTACK, 19, STACK
        LOCFRAME IOVERLAY, 0, STATIC
        LOCFRAME DOVERLAY, 0, STATIC
        ARGFRAME ISTACK, 0, STACK
        ARGFRAME PSTACK, 0, STACK
        ARGFRAME XSTACK, 19, STACK
        ARGFRAME IOVERLAY, 0, STATIC
        ARGFRAME DOVERLAY, 0, STATIC
        FUNCALL SAPI_ProcessZDOMsgs, osal_start_timerEx
        LOCFRAME ISTACK, 0, STACK
        LOCFRAME PSTACK, 0, STACK
        LOCFRAME XSTACK, 19, STACK
        LOCFRAME IOVERLAY, 0, STATIC
        LOCFRAME DOVERLAY, 0, STATIC
        ARGFRAME ISTACK, 0, STACK
        ARGFRAME PSTACK, 0, STACK
        ARGFRAME XSTACK, 19, STACK
        ARGFRAME IOVERLAY, 0, STATIC
        ARGFRAME DOVERLAY, 0, STATIC
        FUNCALL SAPI_ProcessZDOMsgs, ZDP_IEEEAddrReq
        LOCFRAME ISTACK, 0, STACK
        LOCFRAME PSTACK, 0, STACK
        LOCFRAME XSTACK, 19, STACK
        LOCFRAME IOVERLAY, 0, STATIC
        LOCFRAME DOVERLAY, 0, STATIC
        ARGFRAME ISTACK, 0, STACK
        ARGFRAME PSTACK, 0, STACK
        ARGFRAME XSTACK, 19, STACK
        ARGFRAME IOVERLAY, 0, STATIC
        ARGFRAME DOVERLAY, 0, STATIC
        FUNCALL SAPI_ProcessZDOMsgs, zb_BindConfirm
        LOCFRAME ISTACK, 0, STACK
        LOCFRAME PSTACK, 0, STACK
        LOCFRAME XSTACK, 19, STACK
        LOCFRAME IOVERLAY, 0, STATIC
        LOCFRAME DOVERLAY, 0, STATIC
        ARGFRAME ISTACK, 0, STACK
        ARGFRAME PSTACK, 0, STACK
        ARGFRAME XSTACK, 19, STACK
        ARGFRAME IOVERLAY, 0, STATIC
        ARGFRAME DOVERLAY, 0, STATIC
        MOV     A,#-0xa
        LCALL   ?BANKED_ENTER_XDATA
        CFI DPH0 load(1, XDATA, add(CFA_XSP16, literal(-1)))
        CFI DPL0 load(1, XDATA, add(CFA_XSP16, literal(-2)))
        CFI ?BRET_EXT load(1, XDATA, add(CFA_XSP16, literal(-3)))
        CFI ?RET_HIGH load(1, XDATA, add(CFA_XSP16, literal(-4)))
        CFI ?RET_LOW load(1, XDATA, add(CFA_XSP16, literal(-5)))
        CFI R7 load(1, XDATA, add(CFA_XSP16, literal(-6)))
        CFI V1 load(1, XDATA, add(CFA_XSP16, literal(-7)))
        CFI V0 load(1, XDATA, add(CFA_XSP16, literal(-8)))
        CFI VB load(1, XDATA, add(CFA_XSP16, literal(-9)))
        CFI R6 load(1, XDATA, add(CFA_XSP16, literal(-10)))
        CFI CFA_SP SP+0
        CFI CFA_XSP16 add(XSP16, 10)
        ; Saved register size: 10
        ; Auto size: 9
        MOV     A,#-0x9
        LCALL   ?ALLOC_XSTACK8
        CFI CFA_XSP16 add(XSP16, 19)
//  888   switch ( inMsg->clusterID )
        MOV     A,R2
        ADD     A,#0xc
        MOV     DPL,A
        MOV     A,R3
        ADDC    A,#0x0
        MOV     DPH,A
        MOVX    A,@DPTR
        MOV     ?V0 + 0,A
        INC     DPTR
        MOVX    A,@DPTR
        MOV     ?V0 + 1,A
        MOV     R0,#?V0 + 0
        LCALL   ?US_SWITCH_SPARSE
`?<Jumptable for SAPI_ProcessZDOMsgs>_0`:
        DATA
        DATA16
        DATA
        DATA16
        DATA
        DATA16
        DW        0
        DATA
        DATA16
        DATA
        DATA16
        DATA
        DATA16
        DW        2
        DATA
        DATA16
        DATA
        DATA16
        DATA
        DATA16
        DW        32768
        DATA
        DATA16
        DATA
        DATA16
        DATA
        DATA16
        DW        ??SAPI_ProcessZDOMsgs_0
        DATA
        DATA16
        DATA
        DATA16
        DATA
        DATA16
        DW        32774
        DATA
        DATA16
        DATA
        DATA16
        DATA
        DATA16
        DW        ??SAPI_ProcessZDOMsgs_1
        DATA
        DATA16
        DATA
        DATA16
        DW        ??CrossCallReturnLabel_5
        CODE
//  889   {
//  890     case NWK_addr_rsp:
//  891       {
//  892         // Send find device callback to application
//  893         ZDO_NwkIEEEAddrResp_t *pNwkAddrRsp = ZDO_ParseAddrRsp( inMsg );
??SAPI_ProcessZDOMsgs_0:
        ; Setup parameters for call to function ZDO_ParseAddrRsp
        LCALL   ??ZDO_ParseAddrRsp?relay
        MOV     DPL,R2
        MOV     DPH,R3
//  894         SAPI_FindDeviceConfirm( ZB_IEEE_SEARCH, (uint8*)&pNwkAddrRsp->nwkAddr, pNwkAddrRsp->extAddr );
        ; Setup parameters for call to function zb_FindDeviceConfirm
        MOV     A,DPL
        ADD     A,#0x3
        MOV     R4,A
        MOV     A,DPH
        ADDC    A,#0x0
        MOV     R5,A
        INC     DPTR
        MOV     R2,DPL
        MOV     R3,DPH
        MOV     R1,#0x1
        LCALL   ??zb_FindDeviceConfirm?relay
//  895       }
//  896       break;
        LJMP    ??CrossCallReturnLabel_5 & 0xFFFF
//  897 
//  898     case Match_Desc_rsp:
//  899       {
//  900         zAddrType_t dstAddr;
//  901         ZDO_ActiveEndpointRsp_t *pRsp = ZDO_ParseEPListRsp( inMsg );
??SAPI_ProcessZDOMsgs_1:
        ; Setup parameters for call to function ZDO_ParseEPListRsp
        LCALL   ??ZDO_ParseEPListRsp?relay
        MOV     ?V0 + 0,R2
        MOV     ?V0 + 1,R3
        MOV     R6,?V0 + 0
        MOV     R7,?V0 + 1
//  902 
//  903         if ( sapi_bindInProgress != 0xffff )
        MOV     DPTR,#sapi_bindInProgress
        MOVX    A,@DPTR
        CPL     A
        JNZ     ??SAPI_ProcessZDOMsgs_2
        INC     DPTR
        MOVX    A,@DPTR
        CPL     A
??SAPI_ProcessZDOMsgs_2:
        JZ      ??CrossCallReturnLabel_5
//  904         {
//  905           // Create a binding table entry
//  906           dstAddr.addrMode = Addr16Bit;
        MOV     A,#0x8
        LCALL   ?XSTACK_DISP0_8
        MOV     A,#0x2
        MOVX    @DPTR,A
//  907           dstAddr.addr.shortAddr = pRsp->nwkAddr;
        MOV     DPL,R6
        MOV     DPH,R7
        INC     DPTR
        MOVX    A,@DPTR
        MOV     R0,A
        INC     DPTR
        MOVX    A,@DPTR
        MOV     R1,A
        MOV     DPL,?XSP + 0
        MOV     DPH,?XSP + 1
        MOV     A,R0
        MOVX    @DPTR,A
        INC     DPTR
        MOV     A,R1
        MOVX    @DPTR,A
//  908 
//  909           if ( APSME_BindRequest( sapi_epDesc.simpleDesc->EndPoint,
//  910                      sapi_bindInProgress, &dstAddr, pRsp->epList[0] ) == ZSuccess )
        ; Setup parameters for call to function APSME_BindRequest
        MOV     DPL,R6
        MOV     DPH,R7
        INC     DPTR
        INC     DPTR
        INC     DPTR
        INC     DPTR
        MOVX    A,@DPTR
        MOV     ?V0 + 0,A
        MOV     R0,#?V0 + 0
        LCALL   ?PUSH_XSTACK_I_ONE
        CFI CFA_XSP16 add(XSP16, 20)
        MOV     A,#0x1
        LCALL   ?XSTACK_DISP0_8
        MOV     R4,DPL
        MOV     R5,DPH
        MOV     DPTR,#sapi_bindInProgress
        LCALL   ?Subroutine7 & 0xFFFF
??CrossCallReturnLabel_3:
        LCALL   ??APSME_BindRequest?relay
        MOV     A,#0x1
        LCALL   ?DEALLOC_XSTACK8
        CFI CFA_XSP16 add(XSP16, 19)
        MOV     A,R1
        JNZ     ??CrossCallReturnLabel_5
//  911           {
//  912             osal_stop_timerEx(sapi_TaskID,  ZB_BIND_TIMER);
        ; Setup parameters for call to function osal_stop_timerEx
        MOV     R2,#0x0
        MOV     R3,#0x20
        MOV     DPTR,#sapi_TaskID
        MOVX    A,@DPTR
        MOV     R1,A
        LCALL   ??osal_stop_timerEx?relay
//  913             osal_start_timerEx( ZDAppTaskID, ZDO_NWK_UPDATE_NV, 250 );
        ; Setup parameters for call to function osal_start_timerEx
        LCALL   ?Subroutine10 & 0xFFFF
//  914 
//  915             // Find IEEE addr
//  916             ZDP_IEEEAddrReq( pRsp->nwkAddr, ZDP_ADDR_REQTYPE_SINGLE, 0, 0 );
??CrossCallReturnLabel_17:
        ; Setup parameters for call to function ZDP_IEEEAddrReq
        MOV     R5,#0x0
        MOV     R4,#0x0
        MOV     R1,#0x0
        MOV     DPL,R6
        MOV     DPH,R7
        LCALL   ??Subroutine19_0 & 0xFFFF
??CrossCallReturnLabel_29:
        LCALL   ??ZDP_IEEEAddrReq?relay
//  917 #if defined ( MT_SAPI_CB_FUNC )
//  918             zb_MTCallbackBindConfirm( sapi_bindInProgress, ZB_SUCCESS );
//  919 #endif              
//  920             // Send bind confirm callback to application
//  921 #if ( SAPI_CB_FUNC )
//  922             zb_BindConfirm( sapi_bindInProgress, ZB_SUCCESS );
        ; Setup parameters for call to function zb_BindConfirm
        MOV     R1,#0x0
        LCALL   ?Subroutine8 & 0xFFFF
//  923 #endif
//  924             sapi_bindInProgress = 0xffff;
//  925           }
//  926         }
//  927       }
//  928       break;
//  929   }
//  930 }
??CrossCallReturnLabel_5:
        MOV     A,#0x9
        LJMP    ?Subroutine4 & 0xFFFF
        CFI EndBlock cfiBlock62

        RSEG BANKED_CODE:CODE:NOROOT(0)
?Subroutine11:
        CFI Block cfiCond63 Using cfiCommon0
        CFI NoFunction
        CFI Conditional ??CrossCallReturnLabel_30
        CFI R6 load(1, XDATA, add(CFA_XSP16, literal(-14)))
        CFI VB load(1, XDATA, add(CFA_XSP16, literal(-13)))
        CFI V0 load(1, XDATA, add(CFA_XSP16, literal(-12)))
        CFI V1 load(1, XDATA, add(CFA_XSP16, literal(-11)))
        CFI V2 load(1, XDATA, add(CFA_XSP16, literal(-10)))
        CFI V3 load(1, XDATA, add(CFA_XSP16, literal(-9)))
        CFI V4 load(1, XDATA, add(CFA_XSP16, literal(-8)))
        CFI V5 load(1, XDATA, add(CFA_XSP16, literal(-7)))
        CFI R7 load(1, XDATA, add(CFA_XSP16, literal(-6)))
        CFI ?RET_LOW load(1, XDATA, add(CFA_XSP16, literal(-5)))
        CFI ?RET_HIGH load(1, XDATA, add(CFA_XSP16, literal(-4)))
        CFI ?BRET_EXT load(1, XDATA, add(CFA_XSP16, literal(-3)))
        CFI DPL0 load(1, XDATA, add(CFA_XSP16, literal(-2)))
        CFI DPH0 load(1, XDATA, add(CFA_XSP16, literal(-1)))
        CFI CFA_SP SP+0
        CFI CFA_XSP16 add(XSP16, 19)
        CFI Block cfiCond64 Using cfiCommon0
        CFI (cfiCond64) NoFunction
        CFI (cfiCond64) Conditional ??CrossCallReturnLabel_31
        CFI (cfiCond64) R6 load(1, XDATA, add(CFA_XSP16, literal(-14)))
        CFI (cfiCond64) VB load(1, XDATA, add(CFA_XSP16, literal(-13)))
        CFI (cfiCond64) V0 load(1, XDATA, add(CFA_XSP16, literal(-12)))
        CFI (cfiCond64) V1 load(1, XDATA, add(CFA_XSP16, literal(-11)))
        CFI (cfiCond64) V2 load(1, XDATA, add(CFA_XSP16, literal(-10)))
        CFI (cfiCond64) V3 load(1, XDATA, add(CFA_XSP16, literal(-9)))
        CFI (cfiCond64) V4 load(1, XDATA, add(CFA_XSP16, literal(-8)))
        CFI (cfiCond64) V5 load(1, XDATA, add(CFA_XSP16, literal(-7)))
        CFI (cfiCond64) R7 load(1, XDATA, add(CFA_XSP16, literal(-6)))
        CFI (cfiCond64) ?RET_LOW load(1, XDATA, add(CFA_XSP16, literal(-5)))
        CFI (cfiCond64) ?RET_HIGH load(1, XDATA, add(CFA_XSP16, literal(-4)))
        CFI (cfiCond64) ?BRET_EXT load(1, XDATA, add(CFA_XSP16, literal(-3)))
        CFI (cfiCond64) DPL0 load(1, XDATA, add(CFA_XSP16, literal(-2)))
        CFI (cfiCond64) DPH0 load(1, XDATA, add(CFA_XSP16, literal(-1)))
        CFI (cfiCond64) CFA_SP SP+0
        CFI (cfiCond64) CFA_XSP16 add(XSP16, 15)
        CFI Block cfiCond65 Using cfiCommon0
        CFI (cfiCond65) NoFunction
        CFI (cfiCond65) Conditional ??CrossCallReturnLabel_32
        CFI (cfiCond65) R6 load(1, XDATA, add(CFA_XSP16, literal(-14)))
        CFI (cfiCond65) VB load(1, XDATA, add(CFA_XSP16, literal(-13)))
        CFI (cfiCond65) V0 load(1, XDATA, add(CFA_XSP16, literal(-12)))
        CFI (cfiCond65) V1 load(1, XDATA, add(CFA_XSP16, literal(-11)))
        CFI (cfiCond65) V2 load(1, XDATA, add(CFA_XSP16, literal(-10)))
        CFI (cfiCond65) V3 load(1, XDATA, add(CFA_XSP16, literal(-9)))
        CFI (cfiCond65) V4 load(1, XDATA, add(CFA_XSP16, literal(-8)))
        CFI (cfiCond65) V5 load(1, XDATA, add(CFA_XSP16, literal(-7)))
        CFI (cfiCond65) R7 load(1, XDATA, add(CFA_XSP16, literal(-6)))
        CFI (cfiCond65) ?RET_LOW load(1, XDATA, add(CFA_XSP16, literal(-5)))
        CFI (cfiCond65) ?RET_HIGH load(1, XDATA, add(CFA_XSP16, literal(-4)))
        CFI (cfiCond65) ?BRET_EXT load(1, XDATA, add(CFA_XSP16, literal(-3)))
        CFI (cfiCond65) DPL0 load(1, XDATA, add(CFA_XSP16, literal(-2)))
        CFI (cfiCond65) DPH0 load(1, XDATA, add(CFA_XSP16, literal(-1)))
        CFI (cfiCond65) CFA_SP SP+0
        CFI (cfiCond65) CFA_XSP16 add(XSP16, 15)
        CFI Block cfiPicker66 Using cfiCommon1
        CFI (cfiPicker66) NoFunction
        CFI (cfiPicker66) Picker
        INC     DPTR
        CFI EndBlock cfiCond63
        CFI EndBlock cfiCond64
        CFI EndBlock cfiCond65
        CFI EndBlock cfiPicker66
        REQUIRE ??Subroutine19_0
        ; // Fall through to label ??Subroutine19_0

        RSEG BANKED_CODE:CODE:NOROOT(0)
??Subroutine19_0:
        CFI Block cfiCond67 Using cfiCommon0
        CFI NoFunction
        CFI Conditional ??CrossCallReturnLabel_29
        CFI R6 load(1, XDATA, add(CFA_XSP16, literal(-10)))
        CFI VB load(1, XDATA, add(CFA_XSP16, literal(-9)))
        CFI V0 load(1, XDATA, add(CFA_XSP16, literal(-8)))
        CFI V1 load(1, XDATA, add(CFA_XSP16, literal(-7)))
        CFI R7 load(1, XDATA, add(CFA_XSP16, literal(-6)))
        CFI ?RET_LOW load(1, XDATA, add(CFA_XSP16, literal(-5)))
        CFI ?RET_HIGH load(1, XDATA, add(CFA_XSP16, literal(-4)))
        CFI ?BRET_EXT load(1, XDATA, add(CFA_XSP16, literal(-3)))
        CFI DPL0 load(1, XDATA, add(CFA_XSP16, literal(-2)))
        CFI DPH0 load(1, XDATA, add(CFA_XSP16, literal(-1)))
        CFI CFA_SP SP+0
        CFI CFA_XSP16 add(XSP16, 19)
        CFI Block cfiCond68 Using cfiCommon0
        CFI (cfiCond68) NoFunction
        CFI (cfiCond68) Conditional ??CrossCallReturnLabel_30
        CFI (cfiCond68) R6 load(1, XDATA, add(CFA_XSP16, literal(-14)))
        CFI (cfiCond68) VB load(1, XDATA, add(CFA_XSP16, literal(-13)))
        CFI (cfiCond68) V0 load(1, XDATA, add(CFA_XSP16, literal(-12)))
        CFI (cfiCond68) V1 load(1, XDATA, add(CFA_XSP16, literal(-11)))
        CFI (cfiCond68) V2 load(1, XDATA, add(CFA_XSP16, literal(-10)))
        CFI (cfiCond68) V3 load(1, XDATA, add(CFA_XSP16, literal(-9)))
        CFI (cfiCond68) V4 load(1, XDATA, add(CFA_XSP16, literal(-8)))
        CFI (cfiCond68) V5 load(1, XDATA, add(CFA_XSP16, literal(-7)))
        CFI (cfiCond68) R7 load(1, XDATA, add(CFA_XSP16, literal(-6)))
        CFI (cfiCond68) ?RET_LOW load(1, XDATA, add(CFA_XSP16, literal(-5)))
        CFI (cfiCond68) ?RET_HIGH load(1, XDATA, add(CFA_XSP16, literal(-4)))
        CFI (cfiCond68) ?BRET_EXT load(1, XDATA, add(CFA_XSP16, literal(-3)))
        CFI (cfiCond68) DPL0 load(1, XDATA, add(CFA_XSP16, literal(-2)))
        CFI (cfiCond68) DPH0 load(1, XDATA, add(CFA_XSP16, literal(-1)))
        CFI (cfiCond68) CFA_SP SP+0
        CFI (cfiCond68) CFA_XSP16 add(XSP16, 19)
        CFI Block cfiCond69 Using cfiCommon0
        CFI (cfiCond69) NoFunction
        CFI (cfiCond69) Conditional ??CrossCallReturnLabel_31
        CFI (cfiCond69) R6 load(1, XDATA, add(CFA_XSP16, literal(-14)))
        CFI (cfiCond69) VB load(1, XDATA, add(CFA_XSP16, literal(-13)))
        CFI (cfiCond69) V0 load(1, XDATA, add(CFA_XSP16, literal(-12)))
        CFI (cfiCond69) V1 load(1, XDATA, add(CFA_XSP16, literal(-11)))
        CFI (cfiCond69) V2 load(1, XDATA, add(CFA_XSP16, literal(-10)))
        CFI (cfiCond69) V3 load(1, XDATA, add(CFA_XSP16, literal(-9)))
        CFI (cfiCond69) V4 load(1, XDATA, add(CFA_XSP16, literal(-8)))
        CFI (cfiCond69) V5 load(1, XDATA, add(CFA_XSP16, literal(-7)))
        CFI (cfiCond69) R7 load(1, XDATA, add(CFA_XSP16, literal(-6)))
        CFI (cfiCond69) ?RET_LOW load(1, XDATA, add(CFA_XSP16, literal(-5)))
        CFI (cfiCond69) ?RET_HIGH load(1, XDATA, add(CFA_XSP16, literal(-4)))
        CFI (cfiCond69) ?BRET_EXT load(1, XDATA, add(CFA_XSP16, literal(-3)))
        CFI (cfiCond69) DPL0 load(1, XDATA, add(CFA_XSP16, literal(-2)))
        CFI (cfiCond69) DPH0 load(1, XDATA, add(CFA_XSP16, literal(-1)))
        CFI (cfiCond69) CFA_SP SP+0
        CFI (cfiCond69) CFA_XSP16 add(XSP16, 15)
        CFI Block cfiCond70 Using cfiCommon0
        CFI (cfiCond70) NoFunction
        CFI (cfiCond70) Conditional ??CrossCallReturnLabel_32
        CFI (cfiCond70) R6 load(1, XDATA, add(CFA_XSP16, literal(-14)))
        CFI (cfiCond70) VB load(1, XDATA, add(CFA_XSP16, literal(-13)))
        CFI (cfiCond70) V0 load(1, XDATA, add(CFA_XSP16, literal(-12)))
        CFI (cfiCond70) V1 load(1, XDATA, add(CFA_XSP16, literal(-11)))
        CFI (cfiCond70) V2 load(1, XDATA, add(CFA_XSP16, literal(-10)))
        CFI (cfiCond70) V3 load(1, XDATA, add(CFA_XSP16, literal(-9)))
        CFI (cfiCond70) V4 load(1, XDATA, add(CFA_XSP16, literal(-8)))
        CFI (cfiCond70) V5 load(1, XDATA, add(CFA_XSP16, literal(-7)))
        CFI (cfiCond70) R7 load(1, XDATA, add(CFA_XSP16, literal(-6)))
        CFI (cfiCond70) ?RET_LOW load(1, XDATA, add(CFA_XSP16, literal(-5)))
        CFI (cfiCond70) ?RET_HIGH load(1, XDATA, add(CFA_XSP16, literal(-4)))
        CFI (cfiCond70) ?BRET_EXT load(1, XDATA, add(CFA_XSP16, literal(-3)))
        CFI (cfiCond70) DPL0 load(1, XDATA, add(CFA_XSP16, literal(-2)))
        CFI (cfiCond70) DPH0 load(1, XDATA, add(CFA_XSP16, literal(-1)))
        CFI (cfiCond70) CFA_SP SP+0
        CFI (cfiCond70) CFA_XSP16 add(XSP16, 15)
        CFI Block cfiPicker71 Using cfiCommon1
        CFI (cfiPicker71) NoFunction
        CFI (cfiPicker71) Picker
        INC     DPTR
        CFI EndBlock cfiCond67
        CFI EndBlock cfiCond68
        CFI EndBlock cfiCond69
        CFI EndBlock cfiCond70
        CFI EndBlock cfiPicker71
        REQUIRE ??Subroutine20_0
        ; // Fall through to label ??Subroutine20_0

        RSEG BANKED_CODE:CODE:NOROOT(0)
??Subroutine20_0:
        CFI Block cfiCond72 Using cfiCommon0
        CFI NoFunction
        CFI Conditional ??CrossCallReturnLabel_28
        CFI R6 load(1, XDATA, add(CFA_XSP16, literal(-12)))
        CFI VB load(1, XDATA, add(CFA_XSP16, literal(-11)))
        CFI V0 load(1, XDATA, add(CFA_XSP16, literal(-10)))
        CFI V1 load(1, XDATA, add(CFA_XSP16, literal(-9)))
        CFI V2 load(1, XDATA, add(CFA_XSP16, literal(-8)))
        CFI V3 load(1, XDATA, add(CFA_XSP16, literal(-7)))
        CFI R7 load(1, XDATA, add(CFA_XSP16, literal(-6)))
        CFI ?RET_LOW load(1, XDATA, add(CFA_XSP16, literal(-5)))
        CFI ?RET_HIGH load(1, XDATA, add(CFA_XSP16, literal(-4)))
        CFI ?BRET_EXT load(1, XDATA, add(CFA_XSP16, literal(-3)))
        CFI DPL0 load(1, XDATA, add(CFA_XSP16, literal(-2)))
        CFI DPH0 load(1, XDATA, add(CFA_XSP16, literal(-1)))
        CFI CFA_SP SP+0
        CFI CFA_XSP16 add(XSP16, 24)
        CFI Block cfiCond73 Using cfiCommon0
        CFI (cfiCond73) NoFunction
        CFI (cfiCond73) Conditional ??CrossCallReturnLabel_29
        CFI (cfiCond73) R6 load(1, XDATA, add(CFA_XSP16, literal(-10)))
        CFI (cfiCond73) VB load(1, XDATA, add(CFA_XSP16, literal(-9)))
        CFI (cfiCond73) V0 load(1, XDATA, add(CFA_XSP16, literal(-8)))
        CFI (cfiCond73) V1 load(1, XDATA, add(CFA_XSP16, literal(-7)))
        CFI (cfiCond73) R7 load(1, XDATA, add(CFA_XSP16, literal(-6)))
        CFI (cfiCond73) ?RET_LOW load(1, XDATA, add(CFA_XSP16, literal(-5)))
        CFI (cfiCond73) ?RET_HIGH load(1, XDATA, add(CFA_XSP16, literal(-4)))
        CFI (cfiCond73) ?BRET_EXT load(1, XDATA, add(CFA_XSP16, literal(-3)))
        CFI (cfiCond73) DPL0 load(1, XDATA, add(CFA_XSP16, literal(-2)))
        CFI (cfiCond73) DPH0 load(1, XDATA, add(CFA_XSP16, literal(-1)))
        CFI (cfiCond73) CFA_SP SP+0
        CFI (cfiCond73) CFA_XSP16 add(XSP16, 19)
        CFI Block cfiCond74 Using cfiCommon0
        CFI (cfiCond74) NoFunction
        CFI (cfiCond74) Conditional ??CrossCallReturnLabel_30
        CFI (cfiCond74) R6 load(1, XDATA, add(CFA_XSP16, literal(-14)))
        CFI (cfiCond74) VB load(1, XDATA, add(CFA_XSP16, literal(-13)))
        CFI (cfiCond74) V0 load(1, XDATA, add(CFA_XSP16, literal(-12)))
        CFI (cfiCond74) V1 load(1, XDATA, add(CFA_XSP16, literal(-11)))
        CFI (cfiCond74) V2 load(1, XDATA, add(CFA_XSP16, literal(-10)))
        CFI (cfiCond74) V3 load(1, XDATA, add(CFA_XSP16, literal(-9)))
        CFI (cfiCond74) V4 load(1, XDATA, add(CFA_XSP16, literal(-8)))
        CFI (cfiCond74) V5 load(1, XDATA, add(CFA_XSP16, literal(-7)))
        CFI (cfiCond74) R7 load(1, XDATA, add(CFA_XSP16, literal(-6)))
        CFI (cfiCond74) ?RET_LOW load(1, XDATA, add(CFA_XSP16, literal(-5)))
        CFI (cfiCond74) ?RET_HIGH load(1, XDATA, add(CFA_XSP16, literal(-4)))
        CFI (cfiCond74) ?BRET_EXT load(1, XDATA, add(CFA_XSP16, literal(-3)))
        CFI (cfiCond74) DPL0 load(1, XDATA, add(CFA_XSP16, literal(-2)))
        CFI (cfiCond74) DPH0 load(1, XDATA, add(CFA_XSP16, literal(-1)))
        CFI (cfiCond74) CFA_SP SP+0
        CFI (cfiCond74) CFA_XSP16 add(XSP16, 19)
        CFI Block cfiCond75 Using cfiCommon0
        CFI (cfiCond75) NoFunction
        CFI (cfiCond75) Conditional ??CrossCallReturnLabel_31
        CFI (cfiCond75) R6 load(1, XDATA, add(CFA_XSP16, literal(-14)))
        CFI (cfiCond75) VB load(1, XDATA, add(CFA_XSP16, literal(-13)))
        CFI (cfiCond75) V0 load(1, XDATA, add(CFA_XSP16, literal(-12)))
        CFI (cfiCond75) V1 load(1, XDATA, add(CFA_XSP16, literal(-11)))
        CFI (cfiCond75) V2 load(1, XDATA, add(CFA_XSP16, literal(-10)))
        CFI (cfiCond75) V3 load(1, XDATA, add(CFA_XSP16, literal(-9)))
        CFI (cfiCond75) V4 load(1, XDATA, add(CFA_XSP16, literal(-8)))
        CFI (cfiCond75) V5 load(1, XDATA, add(CFA_XSP16, literal(-7)))
        CFI (cfiCond75) R7 load(1, XDATA, add(CFA_XSP16, literal(-6)))
        CFI (cfiCond75) ?RET_LOW load(1, XDATA, add(CFA_XSP16, literal(-5)))
        CFI (cfiCond75) ?RET_HIGH load(1, XDATA, add(CFA_XSP16, literal(-4)))
        CFI (cfiCond75) ?BRET_EXT load(1, XDATA, add(CFA_XSP16, literal(-3)))
        CFI (cfiCond75) DPL0 load(1, XDATA, add(CFA_XSP16, literal(-2)))
        CFI (cfiCond75) DPH0 load(1, XDATA, add(CFA_XSP16, literal(-1)))
        CFI (cfiCond75) CFA_SP SP+0
        CFI (cfiCond75) CFA_XSP16 add(XSP16, 15)
        CFI Block cfiCond76 Using cfiCommon0
        CFI (cfiCond76) NoFunction
        CFI (cfiCond76) Conditional ??CrossCallReturnLabel_32
        CFI (cfiCond76) R6 load(1, XDATA, add(CFA_XSP16, literal(-14)))
        CFI (cfiCond76) VB load(1, XDATA, add(CFA_XSP16, literal(-13)))
        CFI (cfiCond76) V0 load(1, XDATA, add(CFA_XSP16, literal(-12)))
        CFI (cfiCond76) V1 load(1, XDATA, add(CFA_XSP16, literal(-11)))
        CFI (cfiCond76) V2 load(1, XDATA, add(CFA_XSP16, literal(-10)))
        CFI (cfiCond76) V3 load(1, XDATA, add(CFA_XSP16, literal(-9)))
        CFI (cfiCond76) V4 load(1, XDATA, add(CFA_XSP16, literal(-8)))
        CFI (cfiCond76) V5 load(1, XDATA, add(CFA_XSP16, literal(-7)))
        CFI (cfiCond76) R7 load(1, XDATA, add(CFA_XSP16, literal(-6)))
        CFI (cfiCond76) ?RET_LOW load(1, XDATA, add(CFA_XSP16, literal(-5)))
        CFI (cfiCond76) ?RET_HIGH load(1, XDATA, add(CFA_XSP16, literal(-4)))
        CFI (cfiCond76) ?BRET_EXT load(1, XDATA, add(CFA_XSP16, literal(-3)))
        CFI (cfiCond76) DPL0 load(1, XDATA, add(CFA_XSP16, literal(-2)))
        CFI (cfiCond76) DPH0 load(1, XDATA, add(CFA_XSP16, literal(-1)))
        CFI (cfiCond76) CFA_SP SP+0
        CFI (cfiCond76) CFA_XSP16 add(XSP16, 15)
        CFI Block cfiPicker77 Using cfiCommon1
        CFI (cfiPicker77) NoFunction
        CFI (cfiPicker77) Picker
        MOVX    A,@DPTR
        MOV     R2,A
        INC     DPTR
        MOVX    A,@DPTR
        MOV     R3,A
        RET
        CFI EndBlock cfiCond72
        CFI EndBlock cfiCond73
        CFI EndBlock cfiCond74
        CFI EndBlock cfiCond75
        CFI EndBlock cfiCond76
        CFI EndBlock cfiPicker77

        RSEG BANKED_CODE:CODE:NOROOT(0)
?Subroutine8:
        CFI Block cfiCond78 Using cfiCommon0
        CFI NoFunction
        CFI Conditional ??CrossCallReturnLabel_4
        CFI R6 load(1, XDATA, add(CFA_XSP16, literal(-14)))
        CFI VB load(1, XDATA, add(CFA_XSP16, literal(-13)))
        CFI V0 load(1, XDATA, add(CFA_XSP16, literal(-12)))
        CFI V1 load(1, XDATA, add(CFA_XSP16, literal(-11)))
        CFI V2 load(1, XDATA, add(CFA_XSP16, literal(-10)))
        CFI V3 load(1, XDATA, add(CFA_XSP16, literal(-9)))
        CFI V4 load(1, XDATA, add(CFA_XSP16, literal(-8)))
        CFI V5 load(1, XDATA, add(CFA_XSP16, literal(-7)))
        CFI R7 load(1, XDATA, add(CFA_XSP16, literal(-6)))
        CFI ?RET_LOW load(1, XDATA, add(CFA_XSP16, literal(-5)))
        CFI ?RET_HIGH load(1, XDATA, add(CFA_XSP16, literal(-4)))
        CFI ?BRET_EXT load(1, XDATA, add(CFA_XSP16, literal(-3)))
        CFI DPL0 load(1, XDATA, add(CFA_XSP16, literal(-2)))
        CFI DPH0 load(1, XDATA, add(CFA_XSP16, literal(-1)))
        CFI CFA_SP SP+0
        CFI CFA_XSP16 add(XSP16, 15)
        CFI Block cfiCond79 Using cfiCommon0
        CFI (cfiCond79) NoFunction
        CFI (cfiCond79) Conditional ??CrossCallReturnLabel_5
        CFI (cfiCond79) R6 load(1, XDATA, add(CFA_XSP16, literal(-10)))
        CFI (cfiCond79) VB load(1, XDATA, add(CFA_XSP16, literal(-9)))
        CFI (cfiCond79) V0 load(1, XDATA, add(CFA_XSP16, literal(-8)))
        CFI (cfiCond79) V1 load(1, XDATA, add(CFA_XSP16, literal(-7)))
        CFI (cfiCond79) R7 load(1, XDATA, add(CFA_XSP16, literal(-6)))
        CFI (cfiCond79) ?RET_LOW load(1, XDATA, add(CFA_XSP16, literal(-5)))
        CFI (cfiCond79) ?RET_HIGH load(1, XDATA, add(CFA_XSP16, literal(-4)))
        CFI (cfiCond79) ?BRET_EXT load(1, XDATA, add(CFA_XSP16, literal(-3)))
        CFI (cfiCond79) DPL0 load(1, XDATA, add(CFA_XSP16, literal(-2)))
        CFI (cfiCond79) DPH0 load(1, XDATA, add(CFA_XSP16, literal(-1)))
        CFI (cfiCond79) CFA_SP SP+0
        CFI (cfiCond79) CFA_XSP16 add(XSP16, 19)
        CFI Block cfiPicker80 Using cfiCommon1
        CFI (cfiPicker80) NoFunction
        CFI (cfiPicker80) Picker
        MOV     DPTR,#sapi_bindInProgress
        MOVX    A,@DPTR
        MOV     R2,A
        INC     DPTR
        MOVX    A,@DPTR
        MOV     R3,A
        LCALL   ??zb_BindConfirm?relay
        MOV     DPTR,#sapi_bindInProgress
        MOV     A,#-0x1
        MOVX    @DPTR,A
        INC     DPTR
        MOVX    @DPTR,A
        RET
        CFI EndBlock cfiCond78
        CFI EndBlock cfiCond79
        CFI EndBlock cfiPicker80

        RSEG BANKED_CODE:CODE:NOROOT(0)
?Subroutine7:
        CFI Block cfiCond81 Using cfiCommon0
        CFI NoFunction
        CFI Conditional ??CrossCallReturnLabel_2
        CFI R6 load(1, XDATA, add(CFA_XSP16, literal(-12)))
        CFI VB load(1, XDATA, add(CFA_XSP16, literal(-11)))
        CFI V0 load(1, XDATA, add(CFA_XSP16, literal(-10)))
        CFI V1 load(1, XDATA, add(CFA_XSP16, literal(-9)))
        CFI V2 load(1, XDATA, add(CFA_XSP16, literal(-8)))
        CFI V3 load(1, XDATA, add(CFA_XSP16, literal(-7)))
        CFI R7 load(1, XDATA, add(CFA_XSP16, literal(-6)))
        CFI ?RET_LOW load(1, XDATA, add(CFA_XSP16, literal(-5)))
        CFI ?RET_HIGH load(1, XDATA, add(CFA_XSP16, literal(-4)))
        CFI ?BRET_EXT load(1, XDATA, add(CFA_XSP16, literal(-3)))
        CFI DPL0 load(1, XDATA, add(CFA_XSP16, literal(-2)))
        CFI DPH0 load(1, XDATA, add(CFA_XSP16, literal(-1)))
        CFI CFA_SP SP+0
        CFI CFA_XSP16 add(XSP16, 23)
        CFI Block cfiCond82 Using cfiCommon0
        CFI (cfiCond82) NoFunction
        CFI (cfiCond82) Conditional ??CrossCallReturnLabel_3
        CFI (cfiCond82) R6 load(1, XDATA, add(CFA_XSP16, literal(-10)))
        CFI (cfiCond82) VB load(1, XDATA, add(CFA_XSP16, literal(-9)))
        CFI (cfiCond82) V0 load(1, XDATA, add(CFA_XSP16, literal(-8)))
        CFI (cfiCond82) V1 load(1, XDATA, add(CFA_XSP16, literal(-7)))
        CFI (cfiCond82) R7 load(1, XDATA, add(CFA_XSP16, literal(-6)))
        CFI (cfiCond82) ?RET_LOW load(1, XDATA, add(CFA_XSP16, literal(-5)))
        CFI (cfiCond82) ?RET_HIGH load(1, XDATA, add(CFA_XSP16, literal(-4)))
        CFI (cfiCond82) ?BRET_EXT load(1, XDATA, add(CFA_XSP16, literal(-3)))
        CFI (cfiCond82) DPL0 load(1, XDATA, add(CFA_XSP16, literal(-2)))
        CFI (cfiCond82) DPH0 load(1, XDATA, add(CFA_XSP16, literal(-1)))
        CFI (cfiCond82) CFA_SP SP+0
        CFI (cfiCond82) CFA_XSP16 add(XSP16, 20)
        CFI Block cfiPicker83 Using cfiCommon1
        CFI (cfiPicker83) NoFunction
        CFI (cfiPicker83) Picker
        MOVX    A,@DPTR
        MOV     R2,A
        INC     DPTR
        MOVX    A,@DPTR
        MOV     R3,A
        LCALL   ?Subroutine14 & 0xFFFF
??CrossCallReturnLabel_24:
        RET
        CFI EndBlock cfiCond81
        CFI EndBlock cfiCond82
        CFI EndBlock cfiPicker83

        RSEG BANKED_CODE:CODE:NOROOT(0)
?Subroutine14:
        CFI Block cfiCond84 Using cfiCommon0
        CFI NoFunction
        CFI Conditional ??CrossCallReturnLabel_25, ??CrossCallReturnLabel_20
        CFI R6 load(1, XDATA, add(CFA_XSP16, literal(-9)))
        CFI VB load(1, XDATA, add(CFA_XSP16, literal(-8)))
        CFI V0 load(1, XDATA, add(CFA_XSP16, literal(-7)))
        CFI R7 load(1, XDATA, add(CFA_XSP16, literal(-6)))
        CFI ?RET_LOW load(1, XDATA, add(CFA_XSP16, literal(-5)))
        CFI ?RET_HIGH load(1, XDATA, add(CFA_XSP16, literal(-4)))
        CFI ?BRET_EXT load(1, XDATA, add(CFA_XSP16, literal(-3)))
        CFI DPL0 load(1, XDATA, add(CFA_XSP16, literal(-2)))
        CFI DPH0 load(1, XDATA, add(CFA_XSP16, literal(-1)))
        CFI CFA_SP SP+0
        CFI CFA_XSP16 add(XSP16, 9)
        CFI Block cfiCond85 Using cfiCommon0
        CFI (cfiCond85) NoFunction
        CFI (cfiCond85) Conditional ??CrossCallReturnLabel_25, ??CrossCallReturnLabel_21
        CFI (cfiCond85) R6 load(1, XDATA, add(CFA_XSP16, literal(-14)))
        CFI (cfiCond85) VB load(1, XDATA, add(CFA_XSP16, literal(-13)))
        CFI (cfiCond85) V0 load(1, XDATA, add(CFA_XSP16, literal(-12)))
        CFI (cfiCond85) V1 load(1, XDATA, add(CFA_XSP16, literal(-11)))
        CFI (cfiCond85) V2 load(1, XDATA, add(CFA_XSP16, literal(-10)))
        CFI (cfiCond85) V3 load(1, XDATA, add(CFA_XSP16, literal(-9)))
        CFI (cfiCond85) V4 load(1, XDATA, add(CFA_XSP16, literal(-8)))
        CFI (cfiCond85) V5 load(1, XDATA, add(CFA_XSP16, literal(-7)))
        CFI (cfiCond85) R7 load(1, XDATA, add(CFA_XSP16, literal(-6)))
        CFI (cfiCond85) ?RET_LOW load(1, XDATA, add(CFA_XSP16, literal(-5)))
        CFI (cfiCond85) ?RET_HIGH load(1, XDATA, add(CFA_XSP16, literal(-4)))
        CFI (cfiCond85) ?BRET_EXT load(1, XDATA, add(CFA_XSP16, literal(-3)))
        CFI (cfiCond85) DPL0 load(1, XDATA, add(CFA_XSP16, literal(-2)))
        CFI (cfiCond85) DPH0 load(1, XDATA, add(CFA_XSP16, literal(-1)))
        CFI (cfiCond85) CFA_SP SP+0
        CFI (cfiCond85) CFA_XSP16 add(XSP16, 15)
        CFI Block cfiCond86 Using cfiCommon0
        CFI (cfiCond86) NoFunction
        CFI (cfiCond86) Conditional ??CrossCallReturnLabel_25, ??CrossCallReturnLabel_22
        CFI (cfiCond86) R6 load(1, XDATA, add(CFA_XSP16, literal(-9)))
        CFI (cfiCond86) VB load(1, XDATA, add(CFA_XSP16, literal(-8)))
        CFI (cfiCond86) V0 load(1, XDATA, add(CFA_XSP16, literal(-7)))
        CFI (cfiCond86) R7 load(1, XDATA, add(CFA_XSP16, literal(-6)))
        CFI (cfiCond86) ?RET_LOW load(1, XDATA, add(CFA_XSP16, literal(-5)))
        CFI (cfiCond86) ?RET_HIGH load(1, XDATA, add(CFA_XSP16, literal(-4)))
        CFI (cfiCond86) ?BRET_EXT load(1, XDATA, add(CFA_XSP16, literal(-3)))
        CFI (cfiCond86) DPL0 load(1, XDATA, add(CFA_XSP16, literal(-2)))
        CFI (cfiCond86) DPH0 load(1, XDATA, add(CFA_XSP16, literal(-1)))
        CFI (cfiCond86) CFA_SP SP+0
        CFI (cfiCond86) CFA_XSP16 add(XSP16, 10)
        CFI Block cfiCond87 Using cfiCommon0
        CFI (cfiCond87) NoFunction
        CFI (cfiCond87) Conditional ??CrossCallReturnLabel_25, ??CrossCallReturnLabel_23
        CFI (cfiCond87) R6 load(1, XDATA, add(CFA_XSP16, literal(-9)))
        CFI (cfiCond87) VB load(1, XDATA, add(CFA_XSP16, literal(-8)))
        CFI (cfiCond87) V0 load(1, XDATA, add(CFA_XSP16, literal(-7)))
        CFI (cfiCond87) R7 load(1, XDATA, add(CFA_XSP16, literal(-6)))
        CFI (cfiCond87) ?RET_LOW load(1, XDATA, add(CFA_XSP16, literal(-5)))
        CFI (cfiCond87) ?RET_HIGH load(1, XDATA, add(CFA_XSP16, literal(-4)))
        CFI (cfiCond87) ?BRET_EXT load(1, XDATA, add(CFA_XSP16, literal(-3)))
        CFI (cfiCond87) DPL0 load(1, XDATA, add(CFA_XSP16, literal(-2)))
        CFI (cfiCond87) DPH0 load(1, XDATA, add(CFA_XSP16, literal(-1)))
        CFI (cfiCond87) CFA_SP SP+0
        CFI (cfiCond87) CFA_XSP16 add(XSP16, 9)
        CFI Block cfiCond88 Using cfiCommon0
        CFI (cfiCond88) NoFunction
        CFI (cfiCond88) Conditional ??CrossCallReturnLabel_24, ??CrossCallReturnLabel_2
        CFI (cfiCond88) R6 load(1, XDATA, add(CFA_XSP16, literal(-12)))
        CFI (cfiCond88) VB load(1, XDATA, add(CFA_XSP16, literal(-11)))
        CFI (cfiCond88) V0 load(1, XDATA, add(CFA_XSP16, literal(-10)))
        CFI (cfiCond88) V1 load(1, XDATA, add(CFA_XSP16, literal(-9)))
        CFI (cfiCond88) V2 load(1, XDATA, add(CFA_XSP16, literal(-8)))
        CFI (cfiCond88) V3 load(1, XDATA, add(CFA_XSP16, literal(-7)))
        CFI (cfiCond88) R7 load(1, XDATA, add(CFA_XSP16, literal(-6)))
        CFI (cfiCond88) ?RET_LOW load(1, XDATA, add(CFA_XSP16, literal(-5)))
        CFI (cfiCond88) ?RET_HIGH load(1, XDATA, add(CFA_XSP16, literal(-4)))
        CFI (cfiCond88) ?BRET_EXT load(1, XDATA, add(CFA_XSP16, literal(-3)))
        CFI (cfiCond88) DPL0 load(1, XDATA, add(CFA_XSP16, literal(-2)))
        CFI (cfiCond88) DPH0 load(1, XDATA, add(CFA_XSP16, literal(-1)))
        CFI (cfiCond88) CFA_SP SP+0
        CFI (cfiCond88) CFA_XSP16 add(XSP16, 23)
        CFI Block cfiCond89 Using cfiCommon0
        CFI (cfiCond89) NoFunction
        CFI (cfiCond89) Conditional ??CrossCallReturnLabel_24, ??CrossCallReturnLabel_3
        CFI (cfiCond89) R6 load(1, XDATA, add(CFA_XSP16, literal(-10)))
        CFI (cfiCond89) VB load(1, XDATA, add(CFA_XSP16, literal(-9)))
        CFI (cfiCond89) V0 load(1, XDATA, add(CFA_XSP16, literal(-8)))
        CFI (cfiCond89) V1 load(1, XDATA, add(CFA_XSP16, literal(-7)))
        CFI (cfiCond89) R7 load(1, XDATA, add(CFA_XSP16, literal(-6)))
        CFI (cfiCond89) ?RET_LOW load(1, XDATA, add(CFA_XSP16, literal(-5)))
        CFI (cfiCond89) ?RET_HIGH load(1, XDATA, add(CFA_XSP16, literal(-4)))
        CFI (cfiCond89) ?BRET_EXT load(1, XDATA, add(CFA_XSP16, literal(-3)))
        CFI (cfiCond89) DPL0 load(1, XDATA, add(CFA_XSP16, literal(-2)))
        CFI (cfiCond89) DPH0 load(1, XDATA, add(CFA_XSP16, literal(-1)))
        CFI (cfiCond89) CFA_SP SP+0
        CFI (cfiCond89) CFA_XSP16 add(XSP16, 20)
        CFI Block cfiPicker90 Using cfiCommon1
        CFI (cfiPicker90) NoFunction
        CFI (cfiPicker90) Picker
        LCALL   ?Subroutine16 & 0xFFFF
??CrossCallReturnLabel_27:
        MOVX    A,@DPTR
        MOV     R1,A
        RET
        CFI EndBlock cfiCond84
        CFI EndBlock cfiCond85
        CFI EndBlock cfiCond86
        CFI EndBlock cfiCond87
        CFI EndBlock cfiCond88
        CFI EndBlock cfiCond89
        CFI EndBlock cfiPicker90
//  931 
//  932 /*********************************************************************
//  933  * @fn      SAPI_Init
//  934  *
//  935  * @brief   Initialization function for the Simple API Task.
//  936  *          This is called during initialization and should contain
//  937  *          any application specific initialization (ie. hardware
//  938  *          initialization/setup, table initialization, power up
//  939  *          notification ... ).
//  940  *
//  941  * @param   task_id - the ID assigned by OSAL.  This ID should be
//  942  *                    used to send messages and set timers.
//  943  *
//  944  * @return  none
//  945  */

        RSEG BANKED_CODE:CODE:NOROOT(0)
//  946 void SAPI_Init( byte task_id )
SAPI_Init:
        CFI Block cfiBlock91 Using cfiCommon0
        CFI Function SAPI_Init
        CODE
//  947 {
        FUNCALL SAPI_Init, afRegister
        LOCFRAME ISTACK, 0, STACK
        LOCFRAME PSTACK, 0, STACK
        LOCFRAME XSTACK, 10, STACK
        LOCFRAME IOVERLAY, 0, STATIC
        LOCFRAME DOVERLAY, 0, STATIC
        ARGFRAME ISTACK, 0, STACK
        ARGFRAME PSTACK, 0, STACK
        ARGFRAME XSTACK, 10, STACK
        ARGFRAME IOVERLAY, 0, STATIC
        ARGFRAME DOVERLAY, 0, STATIC
        FUNCALL SAPI_Init, afSetMatch
        LOCFRAME ISTACK, 0, STACK
        LOCFRAME PSTACK, 0, STACK
        LOCFRAME XSTACK, 10, STACK
        LOCFRAME IOVERLAY, 0, STATIC
        LOCFRAME DOVERLAY, 0, STATIC
        ARGFRAME ISTACK, 0, STACK
        ARGFRAME PSTACK, 0, STACK
        ARGFRAME XSTACK, 10, STACK
        ARGFRAME IOVERLAY, 0, STATIC
        ARGFRAME DOVERLAY, 0, STATIC
        FUNCALL SAPI_Init, ZDO_RegisterForZDOMsg
        LOCFRAME ISTACK, 0, STACK
        LOCFRAME PSTACK, 0, STACK
        LOCFRAME XSTACK, 10, STACK
        LOCFRAME IOVERLAY, 0, STATIC
        LOCFRAME DOVERLAY, 0, STATIC
        ARGFRAME ISTACK, 0, STACK
        ARGFRAME PSTACK, 0, STACK
        ARGFRAME XSTACK, 10, STACK
        ARGFRAME IOVERLAY, 0, STATIC
        ARGFRAME DOVERLAY, 0, STATIC
        FUNCALL SAPI_Init, ZDO_RegisterForZDOMsg
        LOCFRAME ISTACK, 0, STACK
        LOCFRAME PSTACK, 0, STACK
        LOCFRAME XSTACK, 10, STACK
        LOCFRAME IOVERLAY, 0, STATIC
        LOCFRAME DOVERLAY, 0, STATIC
        ARGFRAME ISTACK, 0, STACK
        ARGFRAME PSTACK, 0, STACK
        ARGFRAME XSTACK, 10, STACK
        ARGFRAME IOVERLAY, 0, STATIC
        ARGFRAME DOVERLAY, 0, STATIC
        FUNCALL SAPI_Init, RegisterForKeys
        LOCFRAME ISTACK, 0, STACK
        LOCFRAME PSTACK, 0, STACK
        LOCFRAME XSTACK, 10, STACK
        LOCFRAME IOVERLAY, 0, STATIC
        LOCFRAME DOVERLAY, 0, STATIC
        ARGFRAME ISTACK, 0, STACK
        ARGFRAME PSTACK, 0, STACK
        ARGFRAME XSTACK, 10, STACK
        ARGFRAME IOVERLAY, 0, STATIC
        ARGFRAME DOVERLAY, 0, STATIC
        FUNCALL SAPI_Init, HalKeyRead
        LOCFRAME ISTACK, 0, STACK
        LOCFRAME PSTACK, 0, STACK
        LOCFRAME XSTACK, 10, STACK
        LOCFRAME IOVERLAY, 0, STATIC
        LOCFRAME DOVERLAY, 0, STATIC
        ARGFRAME ISTACK, 0, STACK
        ARGFRAME PSTACK, 0, STACK
        ARGFRAME XSTACK, 10, STACK
        ARGFRAME IOVERLAY, 0, STATIC
        ARGFRAME DOVERLAY, 0, STATIC
        FUNCALL SAPI_Init, zb_WriteConfiguration
        LOCFRAME ISTACK, 0, STACK
        LOCFRAME PSTACK, 0, STACK
        LOCFRAME XSTACK, 10, STACK
        LOCFRAME IOVERLAY, 0, STATIC
        LOCFRAME DOVERLAY, 0, STATIC
        ARGFRAME ISTACK, 0, STACK
        ARGFRAME PSTACK, 0, STACK
        ARGFRAME XSTACK, 10, STACK
        ARGFRAME IOVERLAY, 0, STATIC
        ARGFRAME DOVERLAY, 0, STATIC
        FUNCALL SAPI_Init, Onboard_soft_reset
        LOCFRAME ISTACK, 0, STACK
        LOCFRAME PSTACK, 0, STACK
        LOCFRAME XSTACK, 10, STACK
        LOCFRAME IOVERLAY, 0, STATIC
        LOCFRAME DOVERLAY, 0, STATIC
        ARGFRAME ISTACK, 0, STACK
        ARGFRAME PSTACK, 0, STACK
        ARGFRAME XSTACK, 10, STACK
        ARGFRAME IOVERLAY, 0, STATIC
        ARGFRAME DOVERLAY, 0, STATIC
        FUNCALL SAPI_Init, osal_set_event
        LOCFRAME ISTACK, 0, STACK
        LOCFRAME PSTACK, 0, STACK
        LOCFRAME XSTACK, 10, STACK
        LOCFRAME IOVERLAY, 0, STATIC
        LOCFRAME DOVERLAY, 0, STATIC
        ARGFRAME ISTACK, 0, STACK
        ARGFRAME PSTACK, 0, STACK
        ARGFRAME XSTACK, 10, STACK
        ARGFRAME IOVERLAY, 0, STATIC
        ARGFRAME DOVERLAY, 0, STATIC
        MOV     A,#-0x9
        LCALL   ?BANKED_ENTER_XDATA
        CFI DPH0 load(1, XDATA, add(CFA_XSP16, literal(-1)))
        CFI DPL0 load(1, XDATA, add(CFA_XSP16, literal(-2)))
        CFI ?BRET_EXT load(1, XDATA, add(CFA_XSP16, literal(-3)))
        CFI ?RET_HIGH load(1, XDATA, add(CFA_XSP16, literal(-4)))
        CFI ?RET_LOW load(1, XDATA, add(CFA_XSP16, literal(-5)))
        CFI R7 load(1, XDATA, add(CFA_XSP16, literal(-6)))
        CFI V0 load(1, XDATA, add(CFA_XSP16, literal(-7)))
        CFI VB load(1, XDATA, add(CFA_XSP16, literal(-8)))
        CFI R6 load(1, XDATA, add(CFA_XSP16, literal(-9)))
        CFI CFA_SP SP+0
        CFI CFA_XSP16 add(XSP16, 9)
        ; Saved register size: 9
        ; Auto size: 1
        MOV     A,#-0x1
        LCALL   ?ALLOC_XSTACK8
        CFI CFA_XSP16 add(XSP16, 10)
        MOV     A,R1
        MOV     R6,A
//  948   sapi_TaskID = task_id;
        MOV     DPTR,#sapi_TaskID
        MOVX    @DPTR,A
//  949   sapi_bindInProgress = 0xffff;
        MOV     DPTR,#sapi_bindInProgress
        MOV     A,#-0x1
        MOVX    @DPTR,A
        INC     DPTR
        MOVX    @DPTR,A
//  950 
//  951   sapi_epDesc.task_id = &sapi_TaskID;
        MOV     DPTR,#sapi_epDesc + 1
        MOV     A,#sapi_TaskID & 0xff
        MOVX    @DPTR,A
        INC     DPTR
        MOV     A,#(sapi_TaskID >> 8) & 0xff
        MOVX    @DPTR,A
//  952   sapi_epDesc.endPoint = 0;
        MOV     DPTR,#sapi_epDesc
        CLR     A
        MOVX    @DPTR,A
//  953   
//  954 #if ( SAPI_CB_FUNC )
//  955   sapi_epDesc.endPoint = zb_SimpleDesc.EndPoint;
        MOV     DPTR,#zb_SimpleDesc
        MOVX    A,@DPTR
        MOV     DPTR,#sapi_epDesc
        MOVX    @DPTR,A
//  956   sapi_epDesc.task_id = &sapi_TaskID;
//  957   sapi_epDesc.simpleDesc = (SimpleDescriptionFormat_t *)&zb_SimpleDesc;
        MOV     DPTR,#sapi_epDesc + 3
        MOV     A,#zb_SimpleDesc & 0xff
        MOVX    @DPTR,A
        INC     DPTR
        MOV     A,#(zb_SimpleDesc >> 8) & 0xff
        MOVX    @DPTR,A
//  958   sapi_epDesc.latencyReq = noLatencyReqs;
        INC     DPTR
        CLR     A
        MOVX    @DPTR,A
//  959 
//  960   // Register the endpoint/interface description with the AF
//  961   afRegister( &sapi_epDesc );
        ; Setup parameters for call to function afRegister
        MOV     R2,#sapi_epDesc & 0xff
        MOV     R3,#(sapi_epDesc >> 8) & 0xff
        LCALL   ??afRegister?relay
//  962 #endif
//  963 
//  964   // Turn off match descriptor response by default
//  965   afSetMatch(sapi_epDesc.simpleDesc->EndPoint, FALSE);
        ; Setup parameters for call to function afSetMatch
        LCALL   ?Subroutine6 & 0xFFFF
//  966 
//  967   // Register callback evetns from the ZDApp
//  968   ZDO_RegisterForZDOMsg( sapi_TaskID, NWK_addr_rsp );
??CrossCallReturnLabel_22:
        ; Setup parameters for call to function ZDO_RegisterForZDOMsg
        MOV     R2,#0x0
        MOV     R3,#-0x80
        MOV     DPTR,#sapi_TaskID
        MOVX    A,@DPTR
        MOV     R1,A
        LCALL   ??ZDO_RegisterForZDOMsg?relay
//  969   ZDO_RegisterForZDOMsg( sapi_TaskID, Match_Desc_rsp );
        ; Setup parameters for call to function ZDO_RegisterForZDOMsg
        MOV     R2,#0x6
        MOV     R3,#-0x80
        MOV     DPTR,#sapi_TaskID
        MOVX    A,@DPTR
        MOV     R1,A
        LCALL   ??ZDO_RegisterForZDOMsg?relay
//  970 
//  971 #if ( SAPI_CB_FUNC )
//  972 #if (defined HAL_KEY) && (HAL_KEY == TRUE)
//  973   // Register for HAL events
//  974   RegisterForKeys( sapi_TaskID );
        ; Setup parameters for call to function RegisterForKeys
        MOV     DPTR,#sapi_TaskID
        MOVX    A,@DPTR
        MOV     R1,A
        LCALL   ??RegisterForKeys?relay
//  975 
//  976   if ( HalKeyRead () == HAL_KEY_SW_5)
        ; Setup parameters for call to function HalKeyRead
        LCALL   ??HalKeyRead?relay
        MOV     A,R1
        XRL     A,#0x4
        JNZ     ??SAPI_Init_0
//  977   {
//  978     // If SW5 is pressed and held while powerup, force auto-start and nv-restore off and reset
//  979     uint8 startOptions = ZCD_STARTOPT_CLEAR_STATE | ZCD_STARTOPT_CLEAR_CONFIG;
        MOV     DPL,?XSP + 0
        MOV     DPH,?XSP + 1
        MOV     A,#0x3
        MOVX    @DPTR,A
//  980     zb_WriteConfiguration( ZCD_NV_STARTUP_OPTION, sizeof(uint8), &startOptions );
        ; Setup parameters for call to function zb_WriteConfiguration
        MOV     R4,DPL
        MOV     R5,DPH
        MOV     R2,#0x1
        MOV     R1,A
        LCALL   ??zb_WriteConfiguration?relay
//  981     zb_SystemReset();
        ; Setup parameters for call to function Onboard_soft_reset
        LCALL   Onboard_soft_reset & 0xFFFF
//  982   }
//  983 #endif // HAL_KEY
//  984 
//  985   // Set an event to start the application
//  986   osal_set_event(task_id, ZB_ENTRY_EVENT);
??SAPI_Init_0:
        ; Setup parameters for call to function osal_set_event
        MOV     R2,#0x0
        MOV     R3,#0x10
        MOV     A,R6
        MOV     R1,A
        LCALL   ??osal_set_event?relay
//  987 #endif
//  988 }
        MOV     A,#0x1
        LCALL   ?DEALLOC_XSTACK8
        CFI CFA_XSP16 add(XSP16, 9)
        LJMP    ?Subroutine2 & 0xFFFF
        CFI EndBlock cfiBlock91
//  989 /*********************************************************************
//  990  * @fn      SAPI_SendCback
//  991  *
//  992  * @brief   Sends a message to the sapi task ( itself ) so that a
//  993  *           callback can be generated later.
//  994  *
//  995  * @return  none
//  996  */

        RSEG BANKED_CODE:CODE:NOROOT(0)
//  997 void SAPI_SendCback( uint8 event, uint8 status, uint16 data )
SAPI_SendCback:
        CFI Block cfiBlock92 Using cfiCommon0
        CFI Function SAPI_SendCback
        CODE
//  998 {
        FUNCALL SAPI_SendCback, osal_msg_allocate
        LOCFRAME ISTACK, 0, STACK
        LOCFRAME PSTACK, 0, STACK
        LOCFRAME XSTACK, 12, STACK
        LOCFRAME IOVERLAY, 0, STATIC
        LOCFRAME DOVERLAY, 0, STATIC
        ARGFRAME ISTACK, 0, STACK
        ARGFRAME PSTACK, 0, STACK
        ARGFRAME XSTACK, 12, STACK
        ARGFRAME IOVERLAY, 0, STATIC
        ARGFRAME DOVERLAY, 0, STATIC
        FUNCALL SAPI_SendCback, osal_msg_send
        LOCFRAME ISTACK, 0, STACK
        LOCFRAME PSTACK, 0, STACK
        LOCFRAME XSTACK, 12, STACK
        LOCFRAME IOVERLAY, 0, STATIC
        LOCFRAME DOVERLAY, 0, STATIC
        ARGFRAME ISTACK, 0, STACK
        ARGFRAME PSTACK, 0, STACK
        ARGFRAME XSTACK, 12, STACK
        ARGFRAME IOVERLAY, 0, STATIC
        ARGFRAME DOVERLAY, 0, STATIC
        MOV     A,#-0xc
        LCALL   ?BANKED_ENTER_XDATA
        CFI DPH0 load(1, XDATA, add(CFA_XSP16, literal(-1)))
        CFI DPL0 load(1, XDATA, add(CFA_XSP16, literal(-2)))
        CFI ?BRET_EXT load(1, XDATA, add(CFA_XSP16, literal(-3)))
        CFI ?RET_HIGH load(1, XDATA, add(CFA_XSP16, literal(-4)))
        CFI ?RET_LOW load(1, XDATA, add(CFA_XSP16, literal(-5)))
        CFI R7 load(1, XDATA, add(CFA_XSP16, literal(-6)))
        CFI V3 load(1, XDATA, add(CFA_XSP16, literal(-7)))
        CFI V2 load(1, XDATA, add(CFA_XSP16, literal(-8)))
        CFI V1 load(1, XDATA, add(CFA_XSP16, literal(-9)))
        CFI V0 load(1, XDATA, add(CFA_XSP16, literal(-10)))
        CFI VB load(1, XDATA, add(CFA_XSP16, literal(-11)))
        CFI R6 load(1, XDATA, add(CFA_XSP16, literal(-12)))
        CFI CFA_SP SP+0
        CFI CFA_XSP16 add(XSP16, 12)
        ; Saved register size: 12
        ; Auto size: 0
        MOV     ?V0 + 0,R1
        MOV     ?V0 + 1,R2
        MOV     A,R4
        MOV     R6,A
        MOV     A,R5
        MOV     R7,A
//  999   sapi_CbackEvent_t *pMsg;
// 1000 
// 1001   pMsg = (sapi_CbackEvent_t *)osal_msg_allocate( sizeof(sapi_CbackEvent_t) );
        ; Setup parameters for call to function osal_msg_allocate
        MOV     R2,#0x4
        MOV     R3,#0x0
        LCALL   ??osal_msg_allocate?relay
// 1002   if( pMsg )
        MOV     A,R2
        ORL     A,R3
        JZ      ??SAPI_SendCback_0
// 1003   {
// 1004     pMsg->hdr.event = event;
        MOV     DPL,R2
        MOV     DPH,R3
        MOV     A,?V0 + 0
        MOVX    @DPTR,A
// 1005     pMsg->hdr.status = status;
        INC     DPTR
        MOV     A,?V0 + 1
        MOVX    @DPTR,A
// 1006     pMsg->data = data;
        MOV     DPL,R2
        MOV     DPH,R3
        INC     DPTR
        INC     DPTR
        MOV     A,R6
        MOVX    @DPTR,A
        INC     DPTR
        MOV     A,R7
        MOVX    @DPTR,A
// 1007 
// 1008     osal_msg_send( sapi_TaskID, (uint8 *)pMsg );
        ; Setup parameters for call to function osal_msg_send
        MOV     DPTR,#sapi_TaskID
        MOVX    A,@DPTR
        MOV     R1,A
        LCALL   ??osal_msg_send?relay
// 1009   }
// 1010 
// 1011 }
??SAPI_SendCback_0:
        LJMP    ?Subroutine1 & 0xFFFF
        CFI EndBlock cfiBlock92
// 1012 
// 1013 #if OSAL_SAPI
// 1014 /*********************************************************************
// 1015  * @fn      osalInitTasks
// 1016  *
// 1017  * @brief   This function invokes the initialization function for each task.
// 1018  *
// 1019  * @param   void
// 1020  *
// 1021  * @return  none
// 1022  */

        RSEG BANKED_CODE:CODE:NOROOT(0)
// 1023 void osalInitTasks( void )
osalInitTasks:
        CFI Block cfiBlock93 Using cfiCommon0
        CFI Function osalInitTasks
        CODE
// 1024 {
        FUNCALL osalInitTasks, osal_mem_alloc
        LOCFRAME ISTACK, 2, STACK
        LOCFRAME PSTACK, 0, STACK
        LOCFRAME XSTACK, 0, STACK
        LOCFRAME IOVERLAY, 0, STATIC
        LOCFRAME DOVERLAY, 0, STATIC
        ARGFRAME ISTACK, 2, STACK
        ARGFRAME PSTACK, 0, STACK
        ARGFRAME XSTACK, 0, STACK
        ARGFRAME IOVERLAY, 0, STATIC
        ARGFRAME DOVERLAY, 0, STATIC
        FUNCALL osalInitTasks, osal_memset
        LOCFRAME ISTACK, 2, STACK
        LOCFRAME PSTACK, 0, STACK
        LOCFRAME XSTACK, 0, STACK
        LOCFRAME IOVERLAY, 0, STATIC
        LOCFRAME DOVERLAY, 0, STATIC
        ARGFRAME ISTACK, 2, STACK
        ARGFRAME PSTACK, 0, STACK
        ARGFRAME XSTACK, 0, STACK
        ARGFRAME IOVERLAY, 0, STATIC
        ARGFRAME DOVERLAY, 0, STATIC
        FUNCALL osalInitTasks, macTaskInit
        LOCFRAME ISTACK, 2, STACK
        LOCFRAME PSTACK, 0, STACK
        LOCFRAME XSTACK, 0, STACK
        LOCFRAME IOVERLAY, 0, STATIC
        LOCFRAME DOVERLAY, 0, STATIC
        ARGFRAME ISTACK, 2, STACK
        ARGFRAME PSTACK, 0, STACK
        ARGFRAME XSTACK, 0, STACK
        ARGFRAME IOVERLAY, 0, STATIC
        ARGFRAME DOVERLAY, 0, STATIC
        FUNCALL osalInitTasks, nwk_init
        LOCFRAME ISTACK, 2, STACK
        LOCFRAME PSTACK, 0, STACK
        LOCFRAME XSTACK, 0, STACK
        LOCFRAME IOVERLAY, 0, STATIC
        LOCFRAME DOVERLAY, 0, STATIC
        ARGFRAME ISTACK, 2, STACK
        ARGFRAME PSTACK, 0, STACK
        ARGFRAME XSTACK, 0, STACK
        ARGFRAME IOVERLAY, 0, STATIC
        ARGFRAME DOVERLAY, 0, STATIC
        FUNCALL osalInitTasks, Hal_Init
        LOCFRAME ISTACK, 2, STACK
        LOCFRAME PSTACK, 0, STACK
        LOCFRAME XSTACK, 0, STACK
        LOCFRAME IOVERLAY, 0, STATIC
        LOCFRAME DOVERLAY, 0, STATIC
        ARGFRAME ISTACK, 2, STACK
        ARGFRAME PSTACK, 0, STACK
        ARGFRAME XSTACK, 0, STACK
        ARGFRAME IOVERLAY, 0, STATIC
        ARGFRAME DOVERLAY, 0, STATIC
        FUNCALL osalInitTasks, APS_Init
        LOCFRAME ISTACK, 2, STACK
        LOCFRAME PSTACK, 0, STACK
        LOCFRAME XSTACK, 0, STACK
        LOCFRAME IOVERLAY, 0, STATIC
        LOCFRAME DOVERLAY, 0, STATIC
        ARGFRAME ISTACK, 2, STACK
        ARGFRAME PSTACK, 0, STACK
        ARGFRAME XSTACK, 0, STACK
        ARGFRAME IOVERLAY, 0, STATIC
        ARGFRAME DOVERLAY, 0, STATIC
        FUNCALL osalInitTasks, ZDApp_Init
        LOCFRAME ISTACK, 2, STACK
        LOCFRAME PSTACK, 0, STACK
        LOCFRAME XSTACK, 0, STACK
        LOCFRAME IOVERLAY, 0, STATIC
        LOCFRAME DOVERLAY, 0, STATIC
        ARGFRAME ISTACK, 2, STACK
        ARGFRAME PSTACK, 0, STACK
        ARGFRAME XSTACK, 0, STACK
        ARGFRAME IOVERLAY, 0, STATIC
        ARGFRAME DOVERLAY, 0, STATIC
        FUNCALL osalInitTasks, SAPI_Init
        LOCFRAME ISTACK, 2, STACK
        LOCFRAME PSTACK, 0, STACK
        LOCFRAME XSTACK, 0, STACK
        LOCFRAME IOVERLAY, 0, STATIC
        LOCFRAME DOVERLAY, 0, STATIC
        ARGFRAME ISTACK, 2, STACK
        ARGFRAME PSTACK, 0, STACK
        ARGFRAME XSTACK, 0, STACK
        ARGFRAME IOVERLAY, 0, STATIC
        ARGFRAME DOVERLAY, 0, STATIC
        PUSH    DPL
        CFI DPL0 Frame(CFA_SP, 4)
        CFI CFA_SP SP+-4
        PUSH    DPH
        CFI DPH0 Frame(CFA_SP, 5)
        CFI CFA_SP SP+-5
        ; Saved register size: 2
        ; Auto size: 0
// 1025   uint8 taskID = 0;
// 1026 
// 1027   tasksEvents = (uint16 *)osal_mem_alloc( sizeof( uint16 ) * tasksCnt);
        ; Setup parameters for call to function osal_mem_alloc
        MOV     R2,#0xc
        MOV     R3,#0x0
        LCALL   ??osal_mem_alloc?relay
        MOV     DPTR,#tasksEvents
        MOV     A,R2
        MOVX    @DPTR,A
        INC     DPTR
        MOV     A,R3
        MOVX    @DPTR,A
// 1028   osal_memset( tasksEvents, 0, (sizeof( uint16 ) * tasksCnt));
        ; Setup parameters for call to function osal_memset
        MOV     R4,#0xc
        MOV     R5,#0x0
        MOV     R1,#0x0
        LCALL   ??osal_memset?relay
// 1029 
// 1030   macTaskInit( taskID++ );
        ; Setup parameters for call to function macTaskInit
        MOV     R1,#0x0
        LCALL   ??macTaskInit?relay
// 1031   nwk_init( taskID++ );
        ; Setup parameters for call to function nwk_init
        MOV     R1,#0x1
        LCALL   ??nwk_init?relay
// 1032   Hal_Init( taskID++ );
        ; Setup parameters for call to function Hal_Init
        MOV     R1,#0x2
        LCALL   ??Hal_Init?relay
// 1033 #if defined( MT_TASK )
// 1034   MT_TaskInit( taskID++ );
// 1035 #endif
// 1036   APS_Init( taskID++ );
        ; Setup parameters for call to function APS_Init
        MOV     R1,#0x3
        LCALL   ??APS_Init?relay
// 1037   ZDApp_Init( taskID++ );
        ; Setup parameters for call to function ZDApp_Init
        MOV     R1,#0x4
        LCALL   ??ZDApp_Init?relay
// 1038   SAPI_Init( taskID );
        ; Setup parameters for call to function SAPI_Init
        MOV     R1,#0x5
        LCALL   ??SAPI_Init?relay
// 1039 }
        LJMP    ?Subroutine0 & 0xFFFF
        CFI EndBlock cfiBlock93

        RSEG BANK_RELAYS:CODE:REORDER:NOROOT(0)
??zb_SystemReset?relay:
        LCALL   ?BDISPATCH
        DATA
        DC24    zb_SystemReset

        RSEG BANK_RELAYS:CODE:REORDER:NOROOT(0)
??zb_StartRequest?relay:
        LCALL   ?BDISPATCH
        DATA
        DC24    zb_StartRequest

        RSEG BANK_RELAYS:CODE:REORDER:NOROOT(0)
??zb_BindDevice?relay:
        LCALL   ?BDISPATCH
        DATA
        DC24    zb_BindDevice

        RSEG BANK_RELAYS:CODE:REORDER:NOROOT(0)
??zb_PermitJoiningRequest?relay:
        LCALL   ?BDISPATCH
        DATA
        DC24    zb_PermitJoiningRequest

        RSEG BANK_RELAYS:CODE:REORDER:NOROOT(0)
??zb_AllowBind?relay:
        LCALL   ?BDISPATCH
        DATA
        DC24    zb_AllowBind

        RSEG BANK_RELAYS:CODE:REORDER:NOROOT(0)
??zb_SendDataRequest?relay:
        LCALL   ?BDISPATCH
        DATA
        DC24    zb_SendDataRequest

        RSEG BANK_RELAYS:CODE:REORDER:NOROOT(0)
??zb_ReadConfiguration?relay:
        LCALL   ?BDISPATCH
        DATA
        DC24    zb_ReadConfiguration

        RSEG BANK_RELAYS:CODE:REORDER:NOROOT(0)
??zb_WriteConfiguration?relay:
        LCALL   ?BDISPATCH
        DATA
        DC24    zb_WriteConfiguration

        RSEG BANK_RELAYS:CODE:REORDER:NOROOT(0)
??zb_GetDeviceInfo?relay:
        LCALL   ?BDISPATCH
        DATA
        DC24    zb_GetDeviceInfo

        RSEG BANK_RELAYS:CODE:REORDER:NOROOT(0)
??zb_FindDeviceRequest?relay:
        LCALL   ?BDISPATCH
        DATA
        DC24    zb_FindDeviceRequest

        RSEG BANK_RELAYS:CODE:REORDER:NOROOT(0)
??SAPI_ProcessEvent?relay:
        LCALL   ?BDISPATCH
        DATA
        DC24    SAPI_ProcessEvent

        RSEG BANK_RELAYS:CODE:REORDER:NOROOT(0)
??SAPI_ProcessZDOMsgs?relay:
        LCALL   ?BDISPATCH
        DATA
        DC24    SAPI_ProcessZDOMsgs

        RSEG BANK_RELAYS:CODE:REORDER:NOROOT(0)
??SAPI_Init?relay:
        LCALL   ?BDISPATCH
        DATA
        DC24    SAPI_Init

        RSEG BANK_RELAYS:CODE:REORDER:NOROOT(0)
??SAPI_SendCback?relay:
        LCALL   ?BDISPATCH
        DATA
        DC24    SAPI_SendCback

        RSEG BANK_RELAYS:CODE:REORDER:NOROOT(0)
??osalInitTasks?relay:
        LCALL   ?BDISPATCH
        DATA
        DC24    osalInitTasks

        END
// 1040 #endif
// 1041 
// 1042 /*********************************************************************
// 1043 *********************************************************************/
// 1044 
// 
// 2 141 bytes in segment BANKED_CODE
//    90 bytes in segment BANK_RELAYS
//    13 bytes in segment XDATA_ROM_C
//    11 bytes in segment XDATA_Z
// 
// 2 231 bytes of CODE  memory
//    13 bytes of CONST memory
//    11 bytes of XDATA memory
//
//Errors: none
//Warnings: none
